
========================================================================

** ELF Header Information

    File Name: .\obj\FW_AO2024_Cpu_MeterSystem_Center1261_v01.axf

    Machine class: ELFCLASS32 (32-bit)
    Data encoding: ELFDATA2LSB (Little endian)
    Header version: EV_CURRENT (Current version)
    Operating System ABI: none
    ABI Version: 0
    File Type: ET_EXEC (Executable) (2)
    Machine: EM_ARM (ARM)

    Image Entry point: 0x000000d5
    Flags: EF_ARM_HASENTRY + EF_ARM_ABI_FLOAT_SOFT (0x05000202)

    ARM ELF revision: 5 (ABI version 2)

    Conforms to Soft float procedure-call standard

    Built with
    Component: Arm Compiler for Embedded 6.23 Tool: armasm [5f102300]
    Component: Arm Compiler for Embedded 6.23 Tool: armlink [5f102400]

    Header size: 52 bytes (0x34)
    Program header entry size: 32 bytes (0x20)
    Section header entry size: 40 bytes (0x28)

    Program header entries: 1
    Section header entries: 15

    Program header offset: 137600 (0x00021980)
    Section header offset: 137632 (0x000219a0)

    Section header string table index: 14

========================================================================

** Program header #0 (PT_LOAD) [PF_X + PF_W + PF_R + PF_ARM_ENTRY]
    Size : 24960 bytes (22584 bytes in file)
    Virtual address: 0x00000000 (Alignment 8)


========================================================================

** Section #1 'ER_IROM1' (SHT_PROGBITS) [SHF_ALLOC + SHF_EXECINSTR]
    Size   : 22564 bytes (alignment 4)
    Address: 0x00000000

    $d.realdata
    RESET
    __Vectors
        0x00000000:    20000958    X..     DCD    536873304
        0x00000004:    000000d5    ....    DCD    213
        0x00000008:    000000d9    ....    DCD    217
        0x0000000c:    000000db    ....    DCD    219
        0x00000010:    00000000    ....    DCD    0
        0x00000014:    00000000    ....    DCD    0
        0x00000018:    00000000    ....    DCD    0
        0x0000001c:    00000000    ....    DCD    0
        0x00000020:    00000000    ....    DCD    0
        0x00000024:    00000000    ....    DCD    0
        0x00000028:    00000000    ....    DCD    0
        0x0000002c:    000000eb    ....    DCD    235
        0x00000030:    00000000    ....    DCD    0
        0x00000034:    00000000    ....    DCD    0
        0x00000038:    000000ed    ....    DCD    237
        0x0000003c:    00003f65    e?..    DCD    16229
        0x00000040:    000000f1    ....    DCD    241
        0x00000044:    000047c9    .G..    DCD    18377
        0x00000048:    000000f1    ....    DCD    241
        0x0000004c:    000000f1    ....    DCD    241
        0x00000050:    000000f1    ....    DCD    241
        0x00000054:    000000f1    ....    DCD    241
        0x00000058:    000000f1    ....    DCD    241
        0x0000005c:    000000f1    ....    DCD    241
        0x00000060:    000000f1    ....    DCD    241
        0x00000064:    000000f1    ....    DCD    241
        0x00000068:    000000f1    ....    DCD    241
        0x0000006c:    000000f1    ....    DCD    241
        0x00000070:    00004171    qA..    DCD    16753
        0x00000074:    00004419    .D..    DCD    17433
        0x00000078:    000000f1    ....    DCD    241
        0x0000007c:    000000f1    ....    DCD    241
        0x00000080:    000000f1    ....    DCD    241
        0x00000084:    000000f1    ....    DCD    241
        0x00000088:    000000f1    ....    DCD    241
        0x0000008c:    000000f1    ....    DCD    241
        0x00000090:    000000f1    ....    DCD    241
        0x00000094:    000000f1    ....    DCD    241
        0x00000098:    000000f1    ....    DCD    241
        0x0000009c:    000000f1    ....    DCD    241
        0x000000a0:    000000f1    ....    DCD    241
        0x000000a4:    000000f1    ....    DCD    241
        0x000000a8:    000000f1    ....    DCD    241
        0x000000ac:    000000f1    ....    DCD    241
        0x000000b0:    000000f1    ....    DCD    241
        0x000000b4:    000000f1    ....    DCD    241
        0x000000b8:    000000f1    ....    DCD    241
        0x000000bc:    000000f1    ....    DCD    241
    $t
    .ARM.Collect$$$$00000000
    .ARM.Collect$$$$00000001
    __main
    _main_stk
        0x000000c0:    4803        .H      LDR      r0,__lit__00000000 ; [0xd0] = 0x20000958
        0x000000c2:    4685        .F      MOV      sp,r0
    .ARM.Collect$$$$00000004
    _main_scatterload
        0x000000c4:    f000fa4c    ..L.    BL       __scatterload ; 0x560
    .ARM.Collect$$$$00000008
    .ARM.Collect$$$$0000000A
    .ARM.Collect$$$$0000000B
    __main_after_scatterload
    _main_clock
    _main_cpp_init
    _main_init
        0x000000c8:    4800        .H      LDR      r0,[pc,#0] ; [0xcc] = 0x4ce1
        0x000000ca:    4700        .G      BX       r0
    $d
        0x000000cc:    00004ce1    .L..    DCD    19681
    .ARM.Collect$$$$00002712
    __lit__00000000
    .ARM.Collect$$$$0000000D
    .ARM.Collect$$$$0000000F
    __rt_final_cpp
    __rt_final_exit
        0x000000d0:    20000958    X..     DCD    536873304
    $t
    .text
    Reset_Handler
        0x000000d4:    480b        .H      LDR      r0,[pc,#44] ; [0x104] = 0xc1
        0x000000d6:    4700        .G      BX       r0
    NMI_Handler
        0x000000d8:    e7fe        ..      B        NMI_Handler ; 0xd8
    HardFault_Handler
        0x000000da:    4670        pF      MOV      r0,lr
        0x000000dc:    f3ef8108    ....    MRS      r1,MSP
        0x000000e0:    f3ef8209    ....    MRS      r2,PSP
        0x000000e4:    4b08        .K      LDR      r3,[pc,#32] ; [0x108] = 0x2f2d
        0x000000e6:    4798        .G      BLX      r3
        0x000000e8:    4700        .G      BX       r0
    SVC_Handler
        0x000000ea:    e7fe        ..      B        SVC_Handler ; 0xea
    PendSV_Handler
        0x000000ec:    e7fe        ..      B        PendSV_Handler ; 0xec
        0x000000ee:    e7fe        ..      B        0xee ; PendSV_Handler + 2
    Default_Handler
    ACMP01_IRQHandler
    ADC_IRQHandler
    BOD_IRQHandler
    CLKDIRC_IRQHandler
    EINT024_IRQHandler
    EINT135_IRQHandler
    GPAB_IRQHandler
    GPCDEF_IRQHandler
    I2C0_IRQHandler
    I2C1_IRQHandler
    PDMA_IRQHandler
    PWM0_IRQHandler
    PWM1_IRQHandler
    PWRWU_IRQHandler
    RTC_IRQHandler
    SC01_IRQHandler
    SPI0_IRQHandler
    SPI1_IRQHandler
    TMR0_IRQHandler
    TMR1_IRQHandler
    TMR2_IRQHandler
    TMR3_IRQHandler
    USBD_IRQHandler
    USCI_IRQHandler
        0x000000f0:    e7fe        ..      B        Default_Handler ; 0xf0
    $d
        0x000000f2:    0000        ..      DCW    0
    $t
    SH_DoCommand
        0x000000f4:    beab        ..      BKPT     #0xab
        0x000000f6:    4b05        .K      LDR      r3,[pc,#20] ; [0x10c] = 0x315d
        0x000000f8:    4674        tF      MOV      r4,lr
        0x000000fa:    4798        .G      BLX      r3
        0x000000fc:    4720         G      BX       r4
    __PC
        0x000000fe:    4670        pF      MOV      r0,lr
        0x00000100:    47f0        .G      BLX      lr
    $d
        0x00000102:    0000        ..      DCW    0
        0x00000104:    000000c1    ....    DCD    193
        0x00000108:    00002f2d    -/..    DCD    12077
        0x0000010c:    0000315d    ]1..    DCD    12637
    $t
    .text
    __aeabi_memcpy
    __aeabi_memcpy4
    __aeabi_memcpy8
        0x00000110:    4603        .F      MOV      r3,r0
        0x00000112:    430b        .C      ORRS     r3,r3,r1
        0x00000114:    079b        ..      LSLS     r3,r3,#30
        0x00000116:    d003        ..      BEQ      0x120 ; __aeabi_memcpy + 16
        0x00000118:    e009        ..      B        0x12e ; __aeabi_memcpy + 30
        0x0000011a:    c908        ..      LDM      r1!,{r3}
        0x0000011c:    1f12        ..      SUBS     r2,r2,#4
        0x0000011e:    c008        ..      STM      r0!,{r3}
        0x00000120:    2a04        .*      CMP      r2,#4
        0x00000122:    d2fa        ..      BCS      0x11a ; __aeabi_memcpy + 10
        0x00000124:    e003        ..      B        0x12e ; __aeabi_memcpy + 30
        0x00000126:    780b        .x      LDRB     r3,[r1,#0]
        0x00000128:    7003        .p      STRB     r3,[r0,#0]
        0x0000012a:    1c40        @.      ADDS     r0,r0,#1
        0x0000012c:    1c49        I.      ADDS     r1,r1,#1
        0x0000012e:    1e52        R.      SUBS     r2,r2,#1
        0x00000130:    d2f9        ..      BCS      0x126 ; __aeabi_memcpy + 22
        0x00000132:    4770        pG      BX       lr
    .text
    __aeabi_uidiv
    __aeabi_uidivmod
        0x00000134:    b570        p.      PUSH     {r4-r6,lr}
        0x00000136:    4604        .F      MOV      r4,r0
        0x00000138:    2900        .)      CMP      r1,#0
        0x0000013a:    d003        ..      BEQ      0x144 ; __aeabi_uidiv + 16
        0x0000013c:    2000        .       MOVS     r0,#0
        0x0000013e:    2220         "      MOVS     r2,#0x20
        0x00000140:    2301        .#      MOVS     r3,#1
        0x00000142:    e010        ..      B        0x166 ; __aeabi_uidiv + 50
        0x00000144:    2800        .(      CMP      r0,#0
        0x00000146:    d001        ..      BEQ      0x14c ; __aeabi_uidiv + 24
        0x00000148:    2000        .       MOVS     r0,#0
        0x0000014a:    43c0        .C      MVNS     r0,r0
        0x0000014c:    46c0        .F      MOV      r8,r8
        0x0000014e:    46c0        .F      MOV      r8,r8
        0x00000150:    e00d        ..      B        0x16e ; __aeabi_uidiv + 58
        0x00000152:    4625        %F      MOV      r5,r4
        0x00000154:    40d5        .@      LSRS     r5,r5,r2
        0x00000156:    428d        .B      CMP      r5,r1
        0x00000158:    d305        ..      BCC      0x166 ; __aeabi_uidiv + 50
        0x0000015a:    460d        .F      MOV      r5,r1
        0x0000015c:    4095        .@      LSLS     r5,r5,r2
        0x0000015e:    1b64        d.      SUBS     r4,r4,r5
        0x00000160:    461d        .F      MOV      r5,r3
        0x00000162:    4095        .@      LSLS     r5,r5,r2
        0x00000164:    1940        @.      ADDS     r0,r0,r5
        0x00000166:    4615        .F      MOV      r5,r2
        0x00000168:    1e52        R.      SUBS     r2,r2,#1
        0x0000016a:    2d00        .-      CMP      r5,#0
        0x0000016c:    dcf1        ..      BGT      0x152 ; __aeabi_uidiv + 30
        0x0000016e:    4621        !F      MOV      r1,r4
        0x00000170:    bd70        p.      POP      {r4-r6,pc}
    .text
    __aeabi_uldivmod
        0x00000172:    b5f0        ..      PUSH     {r4-r7,lr}
        0x00000174:    b41f        ..      PUSH     {r0-r4}
        0x00000176:    4606        .F      MOV      r6,r0
        0x00000178:    2000        .       MOVS     r0,#0
        0x0000017a:    b082        ..      SUB      sp,sp,#8
        0x0000017c:    4605        .F      MOV      r5,r0
        0x0000017e:    2440        @$      MOVS     r4,#0x40
        0x00000180:    9101        ..      STR      r1,[sp,#4]
        0x00000182:    9000        ..      STR      r0,[sp,#0]
        0x00000184:    e01b        ..      B        0x1be ; __aeabi_uldivmod + 76
        0x00000186:    9901        ..      LDR      r1,[sp,#4]
        0x00000188:    4622        "F      MOV      r2,r4
        0x0000018a:    460f        .F      MOV      r7,r1
        0x0000018c:    4630        0F      MOV      r0,r6
        0x0000018e:    f000fa0f    ....    BL       __aeabi_llsr ; 0x5b0
        0x00000192:    9a04        ..      LDR      r2,[sp,#0x10]
        0x00000194:    9b05        ..      LDR      r3,[sp,#0x14]
        0x00000196:    1a80        ..      SUBS     r0,r0,r2
        0x00000198:    4199        .A      SBCS     r1,r1,r3
        0x0000019a:    d310        ..      BCC      0x1be ; __aeabi_uldivmod + 76
        0x0000019c:    4610        .F      MOV      r0,r2
        0x0000019e:    4619        .F      MOV      r1,r3
        0x000001a0:    4622        "F      MOV      r2,r4
        0x000001a2:    f000f9f5    ....    BL       __aeabi_llsl ; 0x590
        0x000001a6:    1a36        6.      SUBS     r6,r6,r0
        0x000001a8:    418f        .A      SBCS     r7,r7,r1
        0x000001aa:    9701        ..      STR      r7,[sp,#4]
        0x000001ac:    4622        "F      MOV      r2,r4
        0x000001ae:    2001        .       MOVS     r0,#1
        0x000001b0:    2100        .!      MOVS     r1,#0
        0x000001b2:    9f00        ..      LDR      r7,[sp,#0]
        0x000001b4:    f000f9ec    ....    BL       __aeabi_llsl ; 0x590
        0x000001b8:    1838        8.      ADDS     r0,r7,r0
        0x000001ba:    414d        MA      ADCS     r5,r5,r1
        0x000001bc:    9000        ..      STR      r0,[sp,#0]
        0x000001be:    4620         F      MOV      r0,r4
        0x000001c0:    1e64        d.      SUBS     r4,r4,#1
        0x000001c2:    2800        .(      CMP      r0,#0
        0x000001c4:    dcdf        ..      BGT      0x186 ; __aeabi_uldivmod + 20
        0x000001c6:    9b01        ..      LDR      r3,[sp,#4]
        0x000001c8:    9800        ..      LDR      r0,[sp,#0]
        0x000001ca:    4629        )F      MOV      r1,r5
        0x000001cc:    4632        2F      MOV      r2,r6
        0x000001ce:    b007        ..      ADD      sp,sp,#0x1c
        0x000001d0:    bdf0        ..      POP      {r4-r7,pc}
    .text
    __I$use$fp
        0x000001d2:    0000        ..      MOVS     r0,r0
    .text
    __aeabi_dadd
        0x000001d4:    b5f0        ..      PUSH     {r4-r7,lr}
        0x000001d6:    4607        .F      MOV      r7,r0
        0x000001d8:    4608        .F      MOV      r0,r1
        0x000001da:    4058        X@      EORS     r0,r0,r3
        0x000001dc:    b087        ..      SUB      sp,sp,#0x1c
        0x000001de:    0fc0        ..      LSRS     r0,r0,#31
        0x000001e0:    9004        ..      STR      r0,[sp,#0x10]
        0x000001e2:    0048        H.      LSLS     r0,r1,#1
        0x000001e4:    460e        .F      MOV      r6,r1
        0x000001e6:    0059        Y.      LSLS     r1,r3,#1
        0x000001e8:    0840        @.      LSRS     r0,r0,#1
        0x000001ea:    0849        I.      LSRS     r1,r1,#1
        0x000001ec:    1abc        ..      SUBS     r4,r7,r2
        0x000001ee:    4188        .A      SBCS     r0,r0,r1
        0x000001f0:    d205        ..      BCS      0x1fe ; __aeabi_dadd + 42
        0x000001f2:    4638        8F      MOV      r0,r7
        0x000001f4:    4631        1F      MOV      r1,r6
        0x000001f6:    461e        .F      MOV      r6,r3
        0x000001f8:    4617        .F      MOV      r7,r2
        0x000001fa:    460b        .F      MOV      r3,r1
        0x000001fc:    4602        .F      MOV      r2,r0
        0x000001fe:    0058        X.      LSLS     r0,r3,#1
        0x00000200:    0840        @.      LSRS     r0,r0,#1
        0x00000202:    4310        .C      ORRS     r0,r0,r2
        0x00000204:    d04c        L.      BEQ      0x2a0 ; __aeabi_dadd + 204
        0x00000206:    0d30        0.      LSRS     r0,r6,#20
        0x00000208:    9003        ..      STR      r0,[sp,#0xc]
        0x0000020a:    0540        @.      LSLS     r0,r0,#21
        0x0000020c:    0059        Y.      LSLS     r1,r3,#1
        0x0000020e:    0d40        @.      LSRS     r0,r0,#21
        0x00000210:    0d49        I.      LSRS     r1,r1,#21
        0x00000212:    9005        ..      STR      r0,[sp,#0x14]
        0x00000214:    1a40        @.      SUBS     r0,r0,r1
        0x00000216:    9002        ..      STR      r0,[sp,#8]
        0x00000218:    2840        @(      CMP      r0,#0x40
        0x0000021a:    da72        r.      BGE      0x302 ; __aeabi_dadd + 302
        0x0000021c:    0318        ..      LSLS     r0,r3,#12
        0x0000021e:    2101        .!      MOVS     r1,#1
        0x00000220:    0b00        ..      LSRS     r0,r0,#12
        0x00000222:    0509        ..      LSLS     r1,r1,#20
        0x00000224:    4308        .C      ORRS     r0,r0,r1
        0x00000226:    9001        ..      STR      r0,[sp,#4]
        0x00000228:    9804        ..      LDR      r0,[sp,#0x10]
        0x0000022a:    9200        ..      STR      r2,[sp,#0]
        0x0000022c:    2800        .(      CMP      r0,#0
        0x0000022e:    d005        ..      BEQ      0x23c ; __aeabi_dadd + 104
        0x00000230:    9901        ..      LDR      r1,[sp,#4]
        0x00000232:    4252        RB      RSBS     r2,r2,#0
        0x00000234:    2000        .       MOVS     r0,#0
        0x00000236:    4188        .A      SBCS     r0,r0,r1
        0x00000238:    9200        ..      STR      r2,[sp,#0]
        0x0000023a:    9001        ..      STR      r0,[sp,#4]
        0x0000023c:    9802        ..      LDR      r0,[sp,#8]
        0x0000023e:    2140        @!      MOVS     r1,#0x40
        0x00000240:    1a0a        ..      SUBS     r2,r1,r0
        0x00000242:    9901        ..      LDR      r1,[sp,#4]
        0x00000244:    9800        ..      LDR      r0,[sp,#0]
        0x00000246:    f000f9a3    ....    BL       __aeabi_llsl ; 0x590
        0x0000024a:    4605        .F      MOV      r5,r0
        0x0000024c:    460c        .F      MOV      r4,r1
        0x0000024e:    466b        kF      MOV      r3,sp
        0x00000250:    cb07        ..      LDM      r3!,{r0-r2}
        0x00000252:    f000f9be    ....    BL       __aeabi_lasr ; 0x5d2
        0x00000256:    19c0        ..      ADDS     r0,r0,r7
        0x00000258:    4171        qA      ADCS     r1,r1,r6
        0x0000025a:    9a03        ..      LDR      r2,[sp,#0xc]
        0x0000025c:    0d0e        ..      LSRS     r6,r1,#20
        0x0000025e:    2300        .#      MOVS     r3,#0
        0x00000260:    17d7        ..      ASRS     r7,r2,#31
        0x00000262:    4056        V@      EORS     r6,r6,r2
        0x00000264:    461a        .F      MOV      r2,r3
        0x00000266:    407a        z@      EORS     r2,r2,r7
        0x00000268:    4316        .C      ORRS     r6,r6,r2
        0x0000026a:    d044        D.      BEQ      0x2f6 ; __aeabi_dadd + 290
        0x0000026c:    9a04        ..      LDR      r2,[sp,#0x10]
        0x0000026e:    2a00        .*      CMP      r2,#0
        0x00000270:    d02d        -.      BEQ      0x2ce ; __aeabi_dadd + 250
        0x00000272:    9a02        ..      LDR      r2,[sp,#8]
        0x00000274:    2a01        .*      CMP      r2,#1
        0x00000276:    9a03        ..      LDR      r2,[sp,#0xc]
        0x00000278:    dc15        ..      BGT      0x2a6 ; __aeabi_dadd + 210
        0x0000027a:    0512        ..      LSLS     r2,r2,#20
        0x0000027c:    1ac0        ..      SUBS     r0,r0,r3
        0x0000027e:    4191        .A      SBCS     r1,r1,r2
        0x00000280:    2601        .&      MOVS     r6,#1
        0x00000282:    0536        6.      LSLS     r6,r6,#20
        0x00000284:    1c00        ..      ADDS     r0,r0,#0
        0x00000286:    4171        qA      ADCS     r1,r1,r6
        0x00000288:    0fd2        ..      LSRS     r2,r2,#31
        0x0000028a:    9e05        ..      LDR      r6,[sp,#0x14]
        0x0000028c:    07d2        ..      LSLS     r2,r2,#31
        0x0000028e:    9300        ..      STR      r3,[sp,#0]
        0x00000290:    9201        ..      STR      r2,[sp,#4]
        0x00000292:    9602        ..      STR      r6,[sp,#8]
        0x00000294:    462a        *F      MOV      r2,r5
        0x00000296:    4623        #F      MOV      r3,r4
        0x00000298:    f000f9bb    ....    BL       _double_epilogue ; 0x612
        0x0000029c:    b007        ..      ADD      sp,sp,#0x1c
        0x0000029e:    bdf0        ..      POP      {r4-r7,pc}
        0x000002a0:    4638        8F      MOV      r0,r7
        0x000002a2:    4631        1F      MOV      r1,r6
        0x000002a4:    e7fa        ..      B        0x29c ; __aeabi_dadd + 200
        0x000002a6:    0516        ..      LSLS     r6,r2,#20
        0x000002a8:    4a22        "J      LDR      r2,[pc,#136] ; [0x334] = 0xffe00000
        0x000002aa:    460f        .F      MOV      r7,r1
        0x000002ac:    18b2        ..      ADDS     r2,r6,r2
        0x000002ae:    1ac0        ..      SUBS     r0,r0,r3
        0x000002b0:    41b7        .A      SBCS     r7,r7,r6
        0x000002b2:    2101        .!      MOVS     r1,#1
        0x000002b4:    0509        ..      LSLS     r1,r1,#20
        0x000002b6:    1c00        ..      ADDS     r0,r0,#0
        0x000002b8:    414f        OA      ADCS     r7,r7,r1
        0x000002ba:    1800        ..      ADDS     r0,r0,r0
        0x000002bc:    417f        .A      ADCS     r7,r7,r7
        0x000002be:    4611        .F      MOV      r1,r2
        0x000002c0:    1818        ..      ADDS     r0,r3,r0
        0x000002c2:    4179        yA      ADCS     r1,r1,r7
        0x000002c4:    0fe2        ..      LSRS     r2,r4,#31
        0x000002c6:    4310        .C      ORRS     r0,r0,r2
        0x000002c8:    196d        m.      ADDS     r5,r5,r5
        0x000002ca:    4164        dA      ADCS     r4,r4,r4
        0x000002cc:    e013        ..      B        0x2f6 ; __aeabi_dadd + 290
        0x000002ce:    07e2        ..      LSLS     r2,r4,#31
        0x000002d0:    086d        m.      LSRS     r5,r5,#1
        0x000002d2:    4315        .C      ORRS     r5,r5,r2
        0x000002d4:    0864        d.      LSRS     r4,r4,#1
        0x000002d6:    07c2        ..      LSLS     r2,r0,#31
        0x000002d8:    4314        .C      ORRS     r4,r4,r2
        0x000002da:    9a03        ..      LDR      r2,[sp,#0xc]
        0x000002dc:    2601        .&      MOVS     r6,#1
        0x000002de:    0512        ..      LSLS     r2,r2,#20
        0x000002e0:    1ac0        ..      SUBS     r0,r0,r3
        0x000002e2:    4191        .A      SBCS     r1,r1,r2
        0x000002e4:    0536        6.      LSLS     r6,r6,#20
        0x000002e6:    1c00        ..      ADDS     r0,r0,#0
        0x000002e8:    4171        qA      ADCS     r1,r1,r6
        0x000002ea:    07ce        ..      LSLS     r6,r1,#31
        0x000002ec:    0840        @.      LSRS     r0,r0,#1
        0x000002ee:    4330        0C      ORRS     r0,r0,r6
        0x000002f0:    0849        I.      LSRS     r1,r1,#1
        0x000002f2:    18c0        ..      ADDS     r0,r0,r3
        0x000002f4:    4151        QA      ADCS     r1,r1,r2
        0x000002f6:    462a        *F      MOV      r2,r5
        0x000002f8:    4623        #F      MOV      r3,r4
        0x000002fa:    f000f97d    ..}.    BL       _double_round ; 0x5f8
        0x000002fe:    e7cd        ..      B        0x29c ; __aeabi_dadd + 200
        0x00000300:    e7ff        ..      B        0x302 ; __aeabi_dadd + 302
        0x00000302:    9804        ..      LDR      r0,[sp,#0x10]
        0x00000304:    2201        ."      MOVS     r2,#1
        0x00000306:    0040        @.      LSLS     r0,r0,#1
        0x00000308:    17c1        ..      ASRS     r1,r0,#31
        0x0000030a:    1a12        ..      SUBS     r2,r2,r0
        0x0000030c:    2300        .#      MOVS     r3,#0
        0x0000030e:    418b        .A      SBCS     r3,r3,r1
        0x00000310:    9804        ..      LDR      r0,[sp,#0x10]
        0x00000312:    4631        1F      MOV      r1,r6
        0x00000314:    17c4        ..      ASRS     r4,r0,#31
        0x00000316:    1a38        8.      SUBS     r0,r7,r0
        0x00000318:    41a1        .A      SBCS     r1,r1,r4
        0x0000031a:    e7ee        ..      B        0x2fa ; __aeabi_dadd + 294
    __aeabi_dsub
        0x0000031c:    b430        0.      PUSH     {r4,r5}
        0x0000031e:    2401        .$      MOVS     r4,#1
        0x00000320:    07e4        ..      LSLS     r4,r4,#31
        0x00000322:    4063        c@      EORS     r3,r3,r4
        0x00000324:    bc30        0.      POP      {r4,r5}
        0x00000326:    e755        U.      B        __aeabi_dadd ; 0x1d4
    __aeabi_drsub
        0x00000328:    b430        0.      PUSH     {r4,r5}
        0x0000032a:    2401        .$      MOVS     r4,#1
        0x0000032c:    07e4        ..      LSLS     r4,r4,#31
        0x0000032e:    4061        a@      EORS     r1,r1,r4
        0x00000330:    bc30        0.      POP      {r4,r5}
        0x00000332:    e74f        O.      B        __aeabi_dadd ; 0x1d4
    $d
        0x00000334:    ffe00000    ....    DCD    4292870144
    $t
    .text
    __aeabi_dmul
        0x00000338:    b5f0        ..      PUSH     {r4-r7,lr}
        0x0000033a:    b41f        ..      PUSH     {r0-r4}
        0x0000033c:    b088        ..      SUB      sp,sp,#0x20
        0x0000033e:    990b        ..      LDR      r1,[sp,#0x2c]
        0x00000340:    9809        ..      LDR      r0,[sp,#0x24]
        0x00000342:    2400        .$      MOVS     r4,#0
        0x00000344:    4048        H@      EORS     r0,r0,r1
        0x00000346:    9909        ..      LDR      r1,[sp,#0x24]
        0x00000348:    0fc0        ..      LSRS     r0,r0,#31
        0x0000034a:    0049        I.      LSLS     r1,r1,#1
        0x0000034c:    0849        I.      LSRS     r1,r1,#1
        0x0000034e:    9109        ..      STR      r1,[sp,#0x24]
        0x00000350:    07c0        ..      LSLS     r0,r0,#31
        0x00000352:    990b        ..      LDR      r1,[sp,#0x2c]
        0x00000354:    9000        ..      STR      r0,[sp,#0]
        0x00000356:    0049        I.      LSLS     r1,r1,#1
        0x00000358:    0849        I.      LSRS     r1,r1,#1
        0x0000035a:    910b        ..      STR      r1,[sp,#0x2c]
        0x0000035c:    9909        ..      LDR      r1,[sp,#0x24]
        0x0000035e:    9808        ..      LDR      r0,[sp,#0x20]
        0x00000360:    46a6        .F      MOV      lr,r4
        0x00000362:    4308        .C      ORRS     r0,r0,r1
        0x00000364:    d01c        ..      BEQ      0x3a0 ; __aeabi_dmul + 104
        0x00000366:    990b        ..      LDR      r1,[sp,#0x2c]
        0x00000368:    980a        ..      LDR      r0,[sp,#0x28]
        0x0000036a:    4308        .C      ORRS     r0,r0,r1
        0x0000036c:    d018        ..      BEQ      0x3a0 ; __aeabi_dmul + 104
        0x0000036e:    9809        ..      LDR      r0,[sp,#0x24]
        0x00000370:    2401        .$      MOVS     r4,#1
        0x00000372:    0040        @.      LSLS     r0,r0,#1
        0x00000374:    0d42        B.      LSRS     r2,r0,#21
        0x00000376:    0048        H.      LSLS     r0,r1,#1
        0x00000378:    0d41        A.      LSRS     r1,r0,#21
        0x0000037a:    9809        ..      LDR      r0,[sp,#0x24]
        0x0000037c:    0524        $.      LSLS     r4,r4,#20
        0x0000037e:    0300        ..      LSLS     r0,r0,#12
        0x00000380:    0b00        ..      LSRS     r0,r0,#12
        0x00000382:    4320         C      ORRS     r0,r0,r4
        0x00000384:    9009        ..      STR      r0,[sp,#0x24]
        0x00000386:    980b        ..      LDR      r0,[sp,#0x2c]
        0x00000388:    0300        ..      LSLS     r0,r0,#12
        0x0000038a:    0b00        ..      LSRS     r0,r0,#12
        0x0000038c:    4320         C      ORRS     r0,r0,r4
        0x0000038e:    900b        ..      STR      r0,[sp,#0x2c]
        0x00000390:    1850        P.      ADDS     r0,r2,r1
        0x00000392:    491c        .I      LDR      r1,[pc,#112] ; [0x404] = 0xfffffc0d
        0x00000394:    1840        @.      ADDS     r0,r0,r1
        0x00000396:    2200        ."      MOVS     r2,#0
        0x00000398:    9001        ..      STR      r0,[sp,#4]
        0x0000039a:    4614        .F      MOV      r4,r2
        0x0000039c:    4610        .F      MOV      r0,r2
        0x0000039e:    e005        ..      B        0x3ac ; __aeabi_dmul + 116
        0x000003a0:    2000        .       MOVS     r0,#0
        0x000003a2:    4601        .F      MOV      r1,r0
        0x000003a4:    b00d        ..      ADD      sp,sp,#0x34
        0x000003a6:    bdf0        ..      POP      {r4-r7,pc}
        0x000003a8:    2803        .(      CMP      r0,#3
        0x000003aa:    da01        ..      BGE      0x3b0 ; __aeabi_dmul + 120
        0x000003ac:    4603        .F      MOV      r3,r0
        0x000003ae:    e000        ..      B        0x3b2 ; __aeabi_dmul + 122
        0x000003b0:    2303        .#      MOVS     r3,#3
        0x000003b2:    469c        .F      MOV      r12,r3
        0x000003b4:    1ac1        ..      SUBS     r1,r0,r3
        0x000003b6:    ae0a        ..      ADD      r6,sp,#0x28
        0x000003b8:    e00a        ..      B        0x3d0 ; __aeabi_dmul + 152
        0x000003ba:    005f        _.      LSLS     r7,r3,#1
        0x000003bc:    ad08        ..      ADD      r5,sp,#0x20
        0x000003be:    5bed        .[      LDRH     r5,[r5,r7]
        0x000003c0:    004f        O.      LSLS     r7,r1,#1
        0x000003c2:    5bf7        .[      LDRH     r7,[r6,r7]
        0x000003c4:    437d        }C      MULS     r5,r7,r5
        0x000003c6:    2700        .'      MOVS     r7,#0
        0x000003c8:    18aa        ..      ADDS     r2,r5,r2
        0x000003ca:    417c        |A      ADCS     r4,r4,r7
        0x000003cc:    1c49        I.      ADDS     r1,r1,#1
        0x000003ce:    1e5b        [.      SUBS     r3,r3,#1
        0x000003d0:    4561        aE      CMP      r1,r12
        0x000003d2:    ddf2        ..      BLE      0x3ba ; __aeabi_dmul + 130
        0x000003d4:    0041        A.      LSLS     r1,r0,#1
        0x000003d6:    ab04        ..      ADD      r3,sp,#0x10
        0x000003d8:    525a        ZR      STRH     r2,[r3,r1]
        0x000003da:    0421        !.      LSLS     r1,r4,#16
        0x000003dc:    0c12        ..      LSRS     r2,r2,#16
        0x000003de:    430a        .C      ORRS     r2,r2,r1
        0x000003e0:    0c24        $.      LSRS     r4,r4,#16
        0x000003e2:    1c40        @.      ADDS     r0,r0,#1
        0x000003e4:    2808        .(      CMP      r0,#8
        0x000003e6:    dbdf        ..      BLT      0x3a8 ; __aeabi_dmul + 112
        0x000003e8:    9801        ..      LDR      r0,[sp,#4]
        0x000003ea:    9002        ..      STR      r0,[sp,#8]
        0x000003ec:    9900        ..      LDR      r1,[sp,#0]
        0x000003ee:    4670        pF      MOV      r0,lr
        0x000003f0:    9101        ..      STR      r1,[sp,#4]
        0x000003f2:    9000        ..      STR      r0,[sp,#0]
        0x000003f4:    9b05        ..      LDR      r3,[sp,#0x14]
        0x000003f6:    9a04        ..      LDR      r2,[sp,#0x10]
        0x000003f8:    9907        ..      LDR      r1,[sp,#0x1c]
        0x000003fa:    9806        ..      LDR      r0,[sp,#0x18]
        0x000003fc:    f000f909    ....    BL       _double_epilogue ; 0x612
        0x00000400:    e7d0        ..      B        0x3a4 ; __aeabi_dmul + 108
    $d
        0x00000402:    0000        ..      DCW    0
        0x00000404:    fffffc0d    ....    DCD    4294966285
    $t
    .text
    __aeabi_ddiv
        0x00000408:    b5f0        ..      PUSH     {r4-r7,lr}
        0x0000040a:    460c        .F      MOV      r4,r1
        0x0000040c:    405c        \@      EORS     r4,r4,r3
        0x0000040e:    b085        ..      SUB      sp,sp,#0x14
        0x00000410:    0fe4        ..      LSRS     r4,r4,#31
        0x00000412:    07e4        ..      LSLS     r4,r4,#31
        0x00000414:    9403        ..      STR      r4,[sp,#0xc]
        0x00000416:    004c        L.      LSLS     r4,r1,#1
        0x00000418:    2600        .&      MOVS     r6,#0
        0x0000041a:    0864        d.      LSRS     r4,r4,#1
        0x0000041c:    0059        Y.      LSLS     r1,r3,#1
        0x0000041e:    4694        .F      MOV      r12,r2
        0x00000420:    0849        I.      LSRS     r1,r1,#1
        0x00000422:    4602        .F      MOV      r2,r0
        0x00000424:    9602        ..      STR      r6,[sp,#8]
        0x00000426:    4322        "C      ORRS     r2,r2,r4
        0x00000428:    d021        !.      BEQ      0x46e ; __aeabi_ddiv + 102
        0x0000042a:    4662        bF      MOV      r2,r12
        0x0000042c:    430a        .C      ORRS     r2,r2,r1
        0x0000042e:    d01e        ..      BEQ      0x46e ; __aeabi_ddiv + 102
        0x00000430:    0062        b.      LSLS     r2,r4,#1
        0x00000432:    0d57        W.      LSRS     r7,r2,#21
        0x00000434:    004a        J.      LSLS     r2,r1,#1
        0x00000436:    030e        ..      LSLS     r6,r1,#12
        0x00000438:    0323        #.      LSLS     r3,r4,#12
        0x0000043a:    0d55        U.      LSRS     r5,r2,#21
        0x0000043c:    2401        .$      MOVS     r4,#1
        0x0000043e:    4602        .F      MOV      r2,r0
        0x00000440:    492c        ,I      LDR      r1,[pc,#176] ; [0x4f4] = 0x3fd
        0x00000442:    0524        $.      LSLS     r4,r4,#20
        0x00000444:    1b78        x.      SUBS     r0,r7,r5
        0x00000446:    0b1b        ..      LSRS     r3,r3,#12
        0x00000448:    0b36        6.      LSRS     r6,r6,#12
        0x0000044a:    1840        @.      ADDS     r0,r0,r1
        0x0000044c:    4323        #C      ORRS     r3,r3,r4
        0x0000044e:    4326        &C      ORRS     r6,r6,r4
        0x00000450:    4661        aF      MOV      r1,r12
        0x00000452:    9000        ..      STR      r0,[sp,#0]
        0x00000454:    461c        .F      MOV      r4,r3
        0x00000456:    1a50        P.      SUBS     r0,r2,r1
        0x00000458:    41b4        .A      SBCS     r4,r4,r6
        0x0000045a:    d303        ..      BCC      0x464 ; __aeabi_ddiv + 92
        0x0000045c:    9800        ..      LDR      r0,[sp,#0]
        0x0000045e:    1c40        @.      ADDS     r0,r0,#1
        0x00000460:    9000        ..      STR      r0,[sp,#0]
        0x00000462:    e002        ..      B        0x46a ; __aeabi_ddiv + 98
        0x00000464:    1892        ..      ADDS     r2,r2,r2
        0x00000466:    9800        ..      LDR      r0,[sp,#0]
        0x00000468:    415b        [A      ADCS     r3,r3,r3
        0x0000046a:    2800        .(      CMP      r0,#0
        0x0000046c:    da03        ..      BGE      0x476 ; __aeabi_ddiv + 110
        0x0000046e:    2000        .       MOVS     r0,#0
        0x00000470:    4601        .F      MOV      r1,r0
        0x00000472:    b005        ..      ADD      sp,sp,#0x14
        0x00000474:    bdf0        ..      POP      {r4-r7,pc}
        0x00000476:    2000        .       MOVS     r0,#0
        0x00000478:    2101        .!      MOVS     r1,#1
        0x0000047a:    0509        ..      LSLS     r1,r1,#20
        0x0000047c:    4607        .F      MOV      r7,r0
        0x0000047e:    4686        .F      MOV      lr,r0
        0x00000480:    e011        ..      B        0x4a6 ; __aeabi_ddiv + 158
        0x00000482:    4664        dF      MOV      r4,r12
        0x00000484:    461d        .F      MOV      r5,r3
        0x00000486:    1b14        ..      SUBS     r4,r2,r4
        0x00000488:    41b5        .A      SBCS     r5,r5,r6
        0x0000048a:    d306        ..      BCC      0x49a ; __aeabi_ddiv + 146
        0x0000048c:    4665        eF      MOV      r5,r12
        0x0000048e:    1b52        R.      SUBS     r2,r2,r5
        0x00000490:    41b3        .A      SBCS     r3,r3,r6
        0x00000492:    4674        tF      MOV      r4,lr
        0x00000494:    4307        .C      ORRS     r7,r7,r0
        0x00000496:    430c        .C      ORRS     r4,r4,r1
        0x00000498:    46a6        .F      MOV      lr,r4
        0x0000049a:    07cd        ..      LSLS     r5,r1,#31
        0x0000049c:    0840        @.      LSRS     r0,r0,#1
        0x0000049e:    0849        I.      LSRS     r1,r1,#1
        0x000004a0:    4328        (C      ORRS     r0,r0,r5
        0x000004a2:    1892        ..      ADDS     r2,r2,r2
        0x000004a4:    415b        [A      ADCS     r3,r3,r3
        0x000004a6:    4605        .F      MOV      r5,r0
        0x000004a8:    430d        .C      ORRS     r5,r5,r1
        0x000004aa:    d1ea        ..      BNE      0x482 ; __aeabi_ddiv + 122
        0x000004ac:    4610        .F      MOV      r0,r2
        0x000004ae:    4318        .C      ORRS     r0,r0,r3
        0x000004b0:    d013        ..      BEQ      0x4da ; __aeabi_ddiv + 210
        0x000004b2:    4660        `F      MOV      r0,r12
        0x000004b4:    4619        .F      MOV      r1,r3
        0x000004b6:    4050        P@      EORS     r0,r0,r2
        0x000004b8:    4071        q@      EORS     r1,r1,r6
        0x000004ba:    4308        .C      ORRS     r0,r0,r1
        0x000004bc:    d006        ..      BEQ      0x4cc ; __aeabi_ddiv + 196
        0x000004be:    4660        `F      MOV      r0,r12
        0x000004c0:    1a10        ..      SUBS     r0,r2,r0
        0x000004c2:    41b3        .A      SBCS     r3,r3,r6
        0x000004c4:    d206        ..      BCS      0x4d4 ; __aeabi_ddiv + 204
        0x000004c6:    2201        ."      MOVS     r2,#1
        0x000004c8:    2300        .#      MOVS     r3,#0
        0x000004ca:    e006        ..      B        0x4da ; __aeabi_ddiv + 210
        0x000004cc:    2200        ."      MOVS     r2,#0
        0x000004ce:    2301        .#      MOVS     r3,#1
        0x000004d0:    07db        ..      LSLS     r3,r3,#31
        0x000004d2:    e002        ..      B        0x4da ; __aeabi_ddiv + 210
        0x000004d4:    2201        ."      MOVS     r2,#1
        0x000004d6:    43d2        .C      MVNS     r2,r2
        0x000004d8:    1053        S.      ASRS     r3,r2,#1
        0x000004da:    9800        ..      LDR      r0,[sp,#0]
        0x000004dc:    4674        tF      MOV      r4,lr
        0x000004de:    0501        ..      LSLS     r1,r0,#20
        0x000004e0:    1c38        8.      ADDS     r0,r7,#0
        0x000004e2:    4161        aA      ADCS     r1,r1,r4
        0x000004e4:    9c02        ..      LDR      r4,[sp,#8]
        0x000004e6:    9d03        ..      LDR      r5,[sp,#0xc]
        0x000004e8:    1900        ..      ADDS     r0,r0,r4
        0x000004ea:    4169        iA      ADCS     r1,r1,r5
        0x000004ec:    f000f884    ....    BL       _double_round ; 0x5f8
        0x000004f0:    e7bf        ..      B        0x472 ; __aeabi_ddiv + 106
    $d
        0x000004f2:    0000        ..      DCW    0
        0x000004f4:    000003fd    ....    DCD    1021
    $t
    .text
    __aeabi_d2ulz
        0x000004f8:    004a        J.      LSLS     r2,r1,#1
        0x000004fa:    0309        ..      LSLS     r1,r1,#12
        0x000004fc:    2301        .#      MOVS     r3,#1
        0x000004fe:    0b09        ..      LSRS     r1,r1,#12
        0x00000500:    051b        ..      LSLS     r3,r3,#20
        0x00000502:    4319        .C      ORRS     r1,r1,r3
        0x00000504:    4b0a        .K      LDR      r3,[pc,#40] ; [0x530] = 0x3ff
        0x00000506:    b510        ..      PUSH     {r4,lr}
        0x00000508:    0d52        R.      LSRS     r2,r2,#21
        0x0000050a:    429a        .B      CMP      r2,r3
        0x0000050c:    da02        ..      BGE      0x514 ; __aeabi_d2ulz + 28
        0x0000050e:    2000        .       MOVS     r0,#0
        0x00000510:    4601        .F      MOV      r1,r0
        0x00000512:    bd10        ..      POP      {r4,pc}
        0x00000514:    4b06        .K      LDR      r3,[pc,#24] ; [0x530] = 0x3ff
        0x00000516:    3334        43      ADDS     r3,r3,#0x34
        0x00000518:    429a        .B      CMP      r2,r3
        0x0000051a:    dc03        ..      BGT      0x524 ; __aeabi_d2ulz + 44
        0x0000051c:    1a9a        ..      SUBS     r2,r3,r2
        0x0000051e:    f000f847    ..G.    BL       __aeabi_llsr ; 0x5b0
        0x00000522:    bd10        ..      POP      {r4,pc}
        0x00000524:    4b03        .K      LDR      r3,[pc,#12] ; [0x534] = 0xfffffbcd
        0x00000526:    18d2        ..      ADDS     r2,r2,r3
        0x00000528:    f000f832    ..2.    BL       __aeabi_llsl ; 0x590
        0x0000052c:    bd10        ..      POP      {r4,pc}
    $d
        0x0000052e:    0000        ..      DCW    0
        0x00000530:    000003ff    ....    DCD    1023
        0x00000534:    fffffbcd    ....    DCD    4294966221
    $t
    .text
    __aeabi_cdrcmple
        0x00000538:    b510        ..      PUSH     {r4,lr}
        0x0000053a:    2900        .)      CMP      r1,#0
        0x0000053c:    db04        ..      BLT      0x548 ; __aeabi_cdrcmple + 16
        0x0000053e:    2401        .$      MOVS     r4,#1
        0x00000540:    07e4        ..      LSLS     r4,r4,#31
        0x00000542:    4240        @B      RSBS     r0,r0,#0
        0x00000544:    418c        .A      SBCS     r4,r4,r1
        0x00000546:    4621        !F      MOV      r1,r4
        0x00000548:    2b00        .+      CMP      r3,#0
        0x0000054a:    db04        ..      BLT      0x556 ; __aeabi_cdrcmple + 30
        0x0000054c:    461c        .F      MOV      r4,r3
        0x0000054e:    2301        .#      MOVS     r3,#1
        0x00000550:    07db        ..      LSLS     r3,r3,#31
        0x00000552:    4252        RB      RSBS     r2,r2,#0
        0x00000554:    41a3        .A      SBCS     r3,r3,r4
        0x00000556:    4299        .B      CMP      r1,r3
        0x00000558:    d100        ..      BNE      0x55c ; __aeabi_cdrcmple + 36
        0x0000055a:    4290        .B      CMP      r0,r2
        0x0000055c:    bd10        ..      POP      {r4,pc}
    $d
        0x0000055e:    0000        ..      DCW    0
    $t
    .text
    __scatterload
    __scatterload_rt2
        0x00000560:    b51c        ..      PUSH     {r2-r4,lr}
        0x00000562:    4809        .H      LDR      r0,[pc,#36] ; [0x588] = 0x5804
        0x00000564:    9000        ..      STR      r0,[sp,#0]
        0x00000566:    4809        .H      LDR      r0,[pc,#36] ; [0x58c] = 0x5824
        0x00000568:    9001        ..      STR      r0,[sp,#4]
        0x0000056a:    4605        .F      MOV      r5,r0
        0x0000056c:    2601        .&      MOVS     r6,#1
        0x0000056e:    9c00        ..      LDR      r4,[sp,#0]
        0x00000570:    e005        ..      B        0x57e ; __scatterload + 30
        0x00000572:    68e3        .h      LDR      r3,[r4,#0xc]
        0x00000574:    cc07        ..      LDM      r4!,{r0-r2}
        0x00000576:    4333        3C      ORRS     r3,r3,r6
        0x00000578:    3c0c        .<      SUBS     r4,r4,#0xc
        0x0000057a:    4798        .G      BLX      r3
        0x0000057c:    3410        .4      ADDS     r4,r4,#0x10
        0x0000057e:    42ac        .B      CMP      r4,r5
        0x00000580:    d3f7        ..      BCC      0x572 ; __scatterload + 18
        0x00000582:    f7fffda1    ....    BL       __main_after_scatterload ; 0xc8
    $d
        0x00000586:    0000        ..      DCW    0
        0x00000588:    00005804    .X..    DCD    22532
        0x0000058c:    00005824    $X..    DCD    22564
    $t
    .text
    __aeabi_llsl
    _ll_shift_l
        0x00000590:    b510        ..      PUSH     {r4,lr}
        0x00000592:    2a20         *      CMP      r2,#0x20
        0x00000594:    db04        ..      BLT      0x5a0 ; __aeabi_llsl + 16
        0x00000596:    4601        .F      MOV      r1,r0
        0x00000598:    3a20         :      SUBS     r2,r2,#0x20
        0x0000059a:    4091        .@      LSLS     r1,r1,r2
        0x0000059c:    2000        .       MOVS     r0,#0
        0x0000059e:    bd10        ..      POP      {r4,pc}
        0x000005a0:    4091        .@      LSLS     r1,r1,r2
        0x000005a2:    2320         #      MOVS     r3,#0x20
        0x000005a4:    1a9c        ..      SUBS     r4,r3,r2
        0x000005a6:    4603        .F      MOV      r3,r0
        0x000005a8:    40e3        .@      LSRS     r3,r3,r4
        0x000005aa:    4319        .C      ORRS     r1,r1,r3
        0x000005ac:    4090        .@      LSLS     r0,r0,r2
        0x000005ae:    bd10        ..      POP      {r4,pc}
    .text
    __aeabi_llsr
    _ll_ushift_r
        0x000005b0:    b510        ..      PUSH     {r4,lr}
        0x000005b2:    2a20         *      CMP      r2,#0x20
        0x000005b4:    db04        ..      BLT      0x5c0 ; __aeabi_llsr + 16
        0x000005b6:    4608        .F      MOV      r0,r1
        0x000005b8:    3a20         :      SUBS     r2,r2,#0x20
        0x000005ba:    40d0        .@      LSRS     r0,r0,r2
        0x000005bc:    2100        .!      MOVS     r1,#0
        0x000005be:    bd10        ..      POP      {r4,pc}
        0x000005c0:    460b        .F      MOV      r3,r1
        0x000005c2:    40d3        .@      LSRS     r3,r3,r2
        0x000005c4:    40d0        .@      LSRS     r0,r0,r2
        0x000005c6:    2420         $      MOVS     r4,#0x20
        0x000005c8:    1aa2        ..      SUBS     r2,r4,r2
        0x000005ca:    4091        .@      LSLS     r1,r1,r2
        0x000005cc:    4308        .C      ORRS     r0,r0,r1
        0x000005ce:    4619        .F      MOV      r1,r3
        0x000005d0:    bd10        ..      POP      {r4,pc}
    .text
    __aeabi_lasr
    _ll_sshift_r
        0x000005d2:    b510        ..      PUSH     {r4,lr}
        0x000005d4:    2a20         *      CMP      r2,#0x20
        0x000005d6:    db06        ..      BLT      0x5e6 ; __aeabi_lasr + 20
        0x000005d8:    17cb        ..      ASRS     r3,r1,#31
        0x000005da:    4608        .F      MOV      r0,r1
        0x000005dc:    3a20         :      SUBS     r2,r2,#0x20
        0x000005de:    4110        .A      ASRS     r0,r0,r2
        0x000005e0:    17c1        ..      ASRS     r1,r0,#31
        0x000005e2:    430b        .C      ORRS     r3,r3,r1
        0x000005e4:    e006        ..      B        0x5f4 ; __aeabi_lasr + 34
        0x000005e6:    460b        .F      MOV      r3,r1
        0x000005e8:    4113        .A      ASRS     r3,r3,r2
        0x000005ea:    40d0        .@      LSRS     r0,r0,r2
        0x000005ec:    2420         $      MOVS     r4,#0x20
        0x000005ee:    1aa2        ..      SUBS     r2,r4,r2
        0x000005f0:    4091        .@      LSLS     r1,r1,r2
        0x000005f2:    4308        .C      ORRS     r0,r0,r1
        0x000005f4:    4619        .F      MOV      r1,r3
        0x000005f6:    bd10        ..      POP      {r4,pc}
    .text
    _double_round
        0x000005f8:    b510        ..      PUSH     {r4,lr}
        0x000005fa:    2b00        .+      CMP      r3,#0
        0x000005fc:    da08        ..      BGE      0x610 ; _double_round + 24
        0x000005fe:    2400        .$      MOVS     r4,#0
        0x00000600:    1c40        @.      ADDS     r0,r0,#1
        0x00000602:    4161        aA      ADCS     r1,r1,r4
        0x00000604:    1892        ..      ADDS     r2,r2,r2
        0x00000606:    415b        [A      ADCS     r3,r3,r3
        0x00000608:    431a        .C      ORRS     r2,r2,r3
        0x0000060a:    d101        ..      BNE      0x610 ; _double_round + 24
        0x0000060c:    0840        @.      LSRS     r0,r0,#1
        0x0000060e:    0040        @.      LSLS     r0,r0,#1
        0x00000610:    bd10        ..      POP      {r4,pc}
    _double_epilogue
        0x00000612:    b5f0        ..      PUSH     {r4-r7,lr}
        0x00000614:    b41f        ..      PUSH     {r0-r4}
        0x00000616:    b082        ..      SUB      sp,sp,#8
        0x00000618:    4605        .F      MOV      r5,r0
        0x0000061a:    000c        ..      MOVS     r4,r1
        0x0000061c:    d003        ..      BEQ      0x626 ; _double_epilogue + 20
        0x0000061e:    4608        .F      MOV      r0,r1
        0x00000620:    f004fc52    ..R.    BL       __ARM_clz ; 0x4ec8
        0x00000624:    e002        ..      B        0x62c ; _double_epilogue + 26
        0x00000626:    f004fc4f    ..O.    BL       __ARM_clz ; 0x4ec8
        0x0000062a:    3020         0      ADDS     r0,r0,#0x20
        0x0000062c:    4602        .F      MOV      r2,r0
        0x0000062e:    9000        ..      STR      r0,[sp,#0]
        0x00000630:    4621        !F      MOV      r1,r4
        0x00000632:    4628        (F      MOV      r0,r5
        0x00000634:    f7ffffac    ....    BL       __aeabi_llsl ; 0x590
        0x00000638:    9b04        ..      LDR      r3,[sp,#0x10]
        0x0000063a:    9a05        ..      LDR      r2,[sp,#0x14]
        0x0000063c:    4604        .F      MOV      r4,r0
        0x0000063e:    460f        .F      MOV      r7,r1
        0x00000640:    4318        .C      ORRS     r0,r0,r3
        0x00000642:    4311        .C      ORRS     r1,r1,r2
        0x00000644:    4308        .C      ORRS     r0,r0,r1
        0x00000646:    d014        ..      BEQ      0x672 ; _double_epilogue + 96
        0x00000648:    4618        .F      MOV      r0,r3
        0x0000064a:    4310        .C      ORRS     r0,r0,r2
        0x0000064c:    d01b        ..      BEQ      0x686 ; _double_epilogue + 116
        0x0000064e:    9800        ..      LDR      r0,[sp,#0]
        0x00000650:    2140        @!      MOVS     r1,#0x40
        0x00000652:    1a0a        ..      SUBS     r2,r1,r0
        0x00000654:    4618        .F      MOV      r0,r3
        0x00000656:    9905        ..      LDR      r1,[sp,#0x14]
        0x00000658:    f7ffffaa    ....    BL       __aeabi_llsr ; 0x5b0
        0x0000065c:    4605        .F      MOV      r5,r0
        0x0000065e:    460e        .F      MOV      r6,r1
        0x00000660:    9a00        ..      LDR      r2,[sp,#0]
        0x00000662:    9905        ..      LDR      r1,[sp,#0x14]
        0x00000664:    9804        ..      LDR      r0,[sp,#0x10]
        0x00000666:    f7ffff93    ....    BL       __aeabi_llsl ; 0x590
        0x0000066a:    4308        .C      ORRS     r0,r0,r1
        0x0000066c:    d005        ..      BEQ      0x67a ; _double_epilogue + 104
        0x0000066e:    2001        .       MOVS     r0,#1
        0x00000670:    e004        ..      B        0x67c ; _double_epilogue + 106
        0x00000672:    4620         F      MOV      r0,r4
        0x00000674:    4639        9F      MOV      r1,r7
        0x00000676:    b007        ..      ADD      sp,sp,#0x1c
        0x00000678:    bdf0        ..      POP      {r4-r7,pc}
        0x0000067a:    2000        .       MOVS     r0,#0
        0x0000067c:    17c1        ..      ASRS     r1,r0,#31
        0x0000067e:    4305        .C      ORRS     r5,r5,r0
        0x00000680:    430e        .C      ORRS     r6,r6,r1
        0x00000682:    432c        ,C      ORRS     r4,r4,r5
        0x00000684:    4337        7C      ORRS     r7,r7,r6
        0x00000686:    9900        ..      LDR      r1,[sp,#0]
        0x00000688:    980e        ..      LDR      r0,[sp,#0x38]
        0x0000068a:    0563        c.      LSLS     r3,r4,#21
        0x0000068c:    1a40        @.      SUBS     r0,r0,r1
        0x0000068e:    0579        y.      LSLS     r1,r7,#21
        0x00000690:    0ae4        ..      LSRS     r4,r4,#11
        0x00000692:    2200        ."      MOVS     r2,#0
        0x00000694:    430c        .C      ORRS     r4,r4,r1
        0x00000696:    0afd        ..      LSRS     r5,r7,#11
        0x00000698:    300a        .0      ADDS     r0,r0,#0xa
        0x0000069a:    d502        ..      BPL      0x6a2 ; _double_epilogue + 144
        0x0000069c:    2000        .       MOVS     r0,#0
        0x0000069e:    4601        .F      MOV      r1,r0
        0x000006a0:    e7e9        ..      B        0x676 ; _double_epilogue + 100
        0x000006a2:    0501        ..      LSLS     r1,r0,#20
        0x000006a4:    1910        ..      ADDS     r0,r2,r4
        0x000006a6:    4169        iA      ADCS     r1,r1,r5
        0x000006a8:    9c0c        ..      LDR      r4,[sp,#0x30]
        0x000006aa:    9d0d        ..      LDR      r5,[sp,#0x34]
        0x000006ac:    1900        ..      ADDS     r0,r0,r4
        0x000006ae:    4169        iA      ADCS     r1,r1,r5
        0x000006b0:    f7ffffa2    ....    BL       _double_round ; 0x5f8
        0x000006b4:    e7df        ..      B        0x676 ; _double_epilogue + 100
    AO2022_Center_1261_init
        0x000006b6:    b580        ..      PUSH     {r7,lr}
        0x000006b8:    f000f816    ....    BL       AO2022_Center_1261_init_ice ; 0x6e8
        0x000006bc:    f000f820    .. .    BL       AO2022_Center_1261_init_pa ; 0x700
        0x000006c0:    f000f828    ..(.    BL       AO2022_Center_1261_init_pb ; 0x714
        0x000006c4:    f000f830    ..0.    BL       AO2022_Center_1261_init_pc ; 0x728
        0x000006c8:    f000f838    ..8.    BL       AO2022_Center_1261_init_pd ; 0x73c
        0x000006cc:    f000f840    ..@.    BL       AO2022_Center_1261_init_pe ; 0x750
        0x000006d0:    f000f848    ..H.    BL       AO2022_Center_1261_init_pf ; 0x764
        0x000006d4:    f000f850    ..P.    BL       AO2022_Center_1261_init_uart0 ; 0x778
        0x000006d8:    f000f85a    ..Z.    BL       AO2022_Center_1261_init_uart1 ; 0x790
        0x000006dc:    f000f868    ..h.    BL       AO2022_Center_1261_init_uart2 ; 0x7b0
        0x000006e0:    f000f876    ..v.    BL       AO2022_Center_1261_init_x32 ; 0x7d0
        0x000006e4:    bd80        ..      POP      {r7,pc}
        0x000006e6:    0000        ..      MOVS     r0,r0
    AO2022_Center_1261_init_ice
        0x000006e8:    491d        .I      LDR      r1,[pc,#116] ; [0x760] = 0x50000050
        0x000006ea:    6808        .h      LDR      r0,[r1,#0]
        0x000006ec:    22ff        ."      MOVS     r2,#0xff
        0x000006ee:    0612        ..      LSLS     r2,r2,#24
        0x000006f0:    4390        .C      BICS     r0,r0,r2
        0x000006f2:    6008        .`      STR      r0,[r1,#0]
        0x000006f4:    6808        .h      LDR      r0,[r1,#0]
        0x000006f6:    2211        ."      MOVS     r2,#0x11
        0x000006f8:    0612        ..      LSLS     r2,r2,#24
        0x000006fa:    4310        .C      ORRS     r0,r0,r2
        0x000006fc:    6008        .`      STR      r0,[r1,#0]
        0x000006fe:    4770        pG      BX       lr
    AO2022_Center_1261_init_pa
        0x00000700:    4903        .I      LDR      r1,[pc,#12] ; [0x710] = 0x50000030
        0x00000702:    6808        .h      LDR      r0,[r1,#0]
        0x00000704:    4a30        0J      LDR      r2,[pc,#192] ; [0x7c8] = 0xffff0000
        0x00000706:    4010        .@      ANDS     r0,r0,r2
        0x00000708:    6008        .`      STR      r0,[r1,#0]
        0x0000070a:    6808        .h      LDR      r0,[r1,#0]
        0x0000070c:    6008        .`      STR      r0,[r1,#0]
        0x0000070e:    4770        pG      BX       lr
    $d
    __arm_cp.4_0
        0x00000710:    50000030    0..P    DCD    1342177328
    $t
    AO2022_Center_1261_init_pb
        0x00000714:    4903        .I      LDR      r1,[pc,#12] ; [0x724] = 0x50000038
        0x00000716:    6808        .h      LDR      r0,[r1,#0]
        0x00000718:    2000        .       MOVS     r0,#0
        0x0000071a:    6008        .`      STR      r0,[r1,#0]
        0x0000071c:    6808        .h      LDR      r0,[r1,#0]
        0x0000071e:    6008        .`      STR      r0,[r1,#0]
        0x00000720:    4770        pG      BX       lr
        0x00000722:    46c0        .F      MOV      r8,r8
    $d
    __arm_cp.6_0
        0x00000724:    50000038    8..P    DCD    1342177336
    $t
    AO2022_Center_1261_init_pc
        0x00000728:    4926        &I      LDR      r1,[pc,#152] ; [0x7c4] = 0x50000040
        0x0000072a:    6808        .h      LDR      r0,[r1,#0]
        0x0000072c:    220f        ."      MOVS     r2,#0xf
        0x0000072e:    0412        ..      LSLS     r2,r2,#16
        0x00000730:    4390        .C      BICS     r0,r0,r2
        0x00000732:    6008        .`      STR      r0,[r1,#0]
        0x00000734:    6808        .h      LDR      r0,[r1,#0]
        0x00000736:    6008        .`      STR      r0,[r1,#0]
        0x00000738:    4770        pG      BX       lr
        0x0000073a:    46c0        .F      MOV      r8,r8
    AO2022_Center_1261_init_pd
        0x0000073c:    4913        .I      LDR      r1,[pc,#76] ; [0x78c] = 0x50000048
        0x0000073e:    6808        .h      LDR      r0,[r1,#0]
        0x00000740:    4a02        .J      LDR      r2,[pc,#8] ; [0x74c] = 0xfff00ff
        0x00000742:    4010        .@      ANDS     r0,r0,r2
        0x00000744:    6008        .`      STR      r0,[r1,#0]
        0x00000746:    6808        .h      LDR      r0,[r1,#0]
        0x00000748:    6008        .`      STR      r0,[r1,#0]
        0x0000074a:    4770        pG      BX       lr
    $d
    __arm_cp.10_1
        0x0000074c:    0fff00ff    ....    DCD    268370175
    $t
    AO2022_Center_1261_init_pe
        0x00000750:    4903        .I      LDR      r1,[pc,#12] ; [0x760] = 0x50000050
        0x00000752:    6808        .h      LDR      r0,[r1,#0]
        0x00000754:    220f        ."      MOVS     r2,#0xf
        0x00000756:    4390        .C      BICS     r0,r0,r2
        0x00000758:    6008        .`      STR      r0,[r1,#0]
        0x0000075a:    6808        .h      LDR      r0,[r1,#0]
        0x0000075c:    6008        .`      STR      r0,[r1,#0]
        0x0000075e:    4770        pG      BX       lr
    $d
    __arm_cp.12_0
        0x00000760:    50000050    P..P    DCD    1342177360
    $t
    AO2022_Center_1261_init_pf
        0x00000764:    491f        .I      LDR      r1,[pc,#124] ; [0x7e4] = 0x50000058
        0x00000766:    6808        .h      LDR      r0,[r1,#0]
        0x00000768:    4a02        .J      LDR      r2,[pc,#8] ; [0x774] = 0xff000ff
        0x0000076a:    4010        .@      ANDS     r0,r0,r2
        0x0000076c:    6008        .`      STR      r0,[r1,#0]
        0x0000076e:    6808        .h      LDR      r0,[r1,#0]
        0x00000770:    6008        .`      STR      r0,[r1,#0]
        0x00000772:    4770        pG      BX       lr
    $d
    __arm_cp.14_1
        0x00000774:    0ff000ff    ....    DCD    267387135
    $t
    AO2022_Center_1261_init_uart0
        0x00000778:    4904        .I      LDR      r1,[pc,#16] ; [0x78c] = 0x50000048
        0x0000077a:    6808        .h      LDR      r0,[r1,#0]
        0x0000077c:    22ff        ."      MOVS     r2,#0xff
        0x0000077e:    4390        .C      BICS     r0,r0,r2
        0x00000780:    6008        .`      STR      r0,[r1,#0]
        0x00000782:    6808        .h      LDR      r0,[r1,#0]
        0x00000784:    2233        3"      MOVS     r2,#0x33
        0x00000786:    4310        .C      ORRS     r0,r0,r2
        0x00000788:    6008        .`      STR      r0,[r1,#0]
        0x0000078a:    4770        pG      BX       lr
    $d
    __arm_cp.16_0
        0x0000078c:    50000048    H..P    DCD    1342177352
    $t
    AO2022_Center_1261_init_uart1
        0x00000790:    4904        .I      LDR      r1,[pc,#16] ; [0x7a4] = 0x50000054
        0x00000792:    6808        .h      LDR      r0,[r1,#0]
        0x00000794:    4a04        .J      LDR      r2,[pc,#16] ; [0x7a8] = 0xff0000ff
        0x00000796:    4010        .@      ANDS     r0,r0,r2
        0x00000798:    6008        .`      STR      r0,[r1,#0]
        0x0000079a:    6808        .h      LDR      r0,[r1,#0]
        0x0000079c:    4a03        .J      LDR      r2,[pc,#12] ; [0x7ac] = 0x333300
        0x0000079e:    4310        .C      ORRS     r0,r0,r2
        0x000007a0:    6008        .`      STR      r0,[r1,#0]
        0x000007a2:    4770        pG      BX       lr
    $d
    __arm_cp.18_0
        0x000007a4:    50000054    T..P    DCD    1342177364
    __arm_cp.18_1
        0x000007a8:    ff0000ff    ....    DCD    4278190335
    __arm_cp.18_2
        0x000007ac:    00333300    .33.    DCD    3355392
    $t
    AO2022_Center_1261_init_uart2
        0x000007b0:    4904        .I      LDR      r1,[pc,#16] ; [0x7c4] = 0x50000040
        0x000007b2:    6808        .h      LDR      r0,[r1,#0]
        0x000007b4:    4a04        .J      LDR      r2,[pc,#16] ; [0x7c8] = 0xffff0000
        0x000007b6:    4010        .@      ANDS     r0,r0,r2
        0x000007b8:    6008        .`      STR      r0,[r1,#0]
        0x000007ba:    6808        .h      LDR      r0,[r1,#0]
        0x000007bc:    4a03        .J      LDR      r2,[pc,#12] ; [0x7cc] = 0x3333
        0x000007be:    4310        .C      ORRS     r0,r0,r2
        0x000007c0:    6008        .`      STR      r0,[r1,#0]
        0x000007c2:    4770        pG      BX       lr
    $d
    __arm_cp.20_0
        0x000007c4:    50000040    @..P    DCD    1342177344
    __arm_cp.20_1
        0x000007c8:    ffff0000    ....    DCD    4294901760
    __arm_cp.20_2
        0x000007cc:    00003333    33..    DCD    13107
    $t
    AO2022_Center_1261_init_x32
        0x000007d0:    4904        .I      LDR      r1,[pc,#16] ; [0x7e4] = 0x50000058
        0x000007d2:    6808        .h      LDR      r0,[r1,#0]
        0x000007d4:    22ff        ."      MOVS     r2,#0xff
        0x000007d6:    4390        .C      BICS     r0,r0,r2
        0x000007d8:    6008        .`      STR      r0,[r1,#0]
        0x000007da:    6808        .h      LDR      r0,[r1,#0]
        0x000007dc:    2211        ."      MOVS     r2,#0x11
        0x000007de:    4310        .C      ORRS     r0,r0,r2
        0x000007e0:    6008        .`      STR      r0,[r1,#0]
        0x000007e2:    4770        pG      BX       lr
    $d
    __arm_cp.22_0
        0x000007e4:    50000058    X..P    DCD    1342177368
    $t
    CLK_EnableModuleClock
        0x000007e8:    b084        ..      SUB      sp,sp,#0x10
        0x000007ea:    9003        ..      STR      r0,[sp,#0xc]
        0x000007ec:    202c        ,       MOVS     r0,#0x2c
        0x000007ee:    9002        ..      STR      r0,[sp,#8]
        0x000007f0:    2004        .       MOVS     r0,#4
        0x000007f2:    9001        ..      STR      r0,[sp,#4]
        0x000007f4:    2000        .       MOVS     r0,#0
        0x000007f6:    9000        ..      STR      r0,[sp,#0]
        0x000007f8:    9803        ..      LDR      r0,[sp,#0xc]
        0x000007fa:    221f        ."      MOVS     r2,#0x1f
        0x000007fc:    4601        .F      MOV      r1,r0
        0x000007fe:    4011        .@      ANDS     r1,r1,r2
        0x00000800:    2301        .#      MOVS     r3,#1
        0x00000802:    408b        .@      LSLS     r3,r3,r1
        0x00000804:    0f80        ..      LSRS     r0,r0,#30
        0x00000806:    0081        ..      LSLS     r1,r0,#2
        0x00000808:    4668        hF      MOV      r0,sp
        0x0000080a:    5841        AX      LDR      r1,[r0,r1]
        0x0000080c:    4a02        .J      LDR      r2,[pc,#8] ; [0x818] = 0x50000204
        0x0000080e:    5888        .X      LDR      r0,[r1,r2]
        0x00000810:    4318        .C      ORRS     r0,r0,r3
        0x00000812:    5088        .P      STR      r0,[r1,r2]
        0x00000814:    b004        ..      ADD      sp,sp,#0x10
        0x00000816:    4770        pG      BX       lr
    $d
    __arm_cp.18_0
        0x00000818:    50000204    ...P    DCD    1342177796
    $t
    CLK_EnablePLL
        0x0000081c:    b580        ..      PUSH     {r7,lr}
        0x0000081e:    b090        ..      SUB      sp,sp,#0x40
        0x00000820:    900e        ..      STR      r0,[sp,#0x38]
        0x00000822:    910d        ..      STR      r1,[sp,#0x34]
        0x00000824:    49d2        .I      LDR      r1,[pc,#840] ; [0xb70] = 0x50000220
        0x00000826:    6808        .h      LDR      r0,[r1,#0]
        0x00000828:    2201        ."      MOVS     r2,#1
        0x0000082a:    0412        ..      LSLS     r2,r2,#16
        0x0000082c:    4310        .C      ORRS     r0,r0,r2
        0x0000082e:    6008        .`      STR      r0,[r1,#0]
        0x00000830:    980e        ..      LDR      r0,[sp,#0x38]
        0x00000832:    2800        .(      CMP      r0,#0
        0x00000834:    d10e        ..      BNE      0x854 ; CLK_EnablePLL + 56
        0x00000836:    e7ff        ..      B        0x838 ; CLK_EnablePLL + 28
        0x00000838:    4a80        .J      LDR      r2,[pc,#512] ; [0xa3c] = 0x50000200
        0x0000083a:    6811        .h      LDR      r1,[r2,#0]
        0x0000083c:    2001        .       MOVS     r0,#1
        0x0000083e:    4301        .C      ORRS     r1,r1,r0
        0x00000840:    6011        .`      STR      r1,[r2,#0]
        0x00000842:    f000fadb    ....    BL       CLK_WaitClockReady ; 0xdfc
        0x00000846:    2000        .       MOVS     r0,#0
        0x00000848:    9008        ..      STR      r0,[sp,#0x20]
        0x0000084a:    48f2        .H      LDR      r0,[pc,#968] ; [0xc14] = 0xb71b00
        0x0000084c:    900c        ..      STR      r0,[sp,#0x30]
        0x0000084e:    2002        .       MOVS     r0,#2
        0x00000850:    900b        ..      STR      r0,[sp,#0x2c]
        0x00000852:    e010        ..      B        0x876 ; CLK_EnablePLL + 90
        0x00000854:    4979        yI      LDR      r1,[pc,#484] ; [0xa3c] = 0x50000200
        0x00000856:    6808        .h      LDR      r0,[r1,#0]
        0x00000858:    2204        ."      MOVS     r2,#4
        0x0000085a:    9201        ..      STR      r2,[sp,#4]
        0x0000085c:    4310        .C      ORRS     r0,r0,r2
        0x0000085e:    6008        .`      STR      r0,[r1,#0]
        0x00000860:    2010        .       MOVS     r0,#0x10
        0x00000862:    f000facb    ....    BL       CLK_WaitClockReady ; 0xdfc
        0x00000866:    9801        ..      LDR      r0,[sp,#4]
        0x00000868:    2101        .!      MOVS     r1,#1
        0x0000086a:    04c9        ..      LSLS     r1,r1,#19
        0x0000086c:    9108        ..      STR      r1,[sp,#0x20]
        0x0000086e:    49ea        .I      LDR      r1,[pc,#936] ; [0xc18] = 0x1518000
        0x00000870:    910c        ..      STR      r1,[sp,#0x30]
        0x00000872:    900b        ..      STR      r0,[sp,#0x2c]
        0x00000874:    e7ff        ..      B        0x876 ; CLK_EnablePLL + 90
        0x00000876:    980d        ..      LDR      r0,[sp,#0x34]
        0x00000878:    495f        _I      LDR      r1,[pc,#380] ; [0x9f8] = 0xbebc200
        0x0000087a:    4288        .B      CMP      r0,r1
        0x0000087c:    d808        ..      BHI      0x890 ; CLK_EnablePLL + 116
        0x0000087e:    e7ff        ..      B        0x880 ; CLK_EnablePLL + 100
        0x00000880:    980d        ..      LDR      r0,[sp,#0x34]
        0x00000882:    495e        ^I      LDR      r1,[pc,#376] ; [0x9fc] = 0x5f5e101
        0x00000884:    4288        .B      CMP      r0,r1
        0x00000886:    d303        ..      BCC      0x890 ; CLK_EnablePLL + 116
        0x00000888:    e7ff        ..      B        0x88a ; CLK_EnablePLL + 110
        0x0000088a:    2000        .       MOVS     r0,#0
        0x0000088c:    9009        ..      STR      r0,[sp,#0x24]
        0x0000088e:    e022        ".      B        0x8d6 ; CLK_EnablePLL + 186
        0x00000890:    980d        ..      LDR      r0,[sp,#0x34]
        0x00000892:    495b        [I      LDR      r1,[pc,#364] ; [0xa00] = 0x5f5e100
        0x00000894:    4288        .B      CMP      r0,r1
        0x00000896:    d80b        ..      BHI      0x8b0 ; CLK_EnablePLL + 148
        0x00000898:    e7ff        ..      B        0x89a ; CLK_EnablePLL + 126
        0x0000089a:    980d        ..      LDR      r0,[sp,#0x34]
        0x0000089c:    4959        YI      LDR      r1,[pc,#356] ; [0xa04] = 0x2faf081
        0x0000089e:    4288        .B      CMP      r0,r1
        0x000008a0:    d306        ..      BCC      0x8b0 ; CLK_EnablePLL + 148
        0x000008a2:    e7ff        ..      B        0x8a4 ; CLK_EnablePLL + 136
        0x000008a4:    2001        .       MOVS     r0,#1
        0x000008a6:    9009        ..      STR      r0,[sp,#0x24]
        0x000008a8:    980d        ..      LDR      r0,[sp,#0x34]
        0x000008aa:    0040        @.      LSLS     r0,r0,#1
        0x000008ac:    900d        ..      STR      r0,[sp,#0x34]
        0x000008ae:    e011        ..      B        0x8d4 ; CLK_EnablePLL + 184
        0x000008b0:    980d        ..      LDR      r0,[sp,#0x34]
        0x000008b2:    4955        UI      LDR      r1,[pc,#340] ; [0xa08] = 0x2faf080
        0x000008b4:    4288        .B      CMP      r0,r1
        0x000008b6:    d80b        ..      BHI      0x8d0 ; CLK_EnablePLL + 180
        0x000008b8:    e7ff        ..      B        0x8ba ; CLK_EnablePLL + 158
        0x000008ba:    980d        ..      LDR      r0,[sp,#0x34]
        0x000008bc:    4953        SI      LDR      r1,[pc,#332] ; [0xa0c] = 0x17d7840
        0x000008be:    4288        .B      CMP      r0,r1
        0x000008c0:    d306        ..      BCC      0x8d0 ; CLK_EnablePLL + 180
        0x000008c2:    e7ff        ..      B        0x8c4 ; CLK_EnablePLL + 168
        0x000008c4:    2003        .       MOVS     r0,#3
        0x000008c6:    9009        ..      STR      r0,[sp,#0x24]
        0x000008c8:    980d        ..      LDR      r0,[sp,#0x34]
        0x000008ca:    0080        ..      LSLS     r0,r0,#2
        0x000008cc:    900d        ..      STR      r0,[sp,#0x34]
        0x000008ce:    e000        ..      B        0x8d2 ; CLK_EnablePLL + 182
        0x000008d0:    e07b        {.      B        0x9ca ; CLK_EnablePLL + 430
        0x000008d2:    e7ff        ..      B        0x8d4 ; CLK_EnablePLL + 184
        0x000008d4:    e7ff        ..      B        0x8d6 ; CLK_EnablePLL + 186
        0x000008d6:    2000        .       MOVS     r0,#0
        0x000008d8:    43c1        .C      MVNS     r1,r0
        0x000008da:    9104        ..      STR      r1,[sp,#0x10]
        0x000008dc:    9002        ..      STR      r0,[sp,#8]
        0x000008de:    9003        ..      STR      r0,[sp,#0xc]
        0x000008e0:    e7ff        ..      B        0x8e2 ; CLK_EnablePLL + 198
        0x000008e2:    980b        ..      LDR      r0,[sp,#0x2c]
        0x000008e4:    2821        !(      CMP      r0,#0x21
        0x000008e6:    d853        S.      BHI      0x990 ; CLK_EnablePLL + 372
        0x000008e8:    e7ff        ..      B        0x8ea ; CLK_EnablePLL + 206
        0x000008ea:    980c        ..      LDR      r0,[sp,#0x30]
        0x000008ec:    990b        ..      LDR      r1,[sp,#0x2c]
        0x000008ee:    f7fffc21    ..!.    BL       __aeabi_uidiv ; 0x134
        0x000008f2:    9007        ..      STR      r0,[sp,#0x1c]
        0x000008f4:    9807        ..      LDR      r0,[sp,#0x1c]
        0x000008f6:    4949        II      LDR      r1,[pc,#292] ; [0xa1c] = 0x186a01
        0x000008f8:    4288        .B      CMP      r0,r1
        0x000008fa:    d344        D.      BCC      0x986 ; CLK_EnablePLL + 362
        0x000008fc:    e7ff        ..      B        0x8fe ; CLK_EnablePLL + 226
        0x000008fe:    9807        ..      LDR      r0,[sp,#0x1c]
        0x00000900:    4947        GI      LDR      r1,[pc,#284] ; [0xa20] = 0xf423ff
        0x00000902:    4288        .B      CMP      r0,r1
        0x00000904:    d83f        ?.      BHI      0x986 ; CLK_EnablePLL + 362
        0x00000906:    e7ff        ..      B        0x908 ; CLK_EnablePLL + 236
        0x00000908:    2002        .       MOVS     r0,#2
        0x0000090a:    900a        ..      STR      r0,[sp,#0x28]
        0x0000090c:    e7ff        ..      B        0x90e ; CLK_EnablePLL + 242
        0x0000090e:    980a        ..      LDR      r0,[sp,#0x28]
        0x00000910:    4944        DI      LDR      r1,[pc,#272] ; [0xa24] = 0x201
        0x00000912:    4288        .B      CMP      r0,r1
        0x00000914:    d836        6.      BHI      0x984 ; CLK_EnablePLL + 360
        0x00000916:    e7ff        ..      B        0x918 ; CLK_EnablePLL + 252
        0x00000918:    9907        ..      LDR      r1,[sp,#0x1c]
        0x0000091a:    980a        ..      LDR      r0,[sp,#0x28]
        0x0000091c:    4348        HC      MULS     r0,r1,r0
        0x0000091e:    9006        ..      STR      r0,[sp,#0x18]
        0x00000920:    9806        ..      LDR      r0,[sp,#0x18]
        0x00000922:    4937        7I      LDR      r1,[pc,#220] ; [0xa00] = 0x5f5e100
        0x00000924:    4288        .B      CMP      r0,r1
        0x00000926:    d328        (.      BCC      0x97a ; CLK_EnablePLL + 350
        0x00000928:    e7ff        ..      B        0x92a ; CLK_EnablePLL + 270
        0x0000092a:    9806        ..      LDR      r0,[sp,#0x18]
        0x0000092c:    4932        2I      LDR      r1,[pc,#200] ; [0x9f8] = 0xbebc200
        0x0000092e:    4288        .B      CMP      r0,r1
        0x00000930:    d823        #.      BHI      0x97a ; CLK_EnablePLL + 350
        0x00000932:    e7ff        ..      B        0x934 ; CLK_EnablePLL + 280
        0x00000934:    9806        ..      LDR      r0,[sp,#0x18]
        0x00000936:    990d        ..      LDR      r1,[sp,#0x34]
        0x00000938:    4288        .B      CMP      r0,r1
        0x0000093a:    d905        ..      BLS      0x948 ; CLK_EnablePLL + 300
        0x0000093c:    e7ff        ..      B        0x93e ; CLK_EnablePLL + 290
        0x0000093e:    9806        ..      LDR      r0,[sp,#0x18]
        0x00000940:    990d        ..      LDR      r1,[sp,#0x34]
        0x00000942:    1a40        @.      SUBS     r0,r0,r1
        0x00000944:    9000        ..      STR      r0,[sp,#0]
        0x00000946:    e004        ..      B        0x952 ; CLK_EnablePLL + 310
        0x00000948:    980d        ..      LDR      r0,[sp,#0x34]
        0x0000094a:    9906        ..      LDR      r1,[sp,#0x18]
        0x0000094c:    1a40        @.      SUBS     r0,r0,r1
        0x0000094e:    9000        ..      STR      r0,[sp,#0]
        0x00000950:    e7ff        ..      B        0x952 ; CLK_EnablePLL + 310
        0x00000952:    9800        ..      LDR      r0,[sp,#0]
        0x00000954:    9005        ..      STR      r0,[sp,#0x14]
        0x00000956:    9805        ..      LDR      r0,[sp,#0x14]
        0x00000958:    9904        ..      LDR      r1,[sp,#0x10]
        0x0000095a:    4288        .B      CMP      r0,r1
        0x0000095c:    d20c        ..      BCS      0x978 ; CLK_EnablePLL + 348
        0x0000095e:    e7ff        ..      B        0x960 ; CLK_EnablePLL + 324
        0x00000960:    9805        ..      LDR      r0,[sp,#0x14]
        0x00000962:    9004        ..      STR      r0,[sp,#0x10]
        0x00000964:    980b        ..      LDR      r0,[sp,#0x2c]
        0x00000966:    9002        ..      STR      r0,[sp,#8]
        0x00000968:    980a        ..      LDR      r0,[sp,#0x28]
        0x0000096a:    9003        ..      STR      r0,[sp,#0xc]
        0x0000096c:    9804        ..      LDR      r0,[sp,#0x10]
        0x0000096e:    2800        .(      CMP      r0,#0
        0x00000970:    d101        ..      BNE      0x976 ; CLK_EnablePLL + 346
        0x00000972:    e7ff        ..      B        0x974 ; CLK_EnablePLL + 344
        0x00000974:    e006        ..      B        0x984 ; CLK_EnablePLL + 360
        0x00000976:    e7ff        ..      B        0x978 ; CLK_EnablePLL + 348
        0x00000978:    e7ff        ..      B        0x97a ; CLK_EnablePLL + 350
        0x0000097a:    e7ff        ..      B        0x97c ; CLK_EnablePLL + 352
        0x0000097c:    980a        ..      LDR      r0,[sp,#0x28]
        0x0000097e:    1c40        @.      ADDS     r0,r0,#1
        0x00000980:    900a        ..      STR      r0,[sp,#0x28]
        0x00000982:    e7c4        ..      B        0x90e ; CLK_EnablePLL + 242
        0x00000984:    e7ff        ..      B        0x986 ; CLK_EnablePLL + 362
        0x00000986:    e7ff        ..      B        0x988 ; CLK_EnablePLL + 364
        0x00000988:    980b        ..      LDR      r0,[sp,#0x2c]
        0x0000098a:    1c40        @.      ADDS     r0,r0,#1
        0x0000098c:    900b        ..      STR      r0,[sp,#0x2c]
        0x0000098e:    e7a8        ..      B        0x8e2 ; CLK_EnablePLL + 198
        0x00000990:    9808        ..      LDR      r0,[sp,#0x20]
        0x00000992:    9909        ..      LDR      r1,[sp,#0x24]
        0x00000994:    0389        ..      LSLS     r1,r1,#14
        0x00000996:    4308        .C      ORRS     r0,r0,r1
        0x00000998:    9902        ..      LDR      r1,[sp,#8]
        0x0000099a:    0249        I.      LSLS     r1,r1,#9
        0x0000099c:    4a1e        .J      LDR      r2,[pc,#120] ; [0xa18] = 0xfffffc00
        0x0000099e:    1889        ..      ADDS     r1,r1,r2
        0x000009a0:    4308        .C      ORRS     r0,r0,r1
        0x000009a2:    9903        ..      LDR      r1,[sp,#0xc]
        0x000009a4:    1e89        ..      SUBS     r1,r1,#2
        0x000009a6:    4308        .C      ORRS     r0,r0,r1
        0x000009a8:    4999        .I      LDR      r1,[pc,#612] ; [0xc10] = 0x50000220
        0x000009aa:    6008        .`      STR      r0,[r1,#0]
        0x000009ac:    2004        .       MOVS     r0,#4
        0x000009ae:    f000fa25    ..%.    BL       CLK_WaitClockReady ; 0xdfc
        0x000009b2:    980c        ..      LDR      r0,[sp,#0x30]
        0x000009b4:    9909        ..      LDR      r1,[sp,#0x24]
        0x000009b6:    1c4a        J.      ADDS     r2,r1,#1
        0x000009b8:    9902        ..      LDR      r1,[sp,#8]
        0x000009ba:    4351        QC      MULS     r1,r2,r1
        0x000009bc:    f7fffbba    ....    BL       __aeabi_uidiv ; 0x134
        0x000009c0:    4601        .F      MOV      r1,r0
        0x000009c2:    9803        ..      LDR      r0,[sp,#0xc]
        0x000009c4:    4348        HC      MULS     r0,r1,r0
        0x000009c6:    900f        ..      STR      r0,[sp,#0x3c]
        0x000009c8:    e012        ..      B        0x9f0 ; CLK_EnablePLL + 468
        0x000009ca:    980e        ..      LDR      r0,[sp,#0x38]
        0x000009cc:    2800        .(      CMP      r0,#0
        0x000009ce:    d104        ..      BNE      0x9da ; CLK_EnablePLL + 446
        0x000009d0:    e7ff        ..      B        0x9d2 ; CLK_EnablePLL + 438
        0x000009d2:    498f        .I      LDR      r1,[pc,#572] ; [0xc10] = 0x50000220
        0x000009d4:    480f        .H      LDR      r0,[pc,#60] ; [0xa14] = 0x442e
        0x000009d6:    6008        .`      STR      r0,[r1,#0]
        0x000009d8:    e003        ..      B        0x9e2 ; CLK_EnablePLL + 454
        0x000009da:    498d        .I      LDR      r1,[pc,#564] ; [0xc10] = 0x50000220
        0x000009dc:    480c        .H      LDR      r0,[pc,#48] ; [0xa10] = 0x84c32
        0x000009de:    6008        .`      STR      r0,[r1,#0]
        0x000009e0:    e7ff        ..      B        0x9e2 ; CLK_EnablePLL + 454
        0x000009e2:    2004        .       MOVS     r0,#4
        0x000009e4:    f000fa0a    ....    BL       CLK_WaitClockReady ; 0xdfc
        0x000009e8:    f000f8c4    ....    BL       CLK_GetPLLClockFreq ; 0xb74
        0x000009ec:    900f        ..      STR      r0,[sp,#0x3c]
        0x000009ee:    e7ff        ..      B        0x9f0 ; CLK_EnablePLL + 468
        0x000009f0:    980f        ..      LDR      r0,[sp,#0x3c]
        0x000009f2:    b010        ..      ADD      sp,sp,#0x40
        0x000009f4:    bd80        ..      POP      {r7,pc}
        0x000009f6:    46c0        .F      MOV      r8,r8
    $d
    __arm_cp.12_4
        0x000009f8:    0bebc200    ....    DCD    200000000
    __arm_cp.12_5
        0x000009fc:    05f5e101    ....    DCD    100000001
    __arm_cp.12_6
        0x00000a00:    05f5e100    ....    DCD    100000000
    __arm_cp.12_7
        0x00000a04:    02faf081    ....    DCD    50000001
    __arm_cp.12_8
        0x00000a08:    02faf080    ....    DCD    50000000
    __arm_cp.12_9
        0x00000a0c:    017d7840    @x}.    DCD    25000000
    __arm_cp.12_10
        0x00000a10:    00084c32    2L..    DCD    543794
    __arm_cp.12_11
        0x00000a14:    0000442e    .D..    DCD    17454
    __arm_cp.12_12
        0x00000a18:    fffffc00    ....    DCD    4294966272
    __arm_cp.12_13
        0x00000a1c:    00186a01    .j..    DCD    1600001
    __arm_cp.12_14
        0x00000a20:    00f423ff    .#..    DCD    15999999
    __arm_cp.12_15
        0x00000a24:    00000201    ....    DCD    513
    $t
    CLK_EnableXtalRC
        0x00000a28:    b081        ..      SUB      sp,sp,#4
        0x00000a2a:    9000        ..      STR      r0,[sp,#0]
        0x00000a2c:    9a00        ..      LDR      r2,[sp,#0]
        0x00000a2e:    49c3        .I      LDR      r1,[pc,#780] ; [0xd3c] = 0x50000200
        0x00000a30:    6808        .h      LDR      r0,[r1,#0]
        0x00000a32:    4310        .C      ORRS     r0,r0,r2
        0x00000a34:    6008        .`      STR      r0,[r1,#0]
        0x00000a36:    b001        ..      ADD      sp,sp,#4
        0x00000a38:    4770        pG      BX       lr
        0x00000a3a:    46c0        .F      MOV      r8,r8
    $d
    __arm_cp.16_0
        0x00000a3c:    50000200    ...P    DCD    1342177792
    $t
    CLK_GetPLLClockFreq
        0x00000a40:    b580        ..      PUSH     {r7,lr}
        0x00000a42:    b088        ..      SUB      sp,sp,#0x20
        0x00000a44:    2000        .       MOVS     r0,#0
        0x00000a46:    9006        ..      STR      r0,[sp,#0x18]
        0x00000a48:    4870        pH      LDR      r0,[pc,#448] ; [0xc0c] = 0x4020201
        0x00000a4a:    9000        ..      STR      r0,[sp,#0]
        0x00000a4c:    4870        pH      LDR      r0,[pc,#448] ; [0xc10] = 0x50000220
        0x00000a4e:    6800        .h      LDR      r0,[r0,#0]
        0x00000a50:    9005        ..      STR      r0,[sp,#0x14]
        0x00000a52:    a805        ..      ADD      r0,sp,#0x14
        0x00000a54:    7880        .x      LDRB     r0,[r0,#2]
        0x00000a56:    2105        .!      MOVS     r1,#5
        0x00000a58:    4208        .B      TST      r0,r1
        0x00000a5a:    d003        ..      BEQ      0xa64 ; CLK_GetPLLClockFreq + 36
        0x00000a5c:    e7ff        ..      B        0xa5e ; CLK_GetPLLClockFreq + 30
        0x00000a5e:    2000        .       MOVS     r0,#0
        0x00000a60:    9007        ..      STR      r0,[sp,#0x1c]
        0x00000a62:    e035        5.      B        0xad0 ; CLK_GetPLLClockFreq + 144
        0x00000a64:    a805        ..      ADD      r0,sp,#0x14
        0x00000a66:    7880        .x      LDRB     r0,[r0,#2]
        0x00000a68:    0700        ..      LSLS     r0,r0,#28
        0x00000a6a:    2800        .(      CMP      r0,#0
        0x00000a6c:    d503        ..      BPL      0xa76 ; CLK_GetPLLClockFreq + 54
        0x00000a6e:    e7ff        ..      B        0xa70 ; CLK_GetPLLClockFreq + 48
        0x00000a70:    4869        iH      LDR      r0,[pc,#420] ; [0xc18] = 0x1518000
        0x00000a72:    9004        ..      STR      r0,[sp,#0x10]
        0x00000a74:    e002        ..      B        0xa7c ; CLK_GetPLLClockFreq + 60
        0x00000a76:    4867        gH      LDR      r0,[pc,#412] ; [0xc14] = 0xb71b00
        0x00000a78:    9004        ..      STR      r0,[sp,#0x10]
        0x00000a7a:    e7ff        ..      B        0xa7c ; CLK_GetPLLClockFreq + 60
        0x00000a7c:    a805        ..      ADD      r0,sp,#0x14
        0x00000a7e:    7880        .x      LDRB     r0,[r0,#2]
        0x00000a80:    0780        ..      LSLS     r0,r0,#30
        0x00000a82:    2800        .(      CMP      r0,#0
        0x00000a84:    d503        ..      BPL      0xa8e ; CLK_GetPLLClockFreq + 78
        0x00000a86:    e7ff        ..      B        0xa88 ; CLK_GetPLLClockFreq + 72
        0x00000a88:    9804        ..      LDR      r0,[sp,#0x10]
        0x00000a8a:    9007        ..      STR      r0,[sp,#0x1c]
        0x00000a8c:    e020         .      B        0xad0 ; CLK_GetPLLClockFreq + 144
        0x00000a8e:    a805        ..      ADD      r0,sp,#0x14
        0x00000a90:    8800        ..      LDRH     r0,[r0,#0]
        0x00000a92:    0b81        ..      LSRS     r1,r0,#14
        0x00000a94:    4668        hF      MOV      r0,sp
        0x00000a96:    1840        @.      ADDS     r0,r0,r1
        0x00000a98:    7800        .x      LDRB     r0,[r0,#0]
        0x00000a9a:    9001        ..      STR      r0,[sp,#4]
        0x00000a9c:    9805        ..      LDR      r0,[sp,#0x14]
        0x00000a9e:    495f        _I      LDR      r1,[pc,#380] ; [0xc1c] = 0x1ff
        0x00000aa0:    4008        .@      ANDS     r0,r0,r1
        0x00000aa2:    1c80        ..      ADDS     r0,r0,#2
        0x00000aa4:    9003        ..      STR      r0,[sp,#0xc]
        0x00000aa6:    9805        ..      LDR      r0,[sp,#0x14]
        0x00000aa8:    211f        .!      MOVS     r1,#0x1f
        0x00000aaa:    0249        I.      LSLS     r1,r1,#9
        0x00000aac:    4008        .@      ANDS     r0,r0,r1
        0x00000aae:    0a40        @.      LSRS     r0,r0,#9
        0x00000ab0:    1c80        ..      ADDS     r0,r0,#2
        0x00000ab2:    9002        ..      STR      r0,[sp,#8]
        0x00000ab4:    9804        ..      LDR      r0,[sp,#0x10]
        0x00000ab6:    0881        ..      LSRS     r1,r0,#2
        0x00000ab8:    9803        ..      LDR      r0,[sp,#0xc]
        0x00000aba:    4348        HC      MULS     r0,r1,r0
        0x00000abc:    9a02        ..      LDR      r2,[sp,#8]
        0x00000abe:    9901        ..      LDR      r1,[sp,#4]
        0x00000ac0:    4351        QC      MULS     r1,r2,r1
        0x00000ac2:    f7fffb37    ..7.    BL       __aeabi_uidiv ; 0x134
        0x00000ac6:    0080        ..      LSLS     r0,r0,#2
        0x00000ac8:    9006        ..      STR      r0,[sp,#0x18]
        0x00000aca:    9806        ..      LDR      r0,[sp,#0x18]
        0x00000acc:    9007        ..      STR      r0,[sp,#0x1c]
        0x00000ace:    e7ff        ..      B        0xad0 ; CLK_GetPLLClockFreq + 144
        0x00000ad0:    9807        ..      LDR      r0,[sp,#0x1c]
        0x00000ad2:    b008        ..      ADD      sp,sp,#0x20
        0x00000ad4:    bd80        ..      POP      {r7,pc}
        0x00000ad6:    46c0        .F      MOV      r8,r8
    CLK_GetPLLClockFreq
        0x00000ad8:    b580        ..      PUSH     {r7,lr}
        0x00000ada:    b088        ..      SUB      sp,sp,#0x20
        0x00000adc:    2000        .       MOVS     r0,#0
        0x00000ade:    9006        ..      STR      r0,[sp,#0x18]
        0x00000ae0:    484a        JH      LDR      r0,[pc,#296] ; [0xc0c] = 0x4020201
        0x00000ae2:    9000        ..      STR      r0,[sp,#0]
        0x00000ae4:    484a        JH      LDR      r0,[pc,#296] ; [0xc10] = 0x50000220
        0x00000ae6:    6800        .h      LDR      r0,[r0,#0]
        0x00000ae8:    9005        ..      STR      r0,[sp,#0x14]
        0x00000aea:    a805        ..      ADD      r0,sp,#0x14
        0x00000aec:    7880        .x      LDRB     r0,[r0,#2]
        0x00000aee:    2105        .!      MOVS     r1,#5
        0x00000af0:    4208        .B      TST      r0,r1
        0x00000af2:    d003        ..      BEQ      0xafc ; CLK_GetPLLClockFreq + 36
        0x00000af4:    e7ff        ..      B        0xaf6 ; CLK_GetPLLClockFreq + 30
        0x00000af6:    2000        .       MOVS     r0,#0
        0x00000af8:    9007        ..      STR      r0,[sp,#0x1c]
        0x00000afa:    e035        5.      B        0xb68 ; CLK_GetPLLClockFreq + 144
        0x00000afc:    a805        ..      ADD      r0,sp,#0x14
        0x00000afe:    7880        .x      LDRB     r0,[r0,#2]
        0x00000b00:    0700        ..      LSLS     r0,r0,#28
        0x00000b02:    2800        .(      CMP      r0,#0
        0x00000b04:    d503        ..      BPL      0xb0e ; CLK_GetPLLClockFreq + 54
        0x00000b06:    e7ff        ..      B        0xb08 ; CLK_GetPLLClockFreq + 48
        0x00000b08:    4843        CH      LDR      r0,[pc,#268] ; [0xc18] = 0x1518000
        0x00000b0a:    9004        ..      STR      r0,[sp,#0x10]
        0x00000b0c:    e002        ..      B        0xb14 ; CLK_GetPLLClockFreq + 60
        0x00000b0e:    4841        AH      LDR      r0,[pc,#260] ; [0xc14] = 0xb71b00
        0x00000b10:    9004        ..      STR      r0,[sp,#0x10]
        0x00000b12:    e7ff        ..      B        0xb14 ; CLK_GetPLLClockFreq + 60
        0x00000b14:    a805        ..      ADD      r0,sp,#0x14
        0x00000b16:    7880        .x      LDRB     r0,[r0,#2]
        0x00000b18:    0780        ..      LSLS     r0,r0,#30
        0x00000b1a:    2800        .(      CMP      r0,#0
        0x00000b1c:    d503        ..      BPL      0xb26 ; CLK_GetPLLClockFreq + 78
        0x00000b1e:    e7ff        ..      B        0xb20 ; CLK_GetPLLClockFreq + 72
        0x00000b20:    9804        ..      LDR      r0,[sp,#0x10]
        0x00000b22:    9007        ..      STR      r0,[sp,#0x1c]
        0x00000b24:    e020         .      B        0xb68 ; CLK_GetPLLClockFreq + 144
        0x00000b26:    a805        ..      ADD      r0,sp,#0x14
        0x00000b28:    8800        ..      LDRH     r0,[r0,#0]
        0x00000b2a:    0b81        ..      LSRS     r1,r0,#14
        0x00000b2c:    4668        hF      MOV      r0,sp
        0x00000b2e:    1840        @.      ADDS     r0,r0,r1
        0x00000b30:    7800        .x      LDRB     r0,[r0,#0]
        0x00000b32:    9001        ..      STR      r0,[sp,#4]
        0x00000b34:    9805        ..      LDR      r0,[sp,#0x14]
        0x00000b36:    4939        9I      LDR      r1,[pc,#228] ; [0xc1c] = 0x1ff
        0x00000b38:    4008        .@      ANDS     r0,r0,r1
        0x00000b3a:    1c80        ..      ADDS     r0,r0,#2
        0x00000b3c:    9003        ..      STR      r0,[sp,#0xc]
        0x00000b3e:    9805        ..      LDR      r0,[sp,#0x14]
        0x00000b40:    211f        .!      MOVS     r1,#0x1f
        0x00000b42:    0249        I.      LSLS     r1,r1,#9
        0x00000b44:    4008        .@      ANDS     r0,r0,r1
        0x00000b46:    0a40        @.      LSRS     r0,r0,#9
        0x00000b48:    1c80        ..      ADDS     r0,r0,#2
        0x00000b4a:    9002        ..      STR      r0,[sp,#8]
        0x00000b4c:    9804        ..      LDR      r0,[sp,#0x10]
        0x00000b4e:    0881        ..      LSRS     r1,r0,#2
        0x00000b50:    9803        ..      LDR      r0,[sp,#0xc]
        0x00000b52:    4348        HC      MULS     r0,r1,r0
        0x00000b54:    9a02        ..      LDR      r2,[sp,#8]
        0x00000b56:    9901        ..      LDR      r1,[sp,#4]
        0x00000b58:    4351        QC      MULS     r1,r2,r1
        0x00000b5a:    f7fffaeb    ....    BL       __aeabi_uidiv ; 0x134
        0x00000b5e:    0080        ..      LSLS     r0,r0,#2
        0x00000b60:    9006        ..      STR      r0,[sp,#0x18]
        0x00000b62:    9806        ..      LDR      r0,[sp,#0x18]
        0x00000b64:    9007        ..      STR      r0,[sp,#0x1c]
        0x00000b66:    e7ff        ..      B        0xb68 ; CLK_GetPLLClockFreq + 144
        0x00000b68:    9807        ..      LDR      r0,[sp,#0x1c]
        0x00000b6a:    b008        ..      ADD      sp,sp,#0x20
        0x00000b6c:    bd80        ..      POP      {r7,pc}
        0x00000b6e:    46c0        .F      MOV      r8,r8
    $d
    __arm_cp.10_1
        0x00000b70:    50000220     ..P    DCD    1342177824
    $t
    CLK_GetPLLClockFreq
        0x00000b74:    b580        ..      PUSH     {r7,lr}
        0x00000b76:    b088        ..      SUB      sp,sp,#0x20
        0x00000b78:    2000        .       MOVS     r0,#0
        0x00000b7a:    9006        ..      STR      r0,[sp,#0x18]
        0x00000b7c:    4823        #H      LDR      r0,[pc,#140] ; [0xc0c] = 0x4020201
        0x00000b7e:    9000        ..      STR      r0,[sp,#0]
        0x00000b80:    4823        #H      LDR      r0,[pc,#140] ; [0xc10] = 0x50000220
        0x00000b82:    6800        .h      LDR      r0,[r0,#0]
        0x00000b84:    9005        ..      STR      r0,[sp,#0x14]
        0x00000b86:    a805        ..      ADD      r0,sp,#0x14
        0x00000b88:    7880        .x      LDRB     r0,[r0,#2]
        0x00000b8a:    2105        .!      MOVS     r1,#5
        0x00000b8c:    4208        .B      TST      r0,r1
        0x00000b8e:    d003        ..      BEQ      0xb98 ; CLK_GetPLLClockFreq + 36
        0x00000b90:    e7ff        ..      B        0xb92 ; CLK_GetPLLClockFreq + 30
        0x00000b92:    2000        .       MOVS     r0,#0
        0x00000b94:    9007        ..      STR      r0,[sp,#0x1c]
        0x00000b96:    e035        5.      B        0xc04 ; CLK_GetPLLClockFreq + 144
        0x00000b98:    a805        ..      ADD      r0,sp,#0x14
        0x00000b9a:    7880        .x      LDRB     r0,[r0,#2]
        0x00000b9c:    0700        ..      LSLS     r0,r0,#28
        0x00000b9e:    2800        .(      CMP      r0,#0
        0x00000ba0:    d503        ..      BPL      0xbaa ; CLK_GetPLLClockFreq + 54
        0x00000ba2:    e7ff        ..      B        0xba4 ; CLK_GetPLLClockFreq + 48
        0x00000ba4:    481c        .H      LDR      r0,[pc,#112] ; [0xc18] = 0x1518000
        0x00000ba6:    9004        ..      STR      r0,[sp,#0x10]
        0x00000ba8:    e002        ..      B        0xbb0 ; CLK_GetPLLClockFreq + 60
        0x00000baa:    481a        .H      LDR      r0,[pc,#104] ; [0xc14] = 0xb71b00
        0x00000bac:    9004        ..      STR      r0,[sp,#0x10]
        0x00000bae:    e7ff        ..      B        0xbb0 ; CLK_GetPLLClockFreq + 60
        0x00000bb0:    a805        ..      ADD      r0,sp,#0x14
        0x00000bb2:    7880        .x      LDRB     r0,[r0,#2]
        0x00000bb4:    0780        ..      LSLS     r0,r0,#30
        0x00000bb6:    2800        .(      CMP      r0,#0
        0x00000bb8:    d503        ..      BPL      0xbc2 ; CLK_GetPLLClockFreq + 78
        0x00000bba:    e7ff        ..      B        0xbbc ; CLK_GetPLLClockFreq + 72
        0x00000bbc:    9804        ..      LDR      r0,[sp,#0x10]
        0x00000bbe:    9007        ..      STR      r0,[sp,#0x1c]
        0x00000bc0:    e020         .      B        0xc04 ; CLK_GetPLLClockFreq + 144
        0x00000bc2:    a805        ..      ADD      r0,sp,#0x14
        0x00000bc4:    8800        ..      LDRH     r0,[r0,#0]
        0x00000bc6:    0b81        ..      LSRS     r1,r0,#14
        0x00000bc8:    4668        hF      MOV      r0,sp
        0x00000bca:    1840        @.      ADDS     r0,r0,r1
        0x00000bcc:    7800        .x      LDRB     r0,[r0,#0]
        0x00000bce:    9001        ..      STR      r0,[sp,#4]
        0x00000bd0:    9805        ..      LDR      r0,[sp,#0x14]
        0x00000bd2:    4912        .I      LDR      r1,[pc,#72] ; [0xc1c] = 0x1ff
        0x00000bd4:    4008        .@      ANDS     r0,r0,r1
        0x00000bd6:    1c80        ..      ADDS     r0,r0,#2
        0x00000bd8:    9003        ..      STR      r0,[sp,#0xc]
        0x00000bda:    9805        ..      LDR      r0,[sp,#0x14]
        0x00000bdc:    211f        .!      MOVS     r1,#0x1f
        0x00000bde:    0249        I.      LSLS     r1,r1,#9
        0x00000be0:    4008        .@      ANDS     r0,r0,r1
        0x00000be2:    0a40        @.      LSRS     r0,r0,#9
        0x00000be4:    1c80        ..      ADDS     r0,r0,#2
        0x00000be6:    9002        ..      STR      r0,[sp,#8]
        0x00000be8:    9804        ..      LDR      r0,[sp,#0x10]
        0x00000bea:    0881        ..      LSRS     r1,r0,#2
        0x00000bec:    9803        ..      LDR      r0,[sp,#0xc]
        0x00000bee:    4348        HC      MULS     r0,r1,r0
        0x00000bf0:    9a02        ..      LDR      r2,[sp,#8]
        0x00000bf2:    9901        ..      LDR      r1,[sp,#4]
        0x00000bf4:    4351        QC      MULS     r1,r2,r1
        0x00000bf6:    f7fffa9d    ....    BL       __aeabi_uidiv ; 0x134
        0x00000bfa:    0080        ..      LSLS     r0,r0,#2
        0x00000bfc:    9006        ..      STR      r0,[sp,#0x18]
        0x00000bfe:    9806        ..      LDR      r0,[sp,#0x18]
        0x00000c00:    9007        ..      STR      r0,[sp,#0x1c]
        0x00000c02:    e7ff        ..      B        0xc04 ; CLK_GetPLLClockFreq + 144
        0x00000c04:    9807        ..      LDR      r0,[sp,#0x1c]
        0x00000c06:    b008        ..      ADD      sp,sp,#0x20
        0x00000c08:    bd80        ..      POP      {r7,pc}
        0x00000c0a:    46c0        .F      MOV      r8,r8
    $d
    __arm_cp.20_0
        0x00000c0c:    04020201    ....    DCD    67240449
    __arm_cp.20_1
        0x00000c10:    50000220     ..P    DCD    1342177824
    __arm_cp.20_2
        0x00000c14:    00b71b00    ....    DCD    12000000
    __arm_cp.20_3
        0x00000c18:    01518000    ..Q.    DCD    22118400
    __arm_cp.20_4
        0x00000c1c:    000001ff    ....    DCD    511
    $t
    CLK_SetCoreClock
        0x00000c20:    b580        ..      PUSH     {r7,lr}
        0x00000c22:    b082        ..      SUB      sp,sp,#8
        0x00000c24:    9001        ..      STR      r0,[sp,#4]
        0x00000c26:    4884        .H      LDR      r0,[pc,#528] ; [0xe38] = 0x5000020c
        0x00000c28:    6800        .h      LDR      r0,[r0,#0]
        0x00000c2a:    2110        .!      MOVS     r1,#0x10
        0x00000c2c:    4008        .@      ANDS     r0,r0,r1
        0x00000c2e:    9000        ..      STR      r0,[sp,#0]
        0x00000c30:    9801        ..      LDR      r0,[sp,#4]
        0x00000c32:    4926        &I      LDR      r1,[pc,#152] ; [0xccc] = 0x44aa201
        0x00000c34:    4288        .B      CMP      r0,r1
        0x00000c36:    d303        ..      BCC      0xc40 ; CLK_SetCoreClock + 32
        0x00000c38:    e7ff        ..      B        0xc3a ; CLK_SetCoreClock + 26
        0x00000c3a:    4825        %H      LDR      r0,[pc,#148] ; [0xcd0] = 0x44aa200
        0x00000c3c:    9001        ..      STR      r0,[sp,#4]
        0x00000c3e:    e7ff        ..      B        0xc40 ; CLK_SetCoreClock + 32
        0x00000c40:    9801        ..      LDR      r0,[sp,#4]
        0x00000c42:    4924        $I      LDR      r1,[pc,#144] ; [0xcd4] = 0x17d783f
        0x00000c44:    4288        .B      CMP      r0,r1
        0x00000c46:    d803        ..      BHI      0xc50 ; CLK_SetCoreClock + 48
        0x00000c48:    e7ff        ..      B        0xc4a ; CLK_SetCoreClock + 42
        0x00000c4a:    4823        #H      LDR      r0,[pc,#140] ; [0xcd8] = 0x17d7840
        0x00000c4c:    9001        ..      STR      r0,[sp,#4]
        0x00000c4e:    e7ff        ..      B        0xc50 ; CLK_SetCoreClock + 48
        0x00000c50:    493a        :I      LDR      r1,[pc,#232] ; [0xd3c] = 0x50000200
        0x00000c52:    6808        .h      LDR      r0,[r1,#0]
        0x00000c54:    2204        ."      MOVS     r2,#4
        0x00000c56:    4310        .C      ORRS     r0,r0,r2
        0x00000c58:    6008        .`      STR      r0,[r1,#0]
        0x00000c5a:    2010        .       MOVS     r0,#0x10
        0x00000c5c:    f000f8ce    ....    BL       CLK_WaitClockReady ; 0xdfc
        0x00000c60:    4965        eI      LDR      r1,[pc,#404] ; [0xdf8] = 0x50000210
        0x00000c62:    6808        .h      LDR      r0,[r1,#0]
        0x00000c64:    2207        ."      MOVS     r2,#7
        0x00000c66:    4310        .C      ORRS     r0,r0,r2
        0x00000c68:    6008        .`      STR      r0,[r1,#0]
        0x00000c6a:    495c        \I      LDR      r1,[pc,#368] ; [0xddc] = 0x50000218
        0x00000c6c:    6808        .h      LDR      r0,[r1,#0]
        0x00000c6e:    220f        ."      MOVS     r2,#0xf
        0x00000c70:    4390        .C      BICS     r0,r0,r2
        0x00000c72:    6008        .`      STR      r0,[r1,#0]
        0x00000c74:    4870        pH      LDR      r0,[pc,#448] ; [0xe38] = 0x5000020c
        0x00000c76:    6800        .h      LDR      r0,[r0,#0]
        0x00000c78:    07c0        ..      LSLS     r0,r0,#31
        0x00000c7a:    2800        .(      CMP      r0,#0
        0x00000c7c:    d007        ..      BEQ      0xc8e ; CLK_SetCoreClock + 110
        0x00000c7e:    e7ff        ..      B        0xc80 ; CLK_SetCoreClock + 96
        0x00000c80:    9801        ..      LDR      r0,[sp,#4]
        0x00000c82:    0041        A.      LSLS     r1,r0,#1
        0x00000c84:    2000        .       MOVS     r0,#0
        0x00000c86:    f7fffdc9    ....    BL       CLK_EnablePLL ; 0x81c
        0x00000c8a:    9001        ..      STR      r0,[sp,#4]
        0x00000c8c:    e00c        ..      B        0xca8 ; CLK_SetCoreClock + 136
        0x00000c8e:    9801        ..      LDR      r0,[sp,#4]
        0x00000c90:    0041        A.      LSLS     r1,r0,#1
        0x00000c92:    2001        .       MOVS     r0,#1
        0x00000c94:    04c0        ..      LSLS     r0,r0,#19
        0x00000c96:    f7fffdc1    ....    BL       CLK_EnablePLL ; 0x81c
        0x00000c9a:    9001        ..      STR      r0,[sp,#4]
        0x00000c9c:    4866        fH      LDR      r0,[pc,#408] ; [0xe38] = 0x5000020c
        0x00000c9e:    6800        .h      LDR      r0,[r0,#0]
        0x00000ca0:    2110        .!      MOVS     r1,#0x10
        0x00000ca2:    4008        .@      ANDS     r0,r0,r1
        0x00000ca4:    9000        ..      STR      r0,[sp,#0]
        0x00000ca6:    e7ff        ..      B        0xca8 ; CLK_SetCoreClock + 136
        0x00000ca8:    2002        .       MOVS     r0,#2
        0x00000caa:    2101        .!      MOVS     r1,#1
        0x00000cac:    f000f816    ....    BL       CLK_SetHCLK ; 0xcdc
        0x00000cb0:    9800        ..      LDR      r0,[sp,#0]
        0x00000cb2:    2800        .(      CMP      r0,#0
        0x00000cb4:    d106        ..      BNE      0xcc4 ; CLK_SetCoreClock + 164
        0x00000cb6:    e7ff        ..      B        0xcb8 ; CLK_SetCoreClock + 152
        0x00000cb8:    4920         I      LDR      r1,[pc,#128] ; [0xd3c] = 0x50000200
        0x00000cba:    6808        .h      LDR      r0,[r1,#0]
        0x00000cbc:    2204        ."      MOVS     r2,#4
        0x00000cbe:    4390        .C      BICS     r0,r0,r2
        0x00000cc0:    6008        .`      STR      r0,[r1,#0]
        0x00000cc2:    e7ff        ..      B        0xcc4 ; CLK_SetCoreClock + 164
        0x00000cc4:    9801        ..      LDR      r0,[sp,#4]
        0x00000cc6:    0840        @.      LSRS     r0,r0,#1
        0x00000cc8:    b002        ..      ADD      sp,sp,#8
        0x00000cca:    bd80        ..      POP      {r7,pc}
    $d
    __arm_cp.10_1
        0x00000ccc:    044aa201    ..J.    DCD    72000001
    __arm_cp.10_2
        0x00000cd0:    044aa200    ..J.    DCD    72000000
    __arm_cp.10_3
        0x00000cd4:    017d783f    ?x}.    DCD    24999999
    __arm_cp.10_4
        0x00000cd8:    017d7840    @x}.    DCD    25000000
    $t
    CLK_SetHCLK
        0x00000cdc:    b510        ..      PUSH     {r4,lr}
        0x00000cde:    b084        ..      SUB      sp,sp,#0x10
        0x00000ce0:    9003        ..      STR      r0,[sp,#0xc]
        0x00000ce2:    9102        ..      STR      r1,[sp,#8]
        0x00000ce4:    4854        TH      LDR      r0,[pc,#336] ; [0xe38] = 0x5000020c
        0x00000ce6:    6801        .h      LDR      r1,[r0,#0]
        0x00000ce8:    2010        .       MOVS     r0,#0x10
        0x00000cea:    4001        .@      ANDS     r1,r1,r0
        0x00000cec:    9101        ..      STR      r1,[sp,#4]
        0x00000cee:    4a13        .J      LDR      r2,[pc,#76] ; [0xd3c] = 0x50000200
        0x00000cf0:    6811        .h      LDR      r1,[r2,#0]
        0x00000cf2:    2304        .#      MOVS     r3,#4
        0x00000cf4:    4319        .C      ORRS     r1,r1,r3
        0x00000cf6:    6011        .`      STR      r1,[r2,#0]
        0x00000cf8:    f000f880    ....    BL       CLK_WaitClockReady ; 0xdfc
        0x00000cfc:    493e        >I      LDR      r1,[pc,#248] ; [0xdf8] = 0x50000210
        0x00000cfe:    6808        .h      LDR      r0,[r1,#0]
        0x00000d00:    2207        ."      MOVS     r2,#7
        0x00000d02:    4310        .C      ORRS     r0,r0,r2
        0x00000d04:    6008        .`      STR      r0,[r1,#0]
        0x00000d06:    4b35        5K      LDR      r3,[pc,#212] ; [0xddc] = 0x50000218
        0x00000d08:    6818        .h      LDR      r0,[r3,#0]
        0x00000d0a:    240f        .$      MOVS     r4,#0xf
        0x00000d0c:    43a0        .C      BICS     r0,r0,r4
        0x00000d0e:    9c02        ..      LDR      r4,[sp,#8]
        0x00000d10:    4320         C      ORRS     r0,r0,r4
        0x00000d12:    6018        .`      STR      r0,[r3,#0]
        0x00000d14:    6808        .h      LDR      r0,[r1,#0]
        0x00000d16:    4390        .C      BICS     r0,r0,r2
        0x00000d18:    9a03        ..      LDR      r2,[sp,#0xc]
        0x00000d1a:    4310        .C      ORRS     r0,r0,r2
        0x00000d1c:    6008        .`      STR      r0,[r1,#0]
        0x00000d1e:    f003f9e9    ....    BL       SystemCoreClockUpdate ; 0x40f4
        0x00000d22:    9801        ..      LDR      r0,[sp,#4]
        0x00000d24:    2800        .(      CMP      r0,#0
        0x00000d26:    d106        ..      BNE      0xd36 ; CLK_SetHCLK + 90
        0x00000d28:    e7ff        ..      B        0xd2a ; CLK_SetHCLK + 78
        0x00000d2a:    4904        .I      LDR      r1,[pc,#16] ; [0xd3c] = 0x50000200
        0x00000d2c:    6808        .h      LDR      r0,[r1,#0]
        0x00000d2e:    2204        ."      MOVS     r2,#4
        0x00000d30:    4390        .C      BICS     r0,r0,r2
        0x00000d32:    6008        .`      STR      r0,[r1,#0]
        0x00000d34:    e7ff        ..      B        0xd36 ; CLK_SetHCLK + 90
        0x00000d36:    b004        ..      ADD      sp,sp,#0x10
        0x00000d38:    bd10        ..      POP      {r4,pc}
        0x00000d3a:    46c0        .F      MOV      r8,r8
    $d
    __arm_cp.13_1
        0x00000d3c:    50000200    ...P    DCD    1342177792
    $t
    CLK_SetModuleClock
        0x00000d40:    b08b        ..      SUB      sp,sp,#0x2c
        0x00000d42:    900a        ..      STR      r0,[sp,#0x28]
        0x00000d44:    9109        ..      STR      r1,[sp,#0x24]
        0x00000d46:    9208        ..      STR      r2,[sp,#0x20]
        0x00000d48:    2000        .       MOVS     r0,#0
        0x00000d4a:    9007        ..      STR      r0,[sp,#0x1c]
        0x00000d4c:    9006        ..      STR      r0,[sp,#0x18]
        0x00000d4e:    2124        $!      MOVS     r1,#0x24
        0x00000d50:    9105        ..      STR      r1,[sp,#0x14]
        0x00000d52:    210c        .!      MOVS     r1,#0xc
        0x00000d54:    9104        ..      STR      r1,[sp,#0x10]
        0x00000d56:    2104        .!      MOVS     r1,#4
        0x00000d58:    9103        ..      STR      r1,[sp,#0xc]
        0x00000d5a:    9002        ..      STR      r0,[sp,#8]
        0x00000d5c:    2120         !      MOVS     r1,#0x20
        0x00000d5e:    9101        ..      STR      r1,[sp,#4]
        0x00000d60:    9000        ..      STR      r0,[sp,#0]
        0x00000d62:    980a        ..      LDR      r0,[sp,#0x28]
        0x00000d64:    0a80        ..      LSRS     r0,r0,#10
        0x00000d66:    0600        ..      LSLS     r0,r0,#24
        0x00000d68:    2800        .(      CMP      r0,#0
        0x00000d6a:    d017        ..      BEQ      0xd9c ; CLK_SetModuleClock + 92
        0x00000d6c:    e7ff        ..      B        0xd6e ; CLK_SetModuleClock + 46
        0x00000d6e:    a80a        ..      ADD      r0,sp,#0x28
        0x00000d70:    8841        A.      LDRH     r1,[r0,#2]
        0x00000d72:    200c        .       MOVS     r0,#0xc
        0x00000d74:    4001        .@      ANDS     r1,r1,r0
        0x00000d76:    4668        hF      MOV      r0,sp
        0x00000d78:    5840        @X      LDR      r0,[r0,r1]
        0x00000d7a:    4918        .I      LDR      r1,[pc,#96] ; [0xddc] = 0x50000218
        0x00000d7c:    1840        @.      ADDS     r0,r0,r1
        0x00000d7e:    9006        ..      STR      r0,[sp,#0x18]
        0x00000d80:    9806        ..      LDR      r0,[sp,#0x18]
        0x00000d82:    6800        .h      LDR      r0,[r0,#0]
        0x00000d84:    9a0a        ..      LDR      r2,[sp,#0x28]
        0x00000d86:    0a91        ..      LSRS     r1,r2,#10
        0x00000d88:    b2c9        ..      UXTB     r1,r1
        0x00000d8a:    0592        ..      LSLS     r2,r2,#22
        0x00000d8c:    0ed2        ..      LSRS     r2,r2,#27
        0x00000d8e:    4091        .@      LSLS     r1,r1,r2
        0x00000d90:    4388        .C      BICS     r0,r0,r1
        0x00000d92:    9908        ..      LDR      r1,[sp,#0x20]
        0x00000d94:    4308        .C      ORRS     r0,r0,r1
        0x00000d96:    9906        ..      LDR      r1,[sp,#0x18]
        0x00000d98:    6008        .`      STR      r0,[r1,#0]
        0x00000d9a:    e7ff        ..      B        0xd9c ; CLK_SetModuleClock + 92
        0x00000d9c:    980a        ..      LDR      r0,[sp,#0x28]
        0x00000d9e:    0100        ..      LSLS     r0,r0,#4
        0x00000da0:    0f40        @.      LSRS     r0,r0,#29
        0x00000da2:    2800        .(      CMP      r0,#0
        0x00000da4:    d017        ..      BEQ      0xdd6 ; CLK_SetModuleClock + 150
        0x00000da6:    e7ff        ..      B        0xda8 ; CLK_SetModuleClock + 104
        0x00000da8:    980a        ..      LDR      r0,[sp,#0x28]
        0x00000daa:    0e81        ..      LSRS     r1,r0,#26
        0x00000dac:    200c        .       MOVS     r0,#0xc
        0x00000dae:    4001        .@      ANDS     r1,r1,r0
        0x00000db0:    a802        ..      ADD      r0,sp,#8
        0x00000db2:    5840        @X      LDR      r0,[r0,r1]
        0x00000db4:    4910        .I      LDR      r1,[pc,#64] ; [0xdf8] = 0x50000210
        0x00000db6:    1840        @.      ADDS     r0,r0,r1
        0x00000db8:    9007        ..      STR      r0,[sp,#0x1c]
        0x00000dba:    9807        ..      LDR      r0,[sp,#0x1c]
        0x00000dbc:    6800        .h      LDR      r0,[r0,#0]
        0x00000dbe:    9a0a        ..      LDR      r2,[sp,#0x28]
        0x00000dc0:    0111        ..      LSLS     r1,r2,#4
        0x00000dc2:    0f49        I.      LSRS     r1,r1,#29
        0x00000dc4:    01d2        ..      LSLS     r2,r2,#7
        0x00000dc6:    0ed2        ..      LSRS     r2,r2,#27
        0x00000dc8:    4091        .@      LSLS     r1,r1,r2
        0x00000dca:    4388        .C      BICS     r0,r0,r1
        0x00000dcc:    9909        ..      LDR      r1,[sp,#0x24]
        0x00000dce:    4308        .C      ORRS     r0,r0,r1
        0x00000dd0:    9907        ..      LDR      r1,[sp,#0x1c]
        0x00000dd2:    6008        .`      STR      r0,[r1,#0]
        0x00000dd4:    e7ff        ..      B        0xdd6 ; CLK_SetModuleClock + 150
        0x00000dd6:    b00b        ..      ADD      sp,sp,#0x2c
        0x00000dd8:    4770        pG      BX       lr
        0x00000dda:    46c0        .F      MOV      r8,r8
    $d
    __arm_cp.14_0
        0x00000ddc:    50000218    ...P    DCD    1342177816
    $t
    CLK_SetSysTickClockSrc
        0x00000de0:    b081        ..      SUB      sp,sp,#4
        0x00000de2:    9000        ..      STR      r0,[sp,#0]
        0x00000de4:    4904        .I      LDR      r1,[pc,#16] ; [0xdf8] = 0x50000210
        0x00000de6:    6808        .h      LDR      r0,[r1,#0]
        0x00000de8:    2238        8"      MOVS     r2,#0x38
        0x00000dea:    4390        .C      BICS     r0,r0,r2
        0x00000dec:    9a00        ..      LDR      r2,[sp,#0]
        0x00000dee:    4310        .C      ORRS     r0,r0,r2
        0x00000df0:    6008        .`      STR      r0,[r1,#0]
        0x00000df2:    b001        ..      ADD      sp,sp,#4
        0x00000df4:    4770        pG      BX       lr
        0x00000df6:    46c0        .F      MOV      r8,r8
    $d
    __arm_cp.15_0
        0x00000df8:    50000210    ...P    DCD    1342177808
    $t
    CLK_WaitClockReady
        0x00000dfc:    b083        ..      SUB      sp,sp,#0xc
        0x00000dfe:    9001        ..      STR      r0,[sp,#4]
        0x00000e00:    48b9        .H      LDR      r0,[pc,#740] ; [0x10e8] = 0x20000008
        0x00000e02:    6800        .h      LDR      r0,[r0,#0]
        0x00000e04:    0840        @.      LSRS     r0,r0,#1
        0x00000e06:    9000        ..      STR      r0,[sp,#0]
        0x00000e08:    e7ff        ..      B        0xe0a ; CLK_WaitClockReady + 14
        0x00000e0a:    480b        .H      LDR      r0,[pc,#44] ; [0xe38] = 0x5000020c
        0x00000e0c:    6800        .h      LDR      r0,[r0,#0]
        0x00000e0e:    9901        ..      LDR      r1,[sp,#4]
        0x00000e10:    4008        .@      ANDS     r0,r0,r1
        0x00000e12:    4288        .B      CMP      r0,r1
        0x00000e14:    d00a        ..      BEQ      0xe2c ; CLK_WaitClockReady + 48
        0x00000e16:    e7ff        ..      B        0xe18 ; CLK_WaitClockReady + 28
        0x00000e18:    9800        ..      LDR      r0,[sp,#0]
        0x00000e1a:    1e41        A.      SUBS     r1,r0,#1
        0x00000e1c:    9100        ..      STR      r1,[sp,#0]
        0x00000e1e:    2800        .(      CMP      r0,#0
        0x00000e20:    dc03        ..      BGT      0xe2a ; CLK_WaitClockReady + 46
        0x00000e22:    e7ff        ..      B        0xe24 ; CLK_WaitClockReady + 40
        0x00000e24:    2000        .       MOVS     r0,#0
        0x00000e26:    9002        ..      STR      r0,[sp,#8]
        0x00000e28:    e003        ..      B        0xe32 ; CLK_WaitClockReady + 54
        0x00000e2a:    e7ee        ..      B        0xe0a ; CLK_WaitClockReady + 14
        0x00000e2c:    2001        .       MOVS     r0,#1
        0x00000e2e:    9002        ..      STR      r0,[sp,#8]
        0x00000e30:    e7ff        ..      B        0xe32 ; CLK_WaitClockReady + 54
        0x00000e32:    9802        ..      LDR      r0,[sp,#8]
        0x00000e34:    b003        ..      ADD      sp,sp,#0xc
        0x00000e36:    4770        pG      BX       lr
    $d
    __arm_cp.11_1
        0x00000e38:    5000020c    ...P    DCD    1342177804
    $t
    CRC32_Calc
        0x00000e3c:    b580        ..      PUSH     {r7,lr}
        0x00000e3e:    b088        ..      SUB      sp,sp,#0x20
        0x00000e40:    9007        ..      STR      r0,[sp,#0x1c]
        0x00000e42:    9106        ..      STR      r1,[sp,#0x18]
        0x00000e44:    2003        .       MOVS     r0,#3
        0x00000e46:    0780        ..      LSLS     r0,r0,#30
        0x00000e48:    210b        .!      MOVS     r1,#0xb
        0x00000e4a:    0609        ..      LSLS     r1,r1,#24
        0x00000e4c:    2200        ."      MOVS     r2,#0
        0x00000e4e:    9201        ..      STR      r2,[sp,#4]
        0x00000e50:    43d2        .C      MVNS     r2,r2
        0x00000e52:    2301        .#      MOVS     r3,#1
        0x00000e54:    075b        [.      LSLS     r3,r3,#29
        0x00000e56:    f000f86d    ..m.    BL       CRC_Open ; 0xf34
        0x00000e5a:    9801        ..      LDR      r0,[sp,#4]
        0x00000e5c:    9005        ..      STR      r0,[sp,#0x14]
        0x00000e5e:    e7ff        ..      B        0xe60 ; CRC32_Calc + 36
        0x00000e60:    9805        ..      LDR      r0,[sp,#0x14]
        0x00000e62:    1d00        ..      ADDS     r0,r0,#4
        0x00000e64:    9906        ..      LDR      r1,[sp,#0x18]
        0x00000e66:    4288        .B      CMP      r0,r1
        0x00000e68:    d816        ..      BHI      0xe98 ; CRC32_Calc + 92
        0x00000e6a:    e7ff        ..      B        0xe6c ; CRC32_Calc + 48
        0x00000e6c:    9907        ..      LDR      r1,[sp,#0x1c]
        0x00000e6e:    9a05        ..      LDR      r2,[sp,#0x14]
        0x00000e70:    1888        ..      ADDS     r0,r1,r2
        0x00000e72:    5c8a        .\      LDRB     r2,[r1,r2]
        0x00000e74:    7841        Ax      LDRB     r1,[r0,#1]
        0x00000e76:    0209        ..      LSLS     r1,r1,#8
        0x00000e78:    1889        ..      ADDS     r1,r1,r2
        0x00000e7a:    7882        .x      LDRB     r2,[r0,#2]
        0x00000e7c:    0412        ..      LSLS     r2,r2,#16
        0x00000e7e:    78c0        .x      LDRB     r0,[r0,#3]
        0x00000e80:    0600        ..      LSLS     r0,r0,#24
        0x00000e82:    1880        ..      ADDS     r0,r0,r2
        0x00000e84:    1840        @.      ADDS     r0,r0,r1
        0x00000e86:    9003        ..      STR      r0,[sp,#0xc]
        0x00000e88:    9803        ..      LDR      r0,[sp,#0xc]
        0x00000e8a:    4910        .I      LDR      r1,[pc,#64] ; [0xecc] = 0x50018004
        0x00000e8c:    6008        .`      STR      r0,[r1,#0]
        0x00000e8e:    e7ff        ..      B        0xe90 ; CRC32_Calc + 84
        0x00000e90:    9805        ..      LDR      r0,[sp,#0x14]
        0x00000e92:    1d00        ..      ADDS     r0,r0,#4
        0x00000e94:    9005        ..      STR      r0,[sp,#0x14]
        0x00000e96:    e7e3        ..      B        0xe60 ; CRC32_Calc + 36
        0x00000e98:    9805        ..      LDR      r0,[sp,#0x14]
        0x00000e9a:    9906        ..      LDR      r1,[sp,#0x18]
        0x00000e9c:    4288        .B      CMP      r0,r1
        0x00000e9e:    d20f        ..      BCS      0xec0 ; CRC32_Calc + 132
        0x00000ea0:    e7ff        ..      B        0xea2 ; CRC32_Calc + 102
        0x00000ea2:    2000        .       MOVS     r0,#0
        0x00000ea4:    43c0        .C      MVNS     r0,r0
        0x00000ea6:    9002        ..      STR      r0,[sp,#8]
        0x00000ea8:    9807        ..      LDR      r0,[sp,#0x1c]
        0x00000eaa:    9a05        ..      LDR      r2,[sp,#0x14]
        0x00000eac:    1881        ..      ADDS     r1,r0,r2
        0x00000eae:    9806        ..      LDR      r0,[sp,#0x18]
        0x00000eb0:    1a82        ..      SUBS     r2,r0,r2
        0x00000eb2:    a802        ..      ADD      r0,sp,#8
        0x00000eb4:    f7fff92c    ..,.    BL       __aeabi_memcpy ; 0x110
        0x00000eb8:    9802        ..      LDR      r0,[sp,#8]
        0x00000eba:    4904        .I      LDR      r1,[pc,#16] ; [0xecc] = 0x50018004
        0x00000ebc:    6008        .`      STR      r0,[r1,#0]
        0x00000ebe:    e7ff        ..      B        0xec0 ; CRC32_Calc + 132
        0x00000ec0:    f000f806    ....    BL       CRC_GetChecksum ; 0xed0
        0x00000ec4:    9004        ..      STR      r0,[sp,#0x10]
        0x00000ec6:    9804        ..      LDR      r0,[sp,#0x10]
        0x00000ec8:    b008        ..      ADD      sp,sp,#0x20
        0x00000eca:    bd80        ..      POP      {r7,pc}
    $d
    __arm_cp.11_0
        0x00000ecc:    50018004    ...P    DCD    1342275588
    $t
    CRC_GetChecksum
        0x00000ed0:    b082        ..      SUB      sp,sp,#8
        0x00000ed2:    4825        %H      LDR      r0,[pc,#148] ; [0xf68] = 0x50018000
        0x00000ed4:    6800        .h      LDR      r0,[r0,#0]
        0x00000ed6:    2103        .!      MOVS     r1,#3
        0x00000ed8:    0789        ..      LSLS     r1,r1,#30
        0x00000eda:    4008        .@      ANDS     r0,r0,r1
        0x00000edc:    9000        ..      STR      r0,[sp,#0]
        0x00000ede:    2101        .!      MOVS     r1,#1
        0x00000ee0:    07c9        ..      LSLS     r1,r1,#31
        0x00000ee2:    4288        .B      CMP      r0,r1
        0x00000ee4:    d010        ..      BEQ      0xf08 ; CRC_GetChecksum + 56
        0x00000ee6:    e7ff        ..      B        0xee8 ; CRC_GetChecksum + 24
        0x00000ee8:    9800        ..      LDR      r0,[sp,#0]
        0x00000eea:    2103        .!      MOVS     r1,#3
        0x00000eec:    0789        ..      LSLS     r1,r1,#30
        0x00000eee:    4288        .B      CMP      r0,r1
        0x00000ef0:    d00f        ..      BEQ      0xf12 ; CRC_GetChecksum + 66
        0x00000ef2:    e7ff        ..      B        0xef4 ; CRC_GetChecksum + 36
        0x00000ef4:    9800        ..      LDR      r0,[sp,#0]
        0x00000ef6:    2800        .(      CMP      r0,#0
        0x00000ef8:    d006        ..      BEQ      0xf08 ; CRC_GetChecksum + 56
        0x00000efa:    e7ff        ..      B        0xefc ; CRC_GetChecksum + 44
        0x00000efc:    9800        ..      LDR      r0,[sp,#0]
        0x00000efe:    2101        .!      MOVS     r1,#1
        0x00000f00:    0789        ..      LSLS     r1,r1,#30
        0x00000f02:    4288        .B      CMP      r0,r1
        0x00000f04:    d009        ..      BEQ      0xf1a ; CRC_GetChecksum + 74
        0x00000f06:    e00d        ..      B        0xf24 ; CRC_GetChecksum + 84
        0x00000f08:    4809        .H      LDR      r0,[pc,#36] ; [0xf30] = 0x5001800c
        0x00000f0a:    6800        .h      LDR      r0,[r0,#0]
        0x00000f0c:    b280        ..      UXTH     r0,r0
        0x00000f0e:    9001        ..      STR      r0,[sp,#4]
        0x00000f10:    e00b        ..      B        0xf2a ; CRC_GetChecksum + 90
        0x00000f12:    4807        .H      LDR      r0,[pc,#28] ; [0xf30] = 0x5001800c
        0x00000f14:    6800        .h      LDR      r0,[r0,#0]
        0x00000f16:    9001        ..      STR      r0,[sp,#4]
        0x00000f18:    e007        ..      B        0xf2a ; CRC_GetChecksum + 90
        0x00000f1a:    4805        .H      LDR      r0,[pc,#20] ; [0xf30] = 0x5001800c
        0x00000f1c:    6800        .h      LDR      r0,[r0,#0]
        0x00000f1e:    b2c0        ..      UXTB     r0,r0
        0x00000f20:    9001        ..      STR      r0,[sp,#4]
        0x00000f22:    e002        ..      B        0xf2a ; CRC_GetChecksum + 90
        0x00000f24:    2000        .       MOVS     r0,#0
        0x00000f26:    9001        ..      STR      r0,[sp,#4]
        0x00000f28:    e7ff        ..      B        0xf2a ; CRC_GetChecksum + 90
        0x00000f2a:    9801        ..      LDR      r0,[sp,#4]
        0x00000f2c:    b002        ..      ADD      sp,sp,#8
        0x00000f2e:    4770        pG      BX       lr
    $d
    __arm_cp.1_1
        0x00000f30:    5001800c    ...P    DCD    1342275596
    $t
    CRC_Open
        0x00000f34:    b084        ..      SUB      sp,sp,#0x10
        0x00000f36:    9003        ..      STR      r0,[sp,#0xc]
        0x00000f38:    9102        ..      STR      r1,[sp,#8]
        0x00000f3a:    9201        ..      STR      r2,[sp,#4]
        0x00000f3c:    9300        ..      STR      r3,[sp,#0]
        0x00000f3e:    9801        ..      LDR      r0,[sp,#4]
        0x00000f40:    4908        .I      LDR      r1,[pc,#32] ; [0xf64] = 0x50018008
        0x00000f42:    6008        .`      STR      r0,[r1,#0]
        0x00000f44:    9803        ..      LDR      r0,[sp,#0xc]
        0x00000f46:    9902        ..      LDR      r1,[sp,#8]
        0x00000f48:    4308        .C      ORRS     r0,r0,r1
        0x00000f4a:    9900        ..      LDR      r1,[sp,#0]
        0x00000f4c:    4308        .C      ORRS     r0,r0,r1
        0x00000f4e:    2101        .!      MOVS     r1,#1
        0x00000f50:    4308        .C      ORRS     r0,r0,r1
        0x00000f52:    4905        .I      LDR      r1,[pc,#20] ; [0xf68] = 0x50018000
        0x00000f54:    6008        .`      STR      r0,[r1,#0]
        0x00000f56:    6808        .h      LDR      r0,[r1,#0]
        0x00000f58:    2202        ."      MOVS     r2,#2
        0x00000f5a:    4310        .C      ORRS     r0,r0,r2
        0x00000f5c:    6008        .`      STR      r0,[r1,#0]
        0x00000f5e:    b004        ..      ADD      sp,sp,#0x10
        0x00000f60:    4770        pG      BX       lr
        0x00000f62:    46c0        .F      MOV      r8,r8
    $d
    __arm_cp.0_0
        0x00000f64:    50018008    ...P    DCD    1342275592
    __arm_cp.0_1
        0x00000f68:    50018000    ...P    DCD    1342275584
    $t
    CalChecksumH
        0x00000f6c:    b580        ..      PUSH     {r7,lr}
        0x00000f6e:    b082        ..      SUB      sp,sp,#8
        0x00000f70:    4915        .I      LDR      r1,[pc,#84] ; [0xfc8] = 0x20000172
        0x00000f72:    2055        U       MOVS     r0,#0x55
        0x00000f74:    7008        .p      STRB     r0,[r1,#0]
        0x00000f76:    4815        .H      LDR      r0,[pc,#84] ; [0xfcc] = 0x2000037b
        0x00000f78:    7800        .x      LDRB     r0,[r0,#0]
        0x00000f7a:    7048        Hp      STRB     r0,[r1,#1]
        0x00000f7c:    4669        iF      MOV      r1,sp
        0x00000f7e:    2000        .       MOVS     r0,#0
        0x00000f80:    7008        .p      STRB     r0,[r1,#0]
        0x00000f82:    a901        ..      ADD      r1,sp,#4
        0x00000f84:    2001        .       MOVS     r0,#1
        0x00000f86:    7008        .p      STRB     r0,[r1,#0]
        0x00000f88:    e7ff        ..      B        0xf8a ; CalChecksumH + 30
        0x00000f8a:    a801        ..      ADD      r0,sp,#4
        0x00000f8c:    7800        .x      LDRB     r0,[r0,#0]
        0x00000f8e:    2861        a(      CMP      r0,#0x61
        0x00000f90:    dc0e        ..      BGT      0xfb0 ; CalChecksumH + 68
        0x00000f92:    e7ff        ..      B        0xf94 ; CalChecksumH + 40
        0x00000f94:    a801        ..      ADD      r0,sp,#4
        0x00000f96:    7801        .x      LDRB     r1,[r0,#0]
        0x00000f98:    480b        .H      LDR      r0,[pc,#44] ; [0xfc8] = 0x20000172
        0x00000f9a:    5c41        A\      LDRB     r1,[r0,r1]
        0x00000f9c:    9800        ..      LDR      r0,[sp,#0]
        0x00000f9e:    1840        @.      ADDS     r0,r0,r1
        0x00000fa0:    4669        iF      MOV      r1,sp
        0x00000fa2:    7008        .p      STRB     r0,[r1,#0]
        0x00000fa4:    e7ff        ..      B        0xfa6 ; CalChecksumH + 58
        0x00000fa6:    9801        ..      LDR      r0,[sp,#4]
        0x00000fa8:    1c40        @.      ADDS     r0,r0,#1
        0x00000faa:    a901        ..      ADD      r1,sp,#4
        0x00000fac:    7008        .p      STRB     r0,[r1,#0]
        0x00000fae:    e7ec        ..      B        0xf8a ; CalChecksumH + 30
        0x00000fb0:    9900        ..      LDR      r1,[sp,#0]
        0x00000fb2:    4805        .H      LDR      r0,[pc,#20] ; [0xfc8] = 0x20000172
        0x00000fb4:    2262        b"      MOVS     r2,#0x62
        0x00000fb6:    5481        .T      STRB     r1,[r0,r2]
        0x00000fb8:    2263        c"      MOVS     r2,#0x63
        0x00000fba:    210a        .!      MOVS     r1,#0xa
        0x00000fbc:    5481        .T      STRB     r1,[r0,r2]
        0x00000fbe:    2164        d!      MOVS     r1,#0x64
        0x00000fc0:    f003fdda    ....    BL       _SendStringToHOST ; 0x4b78
        0x00000fc4:    b002        ..      ADD      sp,sp,#8
        0x00000fc6:    bd80        ..      POP      {r7,pc}
    $d
    __arm_cp.21_0
        0x00000fc8:    20000172    r..     DCD    536871282
    __arm_cp.21_1
        0x00000fcc:    2000037b    {..     DCD    536871803
    $t
    CalChecksumM
        0x00000fd0:    b580        ..      PUSH     {r7,lr}
        0x00000fd2:    b082        ..      SUB      sp,sp,#8
        0x00000fd4:    4914        .I      LDR      r1,[pc,#80] ; [0x1028] = 0x20000316
        0x00000fd6:    2055        U       MOVS     r0,#0x55
        0x00000fd8:    7008        .p      STRB     r0,[r1,#0]
        0x00000fda:    4669        iF      MOV      r1,sp
        0x00000fdc:    2000        .       MOVS     r0,#0
        0x00000fde:    7008        .p      STRB     r0,[r1,#0]
        0x00000fe0:    a901        ..      ADD      r1,sp,#4
        0x00000fe2:    2001        .       MOVS     r0,#1
        0x00000fe4:    7008        .p      STRB     r0,[r1,#0]
        0x00000fe6:    e7ff        ..      B        0xfe8 ; CalChecksumM + 24
        0x00000fe8:    a801        ..      ADD      r0,sp,#4
        0x00000fea:    7800        .x      LDRB     r0,[r0,#0]
        0x00000fec:    2861        a(      CMP      r0,#0x61
        0x00000fee:    dc0e        ..      BGT      0x100e ; CalChecksumM + 62
        0x00000ff0:    e7ff        ..      B        0xff2 ; CalChecksumM + 34
        0x00000ff2:    a801        ..      ADD      r0,sp,#4
        0x00000ff4:    7801        .x      LDRB     r1,[r0,#0]
        0x00000ff6:    480c        .H      LDR      r0,[pc,#48] ; [0x1028] = 0x20000316
        0x00000ff8:    5c41        A\      LDRB     r1,[r0,r1]
        0x00000ffa:    9800        ..      LDR      r0,[sp,#0]
        0x00000ffc:    1840        @.      ADDS     r0,r0,r1
        0x00000ffe:    4669        iF      MOV      r1,sp
        0x00001000:    7008        .p      STRB     r0,[r1,#0]
        0x00001002:    e7ff        ..      B        0x1004 ; CalChecksumM + 52
        0x00001004:    9801        ..      LDR      r0,[sp,#4]
        0x00001006:    1c40        @.      ADDS     r0,r0,#1
        0x00001008:    a901        ..      ADD      r1,sp,#4
        0x0000100a:    7008        .p      STRB     r0,[r1,#0]
        0x0000100c:    e7ec        ..      B        0xfe8 ; CalChecksumM + 24
        0x0000100e:    9900        ..      LDR      r1,[sp,#0]
        0x00001010:    4805        .H      LDR      r0,[pc,#20] ; [0x1028] = 0x20000316
        0x00001012:    2262        b"      MOVS     r2,#0x62
        0x00001014:    5481        .T      STRB     r1,[r0,r2]
        0x00001016:    2263        c"      MOVS     r2,#0x63
        0x00001018:    210a        .!      MOVS     r1,#0xa
        0x0000101a:    5481        .T      STRB     r1,[r0,r2]
        0x0000101c:    2164        d!      MOVS     r1,#0x64
        0x0000101e:    f003fe05    ....    BL       _SendStringToMETER ; 0x4c2c
        0x00001022:    b002        ..      ADD      sp,sp,#8
        0x00001024:    bd80        ..      POP      {r7,pc}
        0x00001026:    46c0        .F      MOV      r8,r8
    $d
    __arm_cp.22_0
        0x00001028:    20000316    ...     DCD    536871702
    $t
    ClearRespDelayTimer
        0x0000102c:    4904        .I      LDR      r1,[pc,#16] ; [0x1040] = 0x200004e0
        0x0000102e:    2001        .       MOVS     r0,#1
        0x00001030:    7008        .p      STRB     r0,[r1,#0]
        0x00001032:    4904        .I      LDR      r1,[pc,#16] ; [0x1044] = 0x20000504
        0x00001034:    2000        .       MOVS     r0,#0
        0x00001036:    7008        .p      STRB     r0,[r1,#0]
        0x00001038:    4903        .I      LDR      r1,[pc,#12] ; [0x1048] = 0x20000484
        0x0000103a:    2005        .       MOVS     r0,#5
        0x0000103c:    7008        .p      STRB     r0,[r1,#0]
        0x0000103e:    4770        pG      BX       lr
    $d
    __arm_cp.4_0
        0x00001040:    200004e0    ...     DCD    536872160
    __arm_cp.4_1
        0x00001044:    20000504    ...     DCD    536872196
    __arm_cp.4_2
        0x00001048:    20000484    ...     DCD    536872068
    $t
    DefaultValue
        0x0000104c:    4770        pG      BX       lr
        0x0000104e:    0000        ..      MOVS     r0,r0
    FMC_Close
        0x00001050:    495e        ^I      LDR      r1,[pc,#376] ; [0x11cc] = 0x5000c000
        0x00001052:    6808        .h      LDR      r0,[r1,#0]
        0x00001054:    2201        ."      MOVS     r2,#1
        0x00001056:    4390        .C      BICS     r0,r0,r2
        0x00001058:    6008        .`      STR      r0,[r1,#0]
        0x0000105a:    4770        pG      BX       lr
    FMC_Erase
        0x0000105c:    b083        ..      SUB      sp,sp,#0xc
        0x0000105e:    9002        ..      STR      r0,[sp,#8]
        0x00001060:    2000        .       MOVS     r0,#0
        0x00001062:    9001        ..      STR      r0,[sp,#4]
        0x00001064:    4988        .I      LDR      r1,[pc,#544] ; [0x1288] = 0x200004e8
        0x00001066:    6008        .`      STR      r0,[r1,#0]
        0x00001068:    4988        .I      LDR      r1,[pc,#544] ; [0x128c] = 0x5000c00c
        0x0000106a:    2022        "       MOVS     r0,#0x22
        0x0000106c:    6008        .`      STR      r0,[r1,#0]
        0x0000106e:    9802        ..      LDR      r0,[sp,#8]
        0x00001070:    4987        .I      LDR      r1,[pc,#540] ; [0x1290] = 0x5000c004
        0x00001072:    6008        .`      STR      r0,[r1,#0]
        0x00001074:    9802        ..      LDR      r0,[sp,#8]
        0x00001076:    2101        .!      MOVS     r1,#1
        0x00001078:    0549        I.      LSLS     r1,r1,#21
        0x0000107a:    4288        .B      CMP      r0,r1
        0x0000107c:    d104        ..      BNE      0x1088 ; FMC_Erase + 44
        0x0000107e:    e7ff        ..      B        0x1080 ; FMC_Erase + 36
        0x00001080:    496a        jI      LDR      r1,[pc,#424] ; [0x122c] = 0x5000c008
        0x00001082:    4818        .H      LDR      r0,[pc,#96] ; [0x10e4] = 0x55aa03
        0x00001084:    6008        .`      STR      r0,[r1,#0]
        0x00001086:    e7ff        ..      B        0x1088 ; FMC_Erase + 44
        0x00001088:    4982        .I      LDR      r1,[pc,#520] ; [0x1294] = 0x5000c010
        0x0000108a:    2001        .       MOVS     r0,#1
        0x0000108c:    6008        .`      STR      r0,[r1,#0]
        0x0000108e:    4882        .H      LDR      r0,[pc,#520] ; [0x1298] = 0x20000008
        0x00001090:    6800        .h      LDR      r0,[r0,#0]
        0x00001092:    0880        ..      LSRS     r0,r0,#2
        0x00001094:    9000        ..      STR      r0,[sp,#0]
        0x00001096:    e7ff        ..      B        0x1098 ; FMC_Erase + 60
        0x00001098:    487e        ~H      LDR      r0,[pc,#504] ; [0x1294] = 0x5000c010
        0x0000109a:    6800        .h      LDR      r0,[r0,#0]
        0x0000109c:    2800        .(      CMP      r0,#0
        0x0000109e:    d00d        ..      BEQ      0x10bc ; FMC_Erase + 96
        0x000010a0:    e7ff        ..      B        0x10a2 ; FMC_Erase + 70
        0x000010a2:    9800        ..      LDR      r0,[sp,#0]
        0x000010a4:    1e40        @.      SUBS     r0,r0,#1
        0x000010a6:    9000        ..      STR      r0,[sp,#0]
        0x000010a8:    2800        .(      CMP      r0,#0
        0x000010aa:    d106        ..      BNE      0x10ba ; FMC_Erase + 94
        0x000010ac:    e7ff        ..      B        0x10ae ; FMC_Erase + 82
        0x000010ae:    4976        vI      LDR      r1,[pc,#472] ; [0x1288] = 0x200004e8
        0x000010b0:    2000        .       MOVS     r0,#0
        0x000010b2:    43c0        .C      MVNS     r0,r0
        0x000010b4:    6008        .`      STR      r0,[r1,#0]
        0x000010b6:    9001        ..      STR      r0,[sp,#4]
        0x000010b8:    e7ff        ..      B        0x10ba ; FMC_Erase + 94
        0x000010ba:    e7ed        ..      B        0x1098 ; FMC_Erase + 60
        0x000010bc:    4843        CH      LDR      r0,[pc,#268] ; [0x11cc] = 0x5000c000
        0x000010be:    6800        .h      LDR      r0,[r0,#0]
        0x000010c0:    0640        @.      LSLS     r0,r0,#25
        0x000010c2:    2800        .(      CMP      r0,#0
        0x000010c4:    d50b        ..      BPL      0x10de ; FMC_Erase + 130
        0x000010c6:    e7ff        ..      B        0x10c8 ; FMC_Erase + 108
        0x000010c8:    4940        @I      LDR      r1,[pc,#256] ; [0x11cc] = 0x5000c000
        0x000010ca:    6808        .h      LDR      r0,[r1,#0]
        0x000010cc:    2240        @"      MOVS     r2,#0x40
        0x000010ce:    4310        .C      ORRS     r0,r0,r2
        0x000010d0:    6008        .`      STR      r0,[r1,#0]
        0x000010d2:    496d        mI      LDR      r1,[pc,#436] ; [0x1288] = 0x200004e8
        0x000010d4:    2000        .       MOVS     r0,#0
        0x000010d6:    43c0        .C      MVNS     r0,r0
        0x000010d8:    6008        .`      STR      r0,[r1,#0]
        0x000010da:    9001        ..      STR      r0,[sp,#4]
        0x000010dc:    e7ff        ..      B        0x10de ; FMC_Erase + 130
        0x000010de:    9801        ..      LDR      r0,[sp,#4]
        0x000010e0:    b003        ..      ADD      sp,sp,#0xc
        0x000010e2:    4770        pG      BX       lr
    $d
    __arm_cp.27_4
        0x000010e4:    0055aa03    ..U.    DCD    5614083
    __arm_cp.27_6
        0x000010e8:    20000008    ...     DCD    536870920
    $t
    FMC_Open
        0x000010ec:    4937        7I      LDR      r1,[pc,#220] ; [0x11cc] = 0x5000c000
        0x000010ee:    6808        .h      LDR      r0,[r1,#0]
        0x000010f0:    2201        ."      MOVS     r2,#1
        0x000010f2:    4310        .C      ORRS     r0,r0,r2
        0x000010f4:    6008        .`      STR      r0,[r1,#0]
        0x000010f6:    4770        pG      BX       lr
    FMC_Proc
        0x000010f8:    b088        ..      SUB      sp,sp,#0x20
        0x000010fa:    9006        ..      STR      r0,[sp,#0x18]
        0x000010fc:    9105        ..      STR      r1,[sp,#0x14]
        0x000010fe:    9204        ..      STR      r2,[sp,#0x10]
        0x00001100:    9303        ..      STR      r3,[sp,#0xc]
        0x00001102:    9805        ..      LDR      r0,[sp,#0x14]
        0x00001104:    9002        ..      STR      r0,[sp,#8]
        0x00001106:    e7ff        ..      B        0x1108 ; FMC_Proc + 16
        0x00001108:    9802        ..      LDR      r0,[sp,#8]
        0x0000110a:    9904        ..      LDR      r1,[sp,#0x10]
        0x0000110c:    4288        .B      CMP      r0,r1
        0x0000110e:    d256        V.      BCS      0x11be ; FMC_Proc + 198
        0x00001110:    e7ff        ..      B        0x1112 ; FMC_Proc + 26
        0x00001112:    9806        ..      LDR      r0,[sp,#0x18]
        0x00001114:    495d        ]I      LDR      r1,[pc,#372] ; [0x128c] = 0x5000c00c
        0x00001116:    6008        .`      STR      r0,[r1,#0]
        0x00001118:    9802        ..      LDR      r0,[sp,#8]
        0x0000111a:    495d        ]I      LDR      r1,[pc,#372] ; [0x1290] = 0x5000c004
        0x0000111c:    6008        .`      STR      r0,[r1,#0]
        0x0000111e:    9806        ..      LDR      r0,[sp,#0x18]
        0x00001120:    2821        !(      CMP      r0,#0x21
        0x00001122:    d105        ..      BNE      0x1130 ; FMC_Proc + 56
        0x00001124:    e7ff        ..      B        0x1126 ; FMC_Proc + 46
        0x00001126:    9803        ..      LDR      r0,[sp,#0xc]
        0x00001128:    6800        .h      LDR      r0,[r0,#0]
        0x0000112a:    4940        @I      LDR      r1,[pc,#256] ; [0x122c] = 0x5000c008
        0x0000112c:    6008        .`      STR      r0,[r1,#0]
        0x0000112e:    e7ff        ..      B        0x1130 ; FMC_Proc + 56
        0x00001130:    4958        XI      LDR      r1,[pc,#352] ; [0x1294] = 0x5000c010
        0x00001132:    2001        .       MOVS     r0,#1
        0x00001134:    6008        .`      STR      r0,[r1,#0]
        0x00001136:    f3bf8f6f    ..o.    ISB      
        0x0000113a:    4857        WH      LDR      r0,[pc,#348] ; [0x1298] = 0x20000008
        0x0000113c:    6800        .h      LDR      r0,[r0,#0]
        0x0000113e:    08c0        ..      LSRS     r0,r0,#3
        0x00001140:    9000        ..      STR      r0,[sp,#0]
        0x00001142:    e7ff        ..      B        0x1144 ; FMC_Proc + 76
        0x00001144:    4853        SH      LDR      r0,[pc,#332] ; [0x1294] = 0x5000c010
        0x00001146:    6800        .h      LDR      r0,[r0,#0]
        0x00001148:    07c0        ..      LSLS     r0,r0,#31
        0x0000114a:    2800        .(      CMP      r0,#0
        0x0000114c:    d00b        ..      BEQ      0x1166 ; FMC_Proc + 110
        0x0000114e:    e7ff        ..      B        0x1150 ; FMC_Proc + 88
        0x00001150:    9800        ..      LDR      r0,[sp,#0]
        0x00001152:    1e40        @.      SUBS     r0,r0,#1
        0x00001154:    9000        ..      STR      r0,[sp,#0]
        0x00001156:    2800        .(      CMP      r0,#0
        0x00001158:    d104        ..      BNE      0x1164 ; FMC_Proc + 108
        0x0000115a:    e7ff        ..      B        0x115c ; FMC_Proc + 100
        0x0000115c:    2000        .       MOVS     r0,#0
        0x0000115e:    43c0        .C      MVNS     r0,r0
        0x00001160:    9007        ..      STR      r0,[sp,#0x1c]
        0x00001162:    e02f        /.      B        0x11c4 ; FMC_Proc + 204
        0x00001164:    e7ee        ..      B        0x1144 ; FMC_Proc + 76
        0x00001166:    4819        .H      LDR      r0,[pc,#100] ; [0x11cc] = 0x5000c000
        0x00001168:    6800        .h      LDR      r0,[r0,#0]
        0x0000116a:    9001        ..      STR      r0,[sp,#4]
        0x0000116c:    a801        ..      ADD      r0,sp,#4
        0x0000116e:    7800        .x      LDRB     r0,[r0,#0]
        0x00001170:    0640        @.      LSLS     r0,r0,#25
        0x00001172:    2800        .(      CMP      r0,#0
        0x00001174:    d507        ..      BPL      0x1186 ; FMC_Proc + 142
        0x00001176:    e7ff        ..      B        0x1178 ; FMC_Proc + 128
        0x00001178:    9801        ..      LDR      r0,[sp,#4]
        0x0000117a:    4914        .I      LDR      r1,[pc,#80] ; [0x11cc] = 0x5000c000
        0x0000117c:    6008        .`      STR      r0,[r1,#0]
        0x0000117e:    2000        .       MOVS     r0,#0
        0x00001180:    43c0        .C      MVNS     r0,r0
        0x00001182:    9007        ..      STR      r0,[sp,#0x1c]
        0x00001184:    e01e        ..      B        0x11c4 ; FMC_Proc + 204
        0x00001186:    9806        ..      LDR      r0,[sp,#0x18]
        0x00001188:    2800        .(      CMP      r0,#0
        0x0000118a:    d105        ..      BNE      0x1198 ; FMC_Proc + 160
        0x0000118c:    e7ff        ..      B        0x118e ; FMC_Proc + 150
        0x0000118e:    4827        'H      LDR      r0,[pc,#156] ; [0x122c] = 0x5000c008
        0x00001190:    6800        .h      LDR      r0,[r0,#0]
        0x00001192:    9903        ..      LDR      r1,[sp,#0xc]
        0x00001194:    6008        .`      STR      r0,[r1,#0]
        0x00001196:    e7ff        ..      B        0x1198 ; FMC_Proc + 160
        0x00001198:    9806        ..      LDR      r0,[sp,#0x18]
        0x0000119a:    2822        "(      CMP      r0,#0x22
        0x0000119c:    d106        ..      BNE      0x11ac ; FMC_Proc + 180
        0x0000119e:    e7ff        ..      B        0x11a0 ; FMC_Proc + 168
        0x000011a0:    9802        ..      LDR      r0,[sp,#8]
        0x000011a2:    2101        .!      MOVS     r1,#1
        0x000011a4:    02c9        ..      LSLS     r1,r1,#11
        0x000011a6:    1840        @.      ADDS     r0,r0,r1
        0x000011a8:    9002        ..      STR      r0,[sp,#8]
        0x000011aa:    e003        ..      B        0x11b4 ; FMC_Proc + 188
        0x000011ac:    9802        ..      LDR      r0,[sp,#8]
        0x000011ae:    1d00        ..      ADDS     r0,r0,#4
        0x000011b0:    9002        ..      STR      r0,[sp,#8]
        0x000011b2:    e7ff        ..      B        0x11b4 ; FMC_Proc + 188
        0x000011b4:    e7ff        ..      B        0x11b6 ; FMC_Proc + 190
        0x000011b6:    9803        ..      LDR      r0,[sp,#0xc]
        0x000011b8:    1d00        ..      ADDS     r0,r0,#4
        0x000011ba:    9003        ..      STR      r0,[sp,#0xc]
        0x000011bc:    e7a4        ..      B        0x1108 ; FMC_Proc + 16
        0x000011be:    2000        .       MOVS     r0,#0
        0x000011c0:    9007        ..      STR      r0,[sp,#0x1c]
        0x000011c2:    e7ff        ..      B        0x11c4 ; FMC_Proc + 204
        0x000011c4:    9807        ..      LDR      r0,[sp,#0x1c]
        0x000011c6:    b008        ..      ADD      sp,sp,#0x20
        0x000011c8:    4770        pG      BX       lr
        0x000011ca:    46c0        .F      MOV      r8,r8
    $d
    __arm_cp.0_5
        0x000011cc:    5000c000    ...P    DCD    1342226432
    $t
    FMC_Read
        0x000011d0:    b083        ..      SUB      sp,sp,#0xc
        0x000011d2:    9001        ..      STR      r0,[sp,#4]
        0x000011d4:    492c        ,I      LDR      r1,[pc,#176] ; [0x1288] = 0x200004e8
        0x000011d6:    2000        .       MOVS     r0,#0
        0x000011d8:    6008        .`      STR      r0,[r1,#0]
        0x000011da:    492c        ,I      LDR      r1,[pc,#176] ; [0x128c] = 0x5000c00c
        0x000011dc:    6008        .`      STR      r0,[r1,#0]
        0x000011de:    9901        ..      LDR      r1,[sp,#4]
        0x000011e0:    4a2b        +J      LDR      r2,[pc,#172] ; [0x1290] = 0x5000c004
        0x000011e2:    6011        .`      STR      r1,[r2,#0]
        0x000011e4:    4911        .I      LDR      r1,[pc,#68] ; [0x122c] = 0x5000c008
        0x000011e6:    6008        .`      STR      r0,[r1,#0]
        0x000011e8:    492a        *I      LDR      r1,[pc,#168] ; [0x1294] = 0x5000c010
        0x000011ea:    2001        .       MOVS     r0,#1
        0x000011ec:    6008        .`      STR      r0,[r1,#0]
        0x000011ee:    482a        *H      LDR      r0,[pc,#168] ; [0x1298] = 0x20000008
        0x000011f0:    6800        .h      LDR      r0,[r0,#0]
        0x000011f2:    08c0        ..      LSRS     r0,r0,#3
        0x000011f4:    9000        ..      STR      r0,[sp,#0]
        0x000011f6:    e7ff        ..      B        0x11f8 ; FMC_Read + 40
        0x000011f8:    4826        &H      LDR      r0,[pc,#152] ; [0x1294] = 0x5000c010
        0x000011fa:    6800        .h      LDR      r0,[r0,#0]
        0x000011fc:    2800        .(      CMP      r0,#0
        0x000011fe:    d00d        ..      BEQ      0x121c ; FMC_Read + 76
        0x00001200:    e7ff        ..      B        0x1202 ; FMC_Read + 50
        0x00001202:    9800        ..      LDR      r0,[sp,#0]
        0x00001204:    1e40        @.      SUBS     r0,r0,#1
        0x00001206:    9000        ..      STR      r0,[sp,#0]
        0x00001208:    2800        .(      CMP      r0,#0
        0x0000120a:    d106        ..      BNE      0x121a ; FMC_Read + 74
        0x0000120c:    e7ff        ..      B        0x120e ; FMC_Read + 62
        0x0000120e:    491e        .I      LDR      r1,[pc,#120] ; [0x1288] = 0x200004e8
        0x00001210:    2000        .       MOVS     r0,#0
        0x00001212:    43c0        .C      MVNS     r0,r0
        0x00001214:    6008        .`      STR      r0,[r1,#0]
        0x00001216:    9002        ..      STR      r0,[sp,#8]
        0x00001218:    e004        ..      B        0x1224 ; FMC_Read + 84
        0x0000121a:    e7ed        ..      B        0x11f8 ; FMC_Read + 40
        0x0000121c:    4803        .H      LDR      r0,[pc,#12] ; [0x122c] = 0x5000c008
        0x0000121e:    6800        .h      LDR      r0,[r0,#0]
        0x00001220:    9002        ..      STR      r0,[sp,#8]
        0x00001222:    e7ff        ..      B        0x1224 ; FMC_Read + 84
        0x00001224:    9802        ..      LDR      r0,[sp,#8]
        0x00001226:    b003        ..      ADD      sp,sp,#0xc
        0x00001228:    4770        pG      BX       lr
        0x0000122a:    46c0        .F      MOV      r8,r8
    $d
    __arm_cp.26_3
        0x0000122c:    5000c008    ...P    DCD    1342226440
    $t
    FMC_SetVectorPageAddr
        0x00001230:    b083        ..      SUB      sp,sp,#0xc
        0x00001232:    9001        ..      STR      r0,[sp,#4]
        0x00001234:    4914        .I      LDR      r1,[pc,#80] ; [0x1288] = 0x200004e8
        0x00001236:    2000        .       MOVS     r0,#0
        0x00001238:    6008        .`      STR      r0,[r1,#0]
        0x0000123a:    4914        .I      LDR      r1,[pc,#80] ; [0x128c] = 0x5000c00c
        0x0000123c:    202e        .       MOVS     r0,#0x2e
        0x0000123e:    6008        .`      STR      r0,[r1,#0]
        0x00001240:    9801        ..      LDR      r0,[sp,#4]
        0x00001242:    4913        .I      LDR      r1,[pc,#76] ; [0x1290] = 0x5000c004
        0x00001244:    6008        .`      STR      r0,[r1,#0]
        0x00001246:    4913        .I      LDR      r1,[pc,#76] ; [0x1294] = 0x5000c010
        0x00001248:    2001        .       MOVS     r0,#1
        0x0000124a:    6008        .`      STR      r0,[r1,#0]
        0x0000124c:    4812        .H      LDR      r0,[pc,#72] ; [0x1298] = 0x20000008
        0x0000124e:    6800        .h      LDR      r0,[r0,#0]
        0x00001250:    08c0        ..      LSRS     r0,r0,#3
        0x00001252:    9000        ..      STR      r0,[sp,#0]
        0x00001254:    e7ff        ..      B        0x1256 ; FMC_SetVectorPageAddr + 38
        0x00001256:    480f        .H      LDR      r0,[pc,#60] ; [0x1294] = 0x5000c010
        0x00001258:    6800        .h      LDR      r0,[r0,#0]
        0x0000125a:    2800        .(      CMP      r0,#0
        0x0000125c:    d00d        ..      BEQ      0x127a ; FMC_SetVectorPageAddr + 74
        0x0000125e:    e7ff        ..      B        0x1260 ; FMC_SetVectorPageAddr + 48
        0x00001260:    9800        ..      LDR      r0,[sp,#0]
        0x00001262:    1e40        @.      SUBS     r0,r0,#1
        0x00001264:    9000        ..      STR      r0,[sp,#0]
        0x00001266:    2800        .(      CMP      r0,#0
        0x00001268:    d106        ..      BNE      0x1278 ; FMC_SetVectorPageAddr + 72
        0x0000126a:    e7ff        ..      B        0x126c ; FMC_SetVectorPageAddr + 60
        0x0000126c:    4906        .I      LDR      r1,[pc,#24] ; [0x1288] = 0x200004e8
        0x0000126e:    2000        .       MOVS     r0,#0
        0x00001270:    43c0        .C      MVNS     r0,r0
        0x00001272:    6008        .`      STR      r0,[r1,#0]
        0x00001274:    9002        ..      STR      r0,[sp,#8]
        0x00001276:    e003        ..      B        0x1280 ; FMC_SetVectorPageAddr + 80
        0x00001278:    e7ed        ..      B        0x1256 ; FMC_SetVectorPageAddr + 38
        0x0000127a:    2000        .       MOVS     r0,#0
        0x0000127c:    9002        ..      STR      r0,[sp,#8]
        0x0000127e:    e7ff        ..      B        0x1280 ; FMC_SetVectorPageAddr + 80
        0x00001280:    9802        ..      LDR      r0,[sp,#8]
        0x00001282:    b003        ..      ADD      sp,sp,#0xc
        0x00001284:    4770        pG      BX       lr
        0x00001286:    46c0        .F      MOV      r8,r8
    $d
    __arm_cp.15_0
        0x00001288:    200004e8    ...     DCD    536872168
    __arm_cp.15_1
        0x0000128c:    5000c00c    ...P    DCD    1342226444
    __arm_cp.15_2
        0x00001290:    5000c004    ...P    DCD    1342226436
    __arm_cp.15_3
        0x00001294:    5000c010    ...P    DCD    1342226448
    __arm_cp.15_4
        0x00001298:    20000008    ...     DCD    536870920
    $t
    GPIO_Mode_Init
        0x0000129c:    b5f0        ..      PUSH     {r4-r7,lr}
        0x0000129e:    b087        ..      SUB      sp,sp,#0x1c
        0x000012a0:    494e        NI      LDR      r1,[pc,#312] ; [0x13dc] = 0x50004000
        0x000012a2:    6808        .h      LDR      r0,[r1,#0]
        0x000012a4:    2401        .$      MOVS     r4,#1
        0x000012a6:    9402        ..      STR      r4,[sp,#8]
        0x000012a8:    4320         C      ORRS     r0,r0,r4
        0x000012aa:    2202        ."      MOVS     r2,#2
        0x000012ac:    43d3        .C      MVNS     r3,r2
        0x000012ae:    9300        ..      STR      r3,[sp,#0]
        0x000012b0:    4018        .@      ANDS     r0,r0,r3
        0x000012b2:    6008        .`      STR      r0,[r1,#0]
        0x000012b4:    6808        .h      LDR      r0,[r1,#0]
        0x000012b6:    2204        ."      MOVS     r2,#4
        0x000012b8:    4310        .C      ORRS     r0,r0,r2
        0x000012ba:    2508        .%      MOVS     r5,#8
        0x000012bc:    43ed        .C      MVNS     r5,r5
        0x000012be:    4028        (@      ANDS     r0,r0,r5
        0x000012c0:    6008        .`      STR      r0,[r1,#0]
        0x000012c2:    6808        .h      LDR      r0,[r1,#0]
        0x000012c4:    2610        .&      MOVS     r6,#0x10
        0x000012c6:    9604        ..      STR      r6,[sp,#0x10]
        0x000012c8:    4330        0C      ORRS     r0,r0,r6
        0x000012ca:    2620         &      MOVS     r6,#0x20
        0x000012cc:    43f6        .C      MVNS     r6,r6
        0x000012ce:    9605        ..      STR      r6,[sp,#0x14]
        0x000012d0:    4030        0@      ANDS     r0,r0,r6
        0x000012d2:    6008        .`      STR      r0,[r1,#0]
        0x000012d4:    6808        .h      LDR      r0,[r1,#0]
        0x000012d6:    2740        @'      MOVS     r7,#0x40
        0x000012d8:    4338        8C      ORRS     r0,r0,r7
        0x000012da:    2680        .&      MOVS     r6,#0x80
        0x000012dc:    43f6        .C      MVNS     r6,r6
        0x000012de:    4030        0@      ANDS     r0,r0,r6
        0x000012e0:    6008        .`      STR      r0,[r1,#0]
        0x000012e2:    493f        ?I      LDR      r1,[pc,#252] ; [0x13e0] = 0x50004040
        0x000012e4:    6808        .h      LDR      r0,[r1,#0]
        0x000012e6:    4320         C      ORRS     r0,r0,r4
        0x000012e8:    4018        .@      ANDS     r0,r0,r3
        0x000012ea:    6008        .`      STR      r0,[r1,#0]
        0x000012ec:    6808        .h      LDR      r0,[r1,#0]
        0x000012ee:    4310        .C      ORRS     r0,r0,r2
        0x000012f0:    4028        (@      ANDS     r0,r0,r5
        0x000012f2:    6008        .`      STR      r0,[r1,#0]
        0x000012f4:    6808        .h      LDR      r0,[r1,#0]
        0x000012f6:    2330        0#      MOVS     r3,#0x30
        0x000012f8:    4318        .C      ORRS     r0,r0,r3
        0x000012fa:    6008        .`      STR      r0,[r1,#0]
        0x000012fc:    6808        .h      LDR      r0,[r1,#0]
        0x000012fe:    23c0        .#      MOVS     r3,#0xc0
        0x00001300:    4318        .C      ORRS     r0,r0,r3
        0x00001302:    6008        .`      STR      r0,[r1,#0]
        0x00001304:    6808        .h      LDR      r0,[r1,#0]
        0x00001306:    2303        .#      MOVS     r3,#3
        0x00001308:    9301        ..      STR      r3,[sp,#4]
        0x0000130a:    021b        ..      LSLS     r3,r3,#8
        0x0000130c:    4318        .C      ORRS     r0,r0,r3
        0x0000130e:    9b01        ..      LDR      r3,[sp,#4]
        0x00001310:    6008        .`      STR      r0,[r1,#0]
        0x00001312:    6808        .h      LDR      r0,[r1,#0]
        0x00001314:    029b        ..      LSLS     r3,r3,#10
        0x00001316:    4318        .C      ORRS     r0,r0,r3
        0x00001318:    9b01        ..      LDR      r3,[sp,#4]
        0x0000131a:    6008        .`      STR      r0,[r1,#0]
        0x0000131c:    6808        .h      LDR      r0,[r1,#0]
        0x0000131e:    031b        ..      LSLS     r3,r3,#12
        0x00001320:    4318        .C      ORRS     r0,r0,r3
        0x00001322:    9b01        ..      LDR      r3,[sp,#4]
        0x00001324:    6008        .`      STR      r0,[r1,#0]
        0x00001326:    6808        .h      LDR      r0,[r1,#0]
        0x00001328:    039b        ..      LSLS     r3,r3,#14
        0x0000132a:    4318        .C      ORRS     r0,r0,r3
        0x0000132c:    9b00        ..      LDR      r3,[sp,#0]
        0x0000132e:    6008        .`      STR      r0,[r1,#0]
        0x00001330:    492c        ,I      LDR      r1,[pc,#176] ; [0x13e4] = 0x50004080
        0x00001332:    6808        .h      LDR      r0,[r1,#0]
        0x00001334:    4320         C      ORRS     r0,r0,r4
        0x00001336:    4018        .@      ANDS     r0,r0,r3
        0x00001338:    9b05        ..      LDR      r3,[sp,#0x14]
        0x0000133a:    6008        .`      STR      r0,[r1,#0]
        0x0000133c:    6808        .h      LDR      r0,[r1,#0]
        0x0000133e:    4310        .C      ORRS     r0,r0,r2
        0x00001340:    9a04        ..      LDR      r2,[sp,#0x10]
        0x00001342:    4028        (@      ANDS     r0,r0,r5
        0x00001344:    6008        .`      STR      r0,[r1,#0]
        0x00001346:    6808        .h      LDR      r0,[r1,#0]
        0x00001348:    4d27        'M      LDR      r5,[pc,#156] ; [0x13e8] = 0xfffffcff
        0x0000134a:    4028        (@      ANDS     r0,r0,r5
        0x0000134c:    0224        $.      LSLS     r4,r4,#8
        0x0000134e:    1900        ..      ADDS     r0,r0,r4
        0x00001350:    6008        .`      STR      r0,[r1,#0]
        0x00001352:    4926        &I      LDR      r1,[pc,#152] ; [0x13ec] = 0x500040c0
        0x00001354:    6808        .h      LDR      r0,[r1,#0]
        0x00001356:    4310        .C      ORRS     r0,r0,r2
        0x00001358:    9a02        ..      LDR      r2,[sp,#8]
        0x0000135a:    4018        .@      ANDS     r0,r0,r3
        0x0000135c:    6008        .`      STR      r0,[r1,#0]
        0x0000135e:    6808        .h      LDR      r0,[r1,#0]
        0x00001360:    4338        8C      ORRS     r0,r0,r7
        0x00001362:    4030        0@      ANDS     r0,r0,r6
        0x00001364:    6008        .`      STR      r0,[r1,#0]
        0x00001366:    6808        .h      LDR      r0,[r1,#0]
        0x00001368:    4b21        !K      LDR      r3,[pc,#132] ; [0x13f0] = 0xffff3fff
        0x0000136a:    4018        .@      ANDS     r0,r0,r3
        0x0000136c:    0392        ..      LSLS     r2,r2,#14
        0x0000136e:    1880        ..      ADDS     r0,r0,r2
        0x00001370:    6008        .`      STR      r0,[r1,#0]
        0x00001372:    9902        ..      LDR      r1,[sp,#8]
        0x00001374:    481f        .H      LDR      r0,[pc,#124] ; [0x13f4] = 0x50004100
        0x00001376:    9003        ..      STR      r0,[sp,#0xc]
        0x00001378:    6800        .h      LDR      r0,[r0,#0]
        0x0000137a:    4308        .C      ORRS     r0,r0,r1
        0x0000137c:    9900        ..      LDR      r1,[sp,#0]
        0x0000137e:    4008        .@      ANDS     r0,r0,r1
        0x00001380:    9903        ..      LDR      r1,[sp,#0xc]
        0x00001382:    6008        .`      STR      r0,[r1,#0]
        0x00001384:    9901        ..      LDR      r1,[sp,#4]
        0x00001386:    9803        ..      LDR      r0,[sp,#0xc]
        0x00001388:    6800        .h      LDR      r0,[r0,#0]
        0x0000138a:    0509        ..      LSLS     r1,r1,#20
        0x0000138c:    4388        .C      BICS     r0,r0,r1
        0x0000138e:    9902        ..      LDR      r1,[sp,#8]
        0x00001390:    0509        ..      LSLS     r1,r1,#20
        0x00001392:    1840        @.      ADDS     r0,r0,r1
        0x00001394:    9903        ..      LDR      r1,[sp,#0xc]
        0x00001396:    6008        .`      STR      r0,[r1,#0]
        0x00001398:    9901        ..      LDR      r1,[sp,#4]
        0x0000139a:    9803        ..      LDR      r0,[sp,#0xc]
        0x0000139c:    6800        .h      LDR      r0,[r0,#0]
        0x0000139e:    0589        ..      LSLS     r1,r1,#22
        0x000013a0:    4388        .C      BICS     r0,r0,r1
        0x000013a2:    9902        ..      LDR      r1,[sp,#8]
        0x000013a4:    0589        ..      LSLS     r1,r1,#22
        0x000013a6:    1840        @.      ADDS     r0,r0,r1
        0x000013a8:    9903        ..      LDR      r1,[sp,#0xc]
        0x000013aa:    6008        .`      STR      r0,[r1,#0]
        0x000013ac:    9904        ..      LDR      r1,[sp,#0x10]
        0x000013ae:    4812        .H      LDR      r0,[pc,#72] ; [0x13f8] = 0x50004140
        0x000013b0:    9006        ..      STR      r0,[sp,#0x18]
        0x000013b2:    6800        .h      LDR      r0,[r0,#0]
        0x000013b4:    4308        .C      ORRS     r0,r0,r1
        0x000013b6:    9905        ..      LDR      r1,[sp,#0x14]
        0x000013b8:    4008        .@      ANDS     r0,r0,r1
        0x000013ba:    9906        ..      LDR      r1,[sp,#0x18]
        0x000013bc:    6008        .`      STR      r0,[r1,#0]
        0x000013be:    6808        .h      LDR      r0,[r1,#0]
        0x000013c0:    4338        8C      ORRS     r0,r0,r7
        0x000013c2:    4030        0@      ANDS     r0,r0,r6
        0x000013c4:    6008        .`      STR      r0,[r1,#0]
        0x000013c6:    6808        .h      LDR      r0,[r1,#0]
        0x000013c8:    4028        (@      ANDS     r0,r0,r5
        0x000013ca:    1900        ..      ADDS     r0,r0,r4
        0x000013cc:    6008        .`      STR      r0,[r1,#0]
        0x000013ce:    6808        .h      LDR      r0,[r1,#0]
        0x000013d0:    4018        .@      ANDS     r0,r0,r3
        0x000013d2:    1880        ..      ADDS     r0,r0,r2
        0x000013d4:    6008        .`      STR      r0,[r1,#0]
        0x000013d6:    b007        ..      ADD      sp,sp,#0x1c
        0x000013d8:    bdf0        ..      POP      {r4-r7,pc}
        0x000013da:    46c0        .F      MOV      r8,r8
    $d
    __arm_cp.16_0
        0x000013dc:    50004000    .@.P    DCD    1342193664
    __arm_cp.16_1
        0x000013e0:    50004040    @@.P    DCD    1342193728
    __arm_cp.16_2
        0x000013e4:    50004080    .@.P    DCD    1342193792
    __arm_cp.16_3
        0x000013e8:    fffffcff    ....    DCD    4294966527
    __arm_cp.16_4
        0x000013ec:    500040c0    .@.P    DCD    1342193856
    __arm_cp.16_5
        0x000013f0:    ffff3fff    .?..    DCD    4294918143
    __arm_cp.16_6
        0x000013f4:    50004100    .A.P    DCD    1342193920
    __arm_cp.16_7
        0x000013f8:    50004140    @A.P    DCD    1342193984
    $t
    GetHostRTC
        0x000013fc:    b580        ..      PUSH     {r7,lr}
        0x000013fe:    b092        ..      SUB      sp,sp,#0x48
        0x00001400:    a90e        ..      ADD      r1,sp,#0x38
        0x00001402:    2000        .       MOVS     r0,#0
        0x00001404:    7008        .p      STRB     r0,[r1,#0]
        0x00001406:    e7ff        ..      B        0x1408 ; GetHostRTC + 12
        0x00001408:    a80e        ..      ADD      r0,sp,#0x38
        0x0000140a:    7800        .x      LDRB     r0,[r0,#0]
        0x0000140c:    2806        .(      CMP      r0,#6
        0x0000140e:    dc0e        ..      BGT      0x142e ; GetHostRTC + 50
        0x00001410:    e7ff        ..      B        0x1412 ; GetHostRTC + 22
        0x00001412:    a80e        ..      ADD      r0,sp,#0x38
        0x00001414:    7802        .x      LDRB     r2,[r0,#0]
        0x00001416:    48ec        .H      LDR      r0,[pc,#944] ; [0x17c8] = 0x200003aa
        0x00001418:    1810        ..      ADDS     r0,r2,r0
        0x0000141a:    215a        Z!      MOVS     r1,#0x5a
        0x0000141c:    5c40        @\      LDRB     r0,[r0,r1]
        0x0000141e:    493d        =I      LDR      r1,[pc,#244] ; [0x1514] = 0x20000169
        0x00001420:    5488        .T      STRB     r0,[r1,r2]
        0x00001422:    e7ff        ..      B        0x1424 ; GetHostRTC + 40
        0x00001424:    980e        ..      LDR      r0,[sp,#0x38]
        0x00001426:    1c40        @.      ADDS     r0,r0,#1
        0x00001428:    a90e        ..      ADD      r1,sp,#0x38
        0x0000142a:    7008        .p      STRB     r0,[r1,#0]
        0x0000142c:    e7ec        ..      B        0x1408 ; GetHostRTC + 12
        0x0000142e:    4a39        9J      LDR      r2,[pc,#228] ; [0x1514] = 0x20000169
        0x00001430:    78d3        .x      LDRB     r3,[r2,#3]
        0x00001432:    213c        <!      MOVS     r1,#0x3c
        0x00001434:    4608        .F      MOV      r0,r1
        0x00001436:    4358        XC      MULS     r0,r3,r0
        0x00001438:    7912        .y      LDRB     r2,[r2,#4]
        0x0000143a:    1882        ..      ADDS     r2,r0,r2
        0x0000143c:    a811        ..      ADD      r0,sp,#0x44
        0x0000143e:    8002        ..      STRH     r2,[r0,#0]
        0x00001440:    4a35        5J      LDR      r2,[pc,#212] ; [0x1518] = 0x20000076
        0x00001442:    78d3        .x      LDRB     r3,[r2,#3]
        0x00001444:    4359        YC      MULS     r1,r3,r1
        0x00001446:    7912        .y      LDRB     r2,[r2,#4]
        0x00001448:    188a        ..      ADDS     r2,r1,r2
        0x0000144a:    a910        ..      ADD      r1,sp,#0x40
        0x0000144c:    800a        ..      STRH     r2,[r1,#0]
        0x0000144e:    8800        ..      LDRH     r0,[r0,#0]
        0x00001450:    8809        ..      LDRH     r1,[r1,#0]
        0x00001452:    1a40        @.      SUBS     r0,r0,r1
        0x00001454:    17c1        ..      ASRS     r1,r0,#31
        0x00001456:    4048        H@      EORS     r0,r0,r1
        0x00001458:    1a41        A.      SUBS     r1,r0,r1
        0x0000145a:    a80f        ..      ADD      r0,sp,#0x3c
        0x0000145c:    8001        ..      STRH     r1,[r0,#0]
        0x0000145e:    8800        ..      LDRH     r0,[r0,#0]
        0x00001460:    2804        .(      CMP      r0,#4
        0x00001462:    db55        U.      BLT      0x1510 ; GetHostRTC + 276
        0x00001464:    e7ff        ..      B        0x1466 ; GetHostRTC + 106
        0x00001466:    a90d        ..      ADD      r1,sp,#0x34
        0x00001468:    2000        .       MOVS     r0,#0
        0x0000146a:    7008        .p      STRB     r0,[r1,#0]
        0x0000146c:    e7ff        ..      B        0x146e ; GetHostRTC + 114
        0x0000146e:    a80d        ..      ADD      r0,sp,#0x34
        0x00001470:    7800        .x      LDRB     r0,[r0,#0]
        0x00001472:    2806        .(      CMP      r0,#6
        0x00001474:    dc0c        ..      BGT      0x1490 ; GetHostRTC + 148
        0x00001476:    e7ff        ..      B        0x1478 ; GetHostRTC + 124
        0x00001478:    a80d        ..      ADD      r0,sp,#0x34
        0x0000147a:    7802        .x      LDRB     r2,[r0,#0]
        0x0000147c:    4825        %H      LDR      r0,[pc,#148] ; [0x1514] = 0x20000169
        0x0000147e:    5c80        .\      LDRB     r0,[r0,r2]
        0x00001480:    4925        %I      LDR      r1,[pc,#148] ; [0x1518] = 0x20000076
        0x00001482:    5488        .T      STRB     r0,[r1,r2]
        0x00001484:    e7ff        ..      B        0x1486 ; GetHostRTC + 138
        0x00001486:    980d        ..      LDR      r0,[sp,#0x34]
        0x00001488:    1c40        @.      ADDS     r0,r0,#1
        0x0000148a:    a90d        ..      ADD      r1,sp,#0x34
        0x0000148c:    7008        .p      STRB     r0,[r1,#0]
        0x0000148e:    e7ee        ..      B        0x146e ; GetHostRTC + 114
        0x00001490:    4822        "H      LDR      r0,[pc,#136] ; [0x151c] = 0x1e810
        0x00001492:    9003        ..      STR      r0,[sp,#0xc]
        0x00001494:    900c        ..      STR      r0,[sp,#0x30]
        0x00001496:    4820         H      LDR      r0,[pc,#128] ; [0x1518] = 0x20000076
        0x00001498:    9000        ..      STR      r0,[sp,#0]
        0x0000149a:    7902        .y      LDRB     r2,[r0,#4]
        0x0000149c:    7941        Ay      LDRB     r1,[r0,#5]
        0x0000149e:    0209        ..      LSLS     r1,r1,#8
        0x000014a0:    188a        ..      ADDS     r2,r1,r2
        0x000014a2:    7981        .y      LDRB     r1,[r0,#6]
        0x000014a4:    040b        ..      LSLS     r3,r1,#16
        0x000014a6:    79c1        .y      LDRB     r1,[r0,#7]
        0x000014a8:    0609        ..      LSLS     r1,r1,#24
        0x000014aa:    18c9        ..      ADDS     r1,r1,r3
        0x000014ac:    1889        ..      ADDS     r1,r1,r2
        0x000014ae:    910b        ..      STR      r1,[sp,#0x2c]
        0x000014b0:    7802        .x      LDRB     r2,[r0,#0]
        0x000014b2:    7841        Ax      LDRB     r1,[r0,#1]
        0x000014b4:    0209        ..      LSLS     r1,r1,#8
        0x000014b6:    1889        ..      ADDS     r1,r1,r2
        0x000014b8:    7882        .x      LDRB     r2,[r0,#2]
        0x000014ba:    0412        ..      LSLS     r2,r2,#16
        0x000014bc:    78c0        .x      LDRB     r0,[r0,#3]
        0x000014be:    0600        ..      LSLS     r0,r0,#24
        0x000014c0:    1880        ..      ADDS     r0,r0,r2
        0x000014c2:    1840        @.      ADDS     r0,r0,r1
        0x000014c4:    900a        ..      STR      r0,[sp,#0x28]
        0x000014c6:    f001ff3d    ..=.    BL       SYS_UnlockReg ; 0x3344
        0x000014ca:    f7fffe0f    ....    BL       FMC_Open ; 0x10ec
        0x000014ce:    9a0c        ..      LDR      r2,[sp,#0x30]
        0x000014d0:    203d        =       MOVS     r0,#0x3d
        0x000014d2:    02c1        ..      LSLS     r1,r0,#11
        0x000014d4:    9102        ..      STR      r1,[sp,#8]
        0x000014d6:    2000        .       MOVS     r0,#0
        0x000014d8:    9001        ..      STR      r0,[sp,#4]
        0x000014da:    ab06        ..      ADD      r3,sp,#0x18
        0x000014dc:    9304        ..      STR      r3,[sp,#0x10]
        0x000014de:    f7fffe0b    ....    BL       FMC_Proc ; 0x10f8
        0x000014e2:    9b01        ..      LDR      r3,[sp,#4]
        0x000014e4:    9902        ..      LDR      r1,[sp,#8]
        0x000014e6:    2022        "       MOVS     r0,#0x22
        0x000014e8:    4a0d        .J      LDR      r2,[pc,#52] ; [0x1520] = 0x1e804
        0x000014ea:    f7fffe05    ....    BL       FMC_Proc ; 0x10f8
        0x000014ee:    9902        ..      LDR      r1,[sp,#8]
        0x000014f0:    9a03        ..      LDR      r2,[sp,#0xc]
        0x000014f2:    9b04        ..      LDR      r3,[sp,#0x10]
        0x000014f4:    2021        !       MOVS     r0,#0x21
        0x000014f6:    9005        ..      STR      r0,[sp,#0x14]
        0x000014f8:    f7fffdfe    ....    BL       FMC_Proc ; 0x10f8
        0x000014fc:    9805        ..      LDR      r0,[sp,#0x14]
        0x000014fe:    990c        ..      LDR      r1,[sp,#0x30]
        0x00001500:    460a        .F      MOV      r2,r1
        0x00001502:    3208        .2      ADDS     r2,r2,#8
        0x00001504:    ab0a        ..      ADD      r3,sp,#0x28
        0x00001506:    f7fffdf7    ....    BL       FMC_Proc ; 0x10f8
        0x0000150a:    f001fedf    ....    BL       SYS_LockReg ; 0x32cc
        0x0000150e:    e7ff        ..      B        0x1510 ; GetHostRTC + 276
        0x00001510:    b012        ..      ADD      sp,sp,#0x48
        0x00001512:    bd80        ..      POP      {r7,pc}
    $d
    __arm_cp.1_0
        0x00001514:    20000169    i..     DCD    536871273
    __arm_cp.1_1
        0x00001518:    20000076    v..     DCD    536871030
    __arm_cp.1_2
        0x0000151c:    0001e810    ....    DCD    124944
    __arm_cp.1_3
        0x00001520:    0001e804    ....    DCD    124932
    $t
    HOST_AliveProcess
        0x00001524:    b580        ..      PUSH     {r7,lr}
        0x00001526:    f7ffff69    ..i.    BL       GetHostRTC ; 0x13fc
        0x0000152a:    bd80        ..      POP      {r7,pc}
    HostProcess
        0x0000152c:    b580        ..      PUSH     {r7,lr}
        0x0000152e:    b084        ..      SUB      sp,sp,#0x10
        0x00001530:    4884        .H      LDR      r0,[pc,#528] ; [0x1744] = 0x200003a1
        0x00001532:    7800        .x      LDRB     r0,[r0,#0]
        0x00001534:    2831        1(      CMP      r0,#0x31
        0x00001536:    d107        ..      BNE      0x1548 ; HostProcess + 28
        0x00001538:    e7ff        ..      B        0x153a ; HostProcess + 14
        0x0000153a:    4982        .I      LDR      r1,[pc,#520] ; [0x1744] = 0x200003a1
        0x0000153c:    7808        .x      LDRB     r0,[r1,#0]
        0x0000153e:    1c40        @.      ADDS     r0,r0,#1
        0x00001540:    7008        .p      STRB     r0,[r1,#0]
        0x00001542:    f001fdd7    ....    BL       ResetHostUART ; 0x30f4
        0x00001546:    e7ff        ..      B        0x1548 ; HostProcess + 28
        0x00001548:    487f        .H      LDR      r0,[pc,#508] ; [0x1748] = 0x20000171
        0x0000154a:    7800        .x      LDRB     r0,[r0,#0]
        0x0000154c:    2800        .(      CMP      r0,#0
        0x0000154e:    d100        ..      BNE      0x1552 ; HostProcess + 38
        0x00001550:    e0aa        ..      B        0x16a8 ; HostProcess + 380
        0x00001552:    497d        }I      LDR      r1,[pc,#500] ; [0x1748] = 0x20000171
        0x00001554:    2000        .       MOVS     r0,#0
        0x00001556:    7008        .p      STRB     r0,[r1,#0]
        0x00001558:    a902        ..      ADD      r1,sp,#8
        0x0000155a:    7008        .p      STRB     r0,[r1,#0]
        0x0000155c:    a903        ..      ADD      r1,sp,#0xc
        0x0000155e:    2001        .       MOVS     r0,#1
        0x00001560:    7008        .p      STRB     r0,[r1,#0]
        0x00001562:    e7ff        ..      B        0x1564 ; HostProcess + 56
        0x00001564:    a803        ..      ADD      r0,sp,#0xc
        0x00001566:    7800        .x      LDRB     r0,[r0,#0]
        0x00001568:    2861        a(      CMP      r0,#0x61
        0x0000156a:    dc0e        ..      BGT      0x158a ; HostProcess + 94
        0x0000156c:    e7ff        ..      B        0x156e ; HostProcess + 66
        0x0000156e:    a803        ..      ADD      r0,sp,#0xc
        0x00001570:    7801        .x      LDRB     r1,[r0,#0]
        0x00001572:    48e7        .H      LDR      r0,[pc,#924] ; [0x1910] = 0x200003aa
        0x00001574:    5c41        A\      LDRB     r1,[r0,r1]
        0x00001576:    9802        ..      LDR      r0,[sp,#8]
        0x00001578:    1840        @.      ADDS     r0,r0,r1
        0x0000157a:    a902        ..      ADD      r1,sp,#8
        0x0000157c:    7008        .p      STRB     r0,[r1,#0]
        0x0000157e:    e7ff        ..      B        0x1580 ; HostProcess + 84
        0x00001580:    9803        ..      LDR      r0,[sp,#0xc]
        0x00001582:    1c40        @.      ADDS     r0,r0,#1
        0x00001584:    a903        ..      ADD      r1,sp,#0xc
        0x00001586:    7008        .p      STRB     r0,[r1,#0]
        0x00001588:    e7ec        ..      B        0x1564 ; HostProcess + 56
        0x0000158a:    48e1        .H      LDR      r0,[pc,#900] ; [0x1910] = 0x200003aa
        0x0000158c:    7800        .x      LDRB     r0,[r0,#0]
        0x0000158e:    2855        U(      CMP      r0,#0x55
        0x00001590:    d000        ..      BEQ      0x1594 ; HostProcess + 104
        0x00001592:    e085        ..      B        0x16a0 ; HostProcess + 372
        0x00001594:    48de        .H      LDR      r0,[pc,#888] ; [0x1910] = 0x200003aa
        0x00001596:    2162        b!      MOVS     r1,#0x62
        0x00001598:    5c40        @\      LDRB     r0,[r0,r1]
        0x0000159a:    a902        ..      ADD      r1,sp,#8
        0x0000159c:    7809        .x      LDRB     r1,[r1,#0]
        0x0000159e:    4288        .B      CMP      r0,r1
        0x000015a0:    d17e        ~.      BNE      0x16a0 ; HostProcess + 372
        0x000015a2:    e7ff        ..      B        0x15a4 ; HostProcess + 120
        0x000015a4:    48da        .H      LDR      r0,[pc,#872] ; [0x1910] = 0x200003aa
        0x000015a6:    7880        .x      LDRB     r0,[r0,#2]
        0x000015a8:    2810        .(      CMP      r0,#0x10
        0x000015aa:    d108        ..      BNE      0x15be ; HostProcess + 146
        0x000015ac:    e7ff        ..      B        0x15ae ; HostProcess + 130
        0x000015ae:    f7ffff25    ..%.    BL       GetHostRTC ; 0x13fc
        0x000015b2:    4966        fI      LDR      r1,[pc,#408] ; [0x174c] = 0x20000398
        0x000015b4:    7808        .x      LDRB     r0,[r1,#0]
        0x000015b6:    2202        ."      MOVS     r2,#2
        0x000015b8:    4310        .C      ORRS     r0,r0,r2
        0x000015ba:    7008        .p      STRB     r0,[r1,#0]
        0x000015bc:    e7ff        ..      B        0x15be ; HostProcess + 146
        0x000015be:    48d4        .H      LDR      r0,[pc,#848] ; [0x1910] = 0x200003aa
        0x000015c0:    7841        Ax      LDRB     r1,[r0,#1]
        0x000015c2:    4863        cH      LDR      r0,[pc,#396] ; [0x1750] = 0x20000074
        0x000015c4:    7001        .p      STRB     r1,[r0,#0]
        0x000015c6:    7800        .x      LDRB     r0,[r0,#0]
        0x000015c8:    4962        bI      LDR      r1,[pc,#392] ; [0x1754] = 0x2000037b
        0x000015ca:    7809        .x      LDRB     r1,[r1,#0]
        0x000015cc:    4288        .B      CMP      r0,r1
        0x000015ce:    d005        ..      BEQ      0x15dc ; HostProcess + 176
        0x000015d0:    e7ff        ..      B        0x15d2 ; HostProcess + 166
        0x000015d2:    485f        _H      LDR      r0,[pc,#380] ; [0x1750] = 0x20000074
        0x000015d4:    7800        .x      LDRB     r0,[r0,#0]
        0x000015d6:    28ff        .(      CMP      r0,#0xff
        0x000015d8:    d161        a.      BNE      0x169e ; HostProcess + 370
        0x000015da:    e7ff        ..      B        0x15dc ; HostProcess + 176
        0x000015dc:    485e        ^H      LDR      r0,[pc,#376] ; [0x1758] = 0x200004e3
        0x000015de:    7800        .x      LDRB     r0,[r0,#0]
        0x000015e0:    2800        .(      CMP      r0,#0
        0x000015e2:    d006        ..      BEQ      0x15f2 ; HostProcess + 198
        0x000015e4:    e7ff        ..      B        0x15e6 ; HostProcess + 186
        0x000015e6:    495c        \I      LDR      r1,[pc,#368] ; [0x1758] = 0x200004e3
        0x000015e8:    2000        .       MOVS     r0,#0
        0x000015ea:    7008        .p      STRB     r0,[r1,#0]
        0x000015ec:    f002f8b4    ....    BL       SendHost_FirstReset_Ack ; 0x3758
        0x000015f0:    e0a6        ..      B        0x1740 ; HostProcess + 532
        0x000015f2:    495a        ZI      LDR      r1,[pc,#360] ; [0x175c] = 0x50004348
        0x000015f4:    6808        .h      LDR      r0,[r1,#0]
        0x000015f6:    2201        ."      MOVS     r2,#1
        0x000015f8:    4050        P@      EORS     r0,r0,r2
        0x000015fa:    6008        .`      STR      r0,[r1,#0]
        0x000015fc:    48c4        .H      LDR      r0,[pc,#784] ; [0x1910] = 0x200003aa
        0x000015fe:    7880        .x      LDRB     r0,[r0,#2]
        0x00001600:    3810        .8      SUBS     r0,r0,#0x10
        0x00001602:    9001        ..      STR      r0,[sp,#4]
        0x00001604:    2807        .(      CMP      r0,#7
        0x00001606:    d848        H.      BHI      0x169a ; HostProcess + 366
        0x00001608:    9801        ..      LDR      r0,[sp,#4]
        0x0000160a:    0081        ..      LSLS     r1,r0,#2
        0x0000160c:    a001        ..      ADR      r0,{pc}+8 ; 0x1614
        0x0000160e:    5840        @X      LDR      r0,[r0,r1]
        0x00001610:    4687        .F      MOV      pc,r0
        0x00001612:    46c0        .F      MOV      r8,r8
    $d
        0x00001614:    00001635    5...    DCD    5685
        0x00001618:    00001645    E...    DCD    5701
        0x0000161c:    00001655    U...    DCD    5717
        0x00001620:    00001665    e...    DCD    5733
        0x00001624:    00001675    u...    DCD    5749
        0x00001628:    00001685    ....    DCD    5765
        0x0000162c:    0000168f    ....    DCD    5775
        0x00001630:    00001695    ....    DCD    5781
    $t
        0x00001634:    f7ffff76    ..v.    BL       HOST_AliveProcess ; 0x1524
        0x00001638:    4949        II      LDR      r1,[pc,#292] ; [0x1760] = 0x20000075
        0x0000163a:    2031        1       MOVS     r0,#0x31
        0x0000163c:    7008        .p      STRB     r0,[r1,#0]
        0x0000163e:    f7fffcf5    ....    BL       ClearRespDelayTimer ; 0x102c
        0x00001642:    e02b        +.      B        0x169c ; HostProcess + 368
        0x00001644:    f000f93a    ..:.    BL       Host_PowerMeterDataProcess ; 0x18bc
        0x00001648:    4945        EI      LDR      r1,[pc,#276] ; [0x1760] = 0x20000075
        0x0000164a:    2032        2       MOVS     r0,#0x32
        0x0000164c:    7008        .p      STRB     r0,[r1,#0]
        0x0000164e:    f7fffced    ....    BL       ClearRespDelayTimer ; 0x102c
        0x00001652:    e023        #.      B        0x169c ; HostProcess + 368
        0x00001654:    f000f88e    ....    BL       Host_BmsDataProcess ; 0x1774
        0x00001658:    4941        AI      LDR      r1,[pc,#260] ; [0x1760] = 0x20000075
        0x0000165a:    2035        5       MOVS     r0,#0x35
        0x0000165c:    7008        .p      STRB     r0,[r1,#0]
        0x0000165e:    f7fffce5    ....    BL       ClearRespDelayTimer ; 0x102c
        0x00001662:    e01b        ..      B        0x169c ; HostProcess + 368
        0x00001664:    f000f940    ..@.    BL       Host_WMDataProcess ; 0x18e8
        0x00001668:    493d        =I      LDR      r1,[pc,#244] ; [0x1760] = 0x20000075
        0x0000166a:    2036        6       MOVS     r0,#0x36
        0x0000166c:    7008        .p      STRB     r0,[r1,#0]
        0x0000166e:    f7fffcdd    ....    BL       ClearRespDelayTimer ; 0x102c
        0x00001672:    e013        ..      B        0x169c ; HostProcess + 368
        0x00001674:    f000f894    ....    BL       Host_InvDataProcess ; 0x17a0
        0x00001678:    4939        9I      LDR      r1,[pc,#228] ; [0x1760] = 0x20000075
        0x0000167a:    2037        7       MOVS     r0,#0x37
        0x0000167c:    7008        .p      STRB     r0,[r1,#0]
        0x0000167e:    f7fffcd5    ....    BL       ClearRespDelayTimer ; 0x102c
        0x00001682:    e00b        ..      B        0x169c ; HostProcess + 368
        0x00001684:    f000f8a4    ....    BL       Host_OTACenterProcess ; 0x17d0
        0x00001688:    f7fffcd0    ....    BL       ClearRespDelayTimer ; 0x102c
        0x0000168c:    e006        ..      B        0x169c ; HostProcess + 368
        0x0000168e:    f000f8df    ....    BL       Host_OTAMeterProcess ; 0x1850
        0x00001692:    e003        ..      B        0x169c ; HostProcess + 368
        0x00001694:    f7fffcca    ....    BL       ClearRespDelayTimer ; 0x102c
        0x00001698:    e7ff        ..      B        0x169a ; HostProcess + 366
        0x0000169a:    e7ff        ..      B        0x169c ; HostProcess + 368
        0x0000169c:    e7ff        ..      B        0x169e ; HostProcess + 370
        0x0000169e:    e002        ..      B        0x16a6 ; HostProcess + 378
        0x000016a0:    f001fd28    ..(.    BL       ResetHostUART ; 0x30f4
        0x000016a4:    e7ff        ..      B        0x16a6 ; HostProcess + 378
        0x000016a6:    e7ff        ..      B        0x16a8 ; HostProcess + 380
        0x000016a8:    482e        .H      LDR      r0,[pc,#184] ; [0x1764] = 0x200004e0
        0x000016aa:    7800        .x      LDRB     r0,[r0,#0]
        0x000016ac:    2800        .(      CMP      r0,#0
        0x000016ae:    d047        G.      BEQ      0x1740 ; HostProcess + 532
        0x000016b0:    e7ff        ..      B        0x16b2 ; HostProcess + 390
        0x000016b2:    482d        -H      LDR      r0,[pc,#180] ; [0x1768] = 0x20000504
        0x000016b4:    7800        .x      LDRB     r0,[r0,#0]
        0x000016b6:    492d        -I      LDR      r1,[pc,#180] ; [0x176c] = 0x20000484
        0x000016b8:    7809        .x      LDRB     r1,[r1,#0]
        0x000016ba:    4288        .B      CMP      r0,r1
        0x000016bc:    dd3f        ?.      BLE      0x173e ; HostProcess + 530
        0x000016be:    e7ff        ..      B        0x16c0 ; HostProcess + 404
        0x000016c0:    4928        (I      LDR      r1,[pc,#160] ; [0x1764] = 0x200004e0
        0x000016c2:    2000        .       MOVS     r0,#0
        0x000016c4:    7008        .p      STRB     r0,[r1,#0]
        0x000016c6:    4822        "H      LDR      r0,[pc,#136] ; [0x1750] = 0x20000074
        0x000016c8:    7800        .x      LDRB     r0,[r0,#0]
        0x000016ca:    4922        "I      LDR      r1,[pc,#136] ; [0x1754] = 0x2000037b
        0x000016cc:    7809        .x      LDRB     r1,[r1,#0]
        0x000016ce:    4288        .B      CMP      r0,r1
        0x000016d0:    d134        4.      BNE      0x173c ; HostProcess + 528
        0x000016d2:    e7ff        ..      B        0x16d4 ; HostProcess + 424
        0x000016d4:    481f        .H      LDR      r0,[pc,#124] ; [0x1754] = 0x2000037b
        0x000016d6:    7800        .x      LDRB     r0,[r0,#0]
        0x000016d8:    4925        %I      LDR      r1,[pc,#148] ; [0x1770] = 0x20000172
        0x000016da:    7048        Hp      STRB     r0,[r1,#1]
        0x000016dc:    4820         H      LDR      r0,[pc,#128] ; [0x1760] = 0x20000075
        0x000016de:    7800        .x      LDRB     r0,[r0,#0]
        0x000016e0:    3830        08      SUBS     r0,r0,#0x30
        0x000016e2:    9000        ..      STR      r0,[sp,#0]
        0x000016e4:    2807        .(      CMP      r0,#7
        0x000016e6:    d827        '.      BHI      0x1738 ; HostProcess + 524
        0x000016e8:    9800        ..      LDR      r0,[sp,#0]
        0x000016ea:    0081        ..      LSLS     r1,r0,#2
        0x000016ec:    a001        ..      ADR      r0,{pc}+8 ; 0x16f4
        0x000016ee:    5840        @X      LDR      r0,[r0,r1]
        0x000016f0:    4687        .F      MOV      pc,r0
        0x000016f2:    46c0        .F      MOV      r8,r8
    $d
        0x000016f4:    0000171b    ....    DCD    5915
        0x000016f8:    00001715    ....    DCD    5909
        0x000016fc:    00001721    !...    DCD    5921
        0x00001700:    00001739    9...    DCD    5945
        0x00001704:    00001739    9...    DCD    5945
        0x00001708:    00001727    '...    DCD    5927
        0x0000170c:    0000172d    -...    DCD    5933
        0x00001710:    00001733    3...    DCD    5939
    $t
        0x00001714:    f002fa22    ..".    BL       SendHost_SystemInformation ; 0x3b5c
        0x00001718:    e00f        ..      B        0x173a ; HostProcess + 526
        0x0000171a:    f001fe77    ..w.    BL       SendHost_Ack ; 0x340c
        0x0000171e:    e00c        ..      B        0x173a ; HostProcess + 526
        0x00001720:    f002f9c6    ....    BL       SendHost_PowerData ; 0x3ab0
        0x00001724:    e009        ..      B        0x173a ; HostProcess + 526
        0x00001726:    f001fe7d    ..}.    BL       SendHost_BmsData ; 0x3424
        0x0000172a:    e006        ..      B        0x173a ; HostProcess + 526
        0x0000172c:    f002fa52    ..R.    BL       SendHost_WMData ; 0x3bd4
        0x00001730:    e003        ..      B        0x173a ; HostProcess + 526
        0x00001732:    f002f81f    ....    BL       SendHost_InvData ; 0x3774
        0x00001736:    e000        ..      B        0x173a ; HostProcess + 526
        0x00001738:    e7ff        ..      B        0x173a ; HostProcess + 526
        0x0000173a:    e7ff        ..      B        0x173c ; HostProcess + 528
        0x0000173c:    e7ff        ..      B        0x173e ; HostProcess + 530
        0x0000173e:    e7ff        ..      B        0x1740 ; HostProcess + 532
        0x00001740:    b004        ..      ADD      sp,sp,#0x10
        0x00001742:    bd80        ..      POP      {r7,pc}
    $d
    __arm_cp.0_0
        0x00001744:    200003a1    ...     DCD    536871841
    __arm_cp.0_1
        0x00001748:    20000171    q..     DCD    536871281
    __arm_cp.0_3
        0x0000174c:    20000398    ...     DCD    536871832
    __arm_cp.0_4
        0x00001750:    20000074    t..     DCD    536871028
    __arm_cp.0_5
        0x00001754:    2000037b    {..     DCD    536871803
    __arm_cp.0_6
        0x00001758:    200004e3    ...     DCD    536872163
    __arm_cp.0_7
        0x0000175c:    50004348    HC.P    DCD    1342194504
    __arm_cp.0_8
        0x00001760:    20000075    u..     DCD    536871029
    __arm_cp.0_9
        0x00001764:    200004e0    ...     DCD    536872160
    __arm_cp.0_10
        0x00001768:    20000504    ...     DCD    536872196
    __arm_cp.0_11
        0x0000176c:    20000484    ...     DCD    536872068
    __arm_cp.0_12
        0x00001770:    20000172    r..     DCD    536871282
    $t
    Host_BmsDataProcess
        0x00001774:    b580        ..      PUSH     {r7,lr}
        0x00001776:    4866        fH      LDR      r0,[pc,#408] ; [0x1910] = 0x200003aa
        0x00001778:    78c2        .x      LDRB     r2,[r0,#3]
        0x0000177a:    4966        fI      LDR      r1,[pc,#408] ; [0x1914] = 0x20000168
        0x0000177c:    700a        .p      STRB     r2,[r1,#0]
        0x0000177e:    7903        .y      LDRB     r3,[r0,#4]
        0x00001780:    4a65        eJ      LDR      r2,[pc,#404] ; [0x1918] = 0x20000167
        0x00001782:    7013        .p      STRB     r3,[r2,#0]
        0x00001784:    7940        @y      LDRB     r0,[r0,#5]
        0x00001786:    7809        .x      LDRB     r1,[r1,#0]
        0x00001788:    4b04        .K      LDR      r3,[pc,#16] ; [0x179c] = 0x20000028
        0x0000178a:    18c9        ..      ADDS     r1,r1,r3
        0x0000178c:    7812        .x      LDRB     r2,[r2,#0]
        0x0000178e:    1889        ..      ADDS     r1,r1,r2
        0x00001790:    1e89        ..      SUBS     r1,r1,#2
        0x00001792:    7008        .p      STRB     r0,[r1,#0]
        0x00001794:    f7fffe32    ..2.    BL       GetHostRTC ; 0x13fc
        0x00001798:    bd80        ..      POP      {r7,pc}
        0x0000179a:    46c0        .F      MOV      r8,r8
    $d
    __arm_cp.6_3
        0x0000179c:    20000028    (..     DCD    536870952
    $t
    Host_InvDataProcess
        0x000017a0:    b580        ..      PUSH     {r7,lr}
        0x000017a2:    485b        [H      LDR      r0,[pc,#364] ; [0x1910] = 0x200003aa
        0x000017a4:    78c2        .x      LDRB     r2,[r0,#3]
        0x000017a6:    495b        [I      LDR      r1,[pc,#364] ; [0x1914] = 0x20000168
        0x000017a8:    700a        .p      STRB     r2,[r1,#0]
        0x000017aa:    7903        .y      LDRB     r3,[r0,#4]
        0x000017ac:    4a5a        ZJ      LDR      r2,[pc,#360] ; [0x1918] = 0x20000167
        0x000017ae:    7013        .p      STRB     r3,[r2,#0]
        0x000017b0:    7940        @y      LDRB     r0,[r0,#5]
        0x000017b2:    7809        .x      LDRB     r1,[r1,#0]
        0x000017b4:    4b05        .K      LDR      r3,[pc,#20] ; [0x17cc] = 0x200001d6
        0x000017b6:    18c9        ..      ADDS     r1,r1,r3
        0x000017b8:    7812        .x      LDRB     r2,[r2,#0]
        0x000017ba:    1889        ..      ADDS     r1,r1,r2
        0x000017bc:    1e89        ..      SUBS     r1,r1,#2
        0x000017be:    7008        .p      STRB     r0,[r1,#0]
        0x000017c0:    f7fffe1c    ....    BL       GetHostRTC ; 0x13fc
        0x000017c4:    bd80        ..      POP      {r7,pc}
        0x000017c6:    46c0        .F      MOV      r8,r8
    $d
    __arm_cp.8_0
        0x000017c8:    200003aa    ...     DCD    536871850
    __arm_cp.8_3
        0x000017cc:    200001d6    ...     DCD    536871382
    $t
    Host_OTACenterProcess
        0x000017d0:    b580        ..      PUSH     {r7,lr}
        0x000017d2:    b082        ..      SUB      sp,sp,#8
        0x000017d4:    f001fdb6    ....    BL       SYS_UnlockReg ; 0x3344
        0x000017d8:    f7fffc88    ....    BL       FMC_Open ; 0x10ec
        0x000017dc:    f7fffe0e    ....    BL       GetHostRTC ; 0x13fc
        0x000017e0:    484b        KH      LDR      r0,[pc,#300] ; [0x1910] = 0x200003aa
        0x000017e2:    78c0        .x      LDRB     r0,[r0,#3]
        0x000017e4:    3840        @8      SUBS     r0,r0,#0x40
        0x000017e6:    9001        ..      STR      r0,[sp,#4]
        0x000017e8:    2803        .(      CMP      r0,#3
        0x000017ea:    d82b        +.      BHI      0x1844 ; Host_OTACenterProcess + 116
        0x000017ec:    9801        ..      LDR      r0,[sp,#4]
        0x000017ee:    0081        ..      LSLS     r1,r0,#2
        0x000017f0:    a001        ..      ADR      r0,{pc}+8 ; 0x17f8
        0x000017f2:    5840        @X      LDR      r0,[r0,r1]
        0x000017f4:    4687        .F      MOV      pc,r0
        0x000017f6:    46c0        .F      MOV      r8,r8
    $d
        0x000017f8:    00001825    %...    DCD    6181
        0x000017fc:    0000180f    ....    DCD    6159
        0x00001800:    00001809    ....    DCD    6153
        0x00001804:    00001835    5...    DCD    6197
    $t
        0x00001808:    f001ff6a    ..j.    BL       SendHost_CenterFWinfo ; 0x36e0
        0x0000180c:    e01b        ..      B        0x1846 ; Host_OTACenterProcess + 118
        0x0000180e:    48bb        .H      LDR      r0,[pc,#748] ; [0x1afc] = 0xa5a5beef
        0x00001810:    f003f8b0    ....    BL       WRITE_FW_STATUS_FLAG ; 0x4974
        0x00001814:    f001ff64    ..d.    BL       SendHost_CenterFWinfo ; 0x36e0
        0x00001818:    2000        .       MOVS     r0,#0
        0x0000181a:    f000f8ad    ....    BL       MarkFwAsActive ; 0x1978
        0x0000181e:    f000f87f    ....    BL       JumpToBootloader ; 0x1920
        0x00001822:    e010        ..      B        0x1846 ; Host_OTACenterProcess + 118
        0x00001824:    4824        $H      LDR      r0,[pc,#144] ; [0x18b8] = 0xddccbbaa
        0x00001826:    f003f8a5    ....    BL       WRITE_FW_STATUS_FLAG ; 0x4974
        0x0000182a:    f001ff59    ..Y.    BL       SendHost_CenterFWinfo ; 0x36e0
        0x0000182e:    f000f877    ..w.    BL       JumpToBootloader ; 0x1920
        0x00001832:    e008        ..      B        0x1846 ; Host_OTACenterProcess + 118
        0x00001834:    4805        .H      LDR      r0,[pc,#20] ; [0x184c] = 0xa0aa0a0
        0x00001836:    f003f89d    ....    BL       WRITE_FW_STATUS_FLAG ; 0x4974
        0x0000183a:    f001ff51    ..Q.    BL       SendHost_CenterFWinfo ; 0x36e0
        0x0000183e:    f000f86f    ..o.    BL       JumpToBootloader ; 0x1920
        0x00001842:    e000        ..      B        0x1846 ; Host_OTACenterProcess + 118
        0x00001844:    e7ff        ..      B        0x1846 ; Host_OTACenterProcess + 118
        0x00001846:    b002        ..      ADD      sp,sp,#8
        0x00001848:    bd80        ..      POP      {r7,pc}
        0x0000184a:    46c0        .F      MOV      r8,r8
    $d
    __arm_cp.9_1
        0x0000184c:    0a0aa0a0    ....    DCD    168468640
    $t
    Host_OTAMeterProcess
        0x00001850:    b580        ..      PUSH     {r7,lr}
        0x00001852:    f001fd77    ..w.    BL       SYS_UnlockReg ; 0x3344
        0x00001856:    f7fffc49    ..I.    BL       FMC_Open ; 0x10ec
        0x0000185a:    f7fffdcf    ....    BL       GetHostRTC ; 0x13fc
        0x0000185e:    482c        ,H      LDR      r0,[pc,#176] ; [0x1910] = 0x200003aa
        0x00001860:    78c1        .x      LDRB     r1,[r0,#3]
        0x00001862:    4a13        .J      LDR      r2,[pc,#76] ; [0x18b0] = 0x20000381
        0x00001864:    7011        .p      STRB     r1,[r2,#0]
        0x00001866:    7901        .y      LDRB     r1,[r0,#4]
        0x00001868:    7812        .x      LDRB     r2,[r2,#0]
        0x0000186a:    4b12        .K      LDR      r3,[pc,#72] ; [0x18b4] = 0x2000030c
        0x0000186c:    18d2        ..      ADDS     r2,r2,r3
        0x0000186e:    1e52        R.      SUBS     r2,r2,#1
        0x00001870:    7011        .p      STRB     r1,[r2,#0]
        0x00001872:    7900        .y      LDRB     r0,[r0,#4]
        0x00001874:    2820         (      CMP      r0,#0x20
        0x00001876:    d119        ..      BNE      0x18ac ; Host_OTAMeterProcess + 92
        0x00001878:    e7ff        ..      B        0x187a ; Host_OTAMeterProcess + 42
        0x0000187a:    48a2        .H      LDR      r0,[pc,#648] ; [0x1b04] = 0x20000528
        0x0000187c:    7802        .x      LDRB     r2,[r0,#0]
        0x0000187e:    7841        Ax      LDRB     r1,[r0,#1]
        0x00001880:    0209        ..      LSLS     r1,r1,#8
        0x00001882:    1889        ..      ADDS     r1,r1,r2
        0x00001884:    7882        .x      LDRB     r2,[r0,#2]
        0x00001886:    0412        ..      LSLS     r2,r2,#16
        0x00001888:    78c0        .x      LDRB     r0,[r0,#3]
        0x0000188a:    0600        ..      LSLS     r0,r0,#24
        0x0000188c:    1880        ..      ADDS     r0,r0,r2
        0x0000188e:    1840        @.      ADDS     r0,r0,r1
        0x00001890:    2810        .(      CMP      r0,#0x10
        0x00001892:    d00a        ..      BEQ      0x18aa ; Host_OTAMeterProcess + 90
        0x00001894:    e7ff        ..      B        0x1896 ; Host_OTAMeterProcess + 70
        0x00001896:    4808        .H      LDR      r0,[pc,#32] ; [0x18b8] = 0xddccbbaa
        0x00001898:    f003f86c    ..l.    BL       WRITE_FW_STATUS_FLAG ; 0x4974
        0x0000189c:    f003f8d6    ....    BL       WriteMeterOtaCmdList ; 0x4a4c
        0x000018a0:    f001ff1e    ....    BL       SendHost_CenterFWinfo ; 0x36e0
        0x000018a4:    f000f83c    ..<.    BL       JumpToBootloader ; 0x1920
        0x000018a8:    e7ff        ..      B        0x18aa ; Host_OTAMeterProcess + 90
        0x000018aa:    e7ff        ..      B        0x18ac ; Host_OTAMeterProcess + 92
        0x000018ac:    bd80        ..      POP      {r7,pc}
        0x000018ae:    46c0        .F      MOV      r8,r8
    $d
    __arm_cp.10_1
        0x000018b0:    20000381    ...     DCD    536871809
    __arm_cp.10_2
        0x000018b4:    2000030c    ...     DCD    536871692
    __arm_cp.10_4
        0x000018b8:    ddccbbaa    ....    DCD    3721182122
    $t
    Host_PowerMeterDataProcess
        0x000018bc:    b580        ..      PUSH     {r7,lr}
        0x000018be:    4814        .H      LDR      r0,[pc,#80] ; [0x1910] = 0x200003aa
        0x000018c0:    78c2        .x      LDRB     r2,[r0,#3]
        0x000018c2:    4914        .I      LDR      r1,[pc,#80] ; [0x1914] = 0x20000168
        0x000018c4:    700a        .p      STRB     r2,[r1,#0]
        0x000018c6:    7903        .y      LDRB     r3,[r0,#4]
        0x000018c8:    4a13        .J      LDR      r2,[pc,#76] ; [0x1918] = 0x20000167
        0x000018ca:    7013        .p      STRB     r3,[r2,#0]
        0x000018cc:    7940        @y      LDRB     r0,[r0,#5]
        0x000018ce:    7809        .x      LDRB     r1,[r1,#0]
        0x000018d0:    4b04        .K      LDR      r3,[pc,#16] ; [0x18e4] = 0x20000383
        0x000018d2:    18c9        ..      ADDS     r1,r1,r3
        0x000018d4:    7812        .x      LDRB     r2,[r2,#0]
        0x000018d6:    1889        ..      ADDS     r1,r1,r2
        0x000018d8:    1e89        ..      SUBS     r1,r1,#2
        0x000018da:    7008        .p      STRB     r0,[r1,#0]
        0x000018dc:    f7fffd8e    ....    BL       GetHostRTC ; 0x13fc
        0x000018e0:    bd80        ..      POP      {r7,pc}
        0x000018e2:    46c0        .F      MOV      r8,r8
    $d
    __arm_cp.5_3
        0x000018e4:    20000383    ...     DCD    536871811
    $t
    Host_WMDataProcess
        0x000018e8:    b580        ..      PUSH     {r7,lr}
        0x000018ea:    4809        .H      LDR      r0,[pc,#36] ; [0x1910] = 0x200003aa
        0x000018ec:    78c2        .x      LDRB     r2,[r0,#3]
        0x000018ee:    4909        .I      LDR      r1,[pc,#36] ; [0x1914] = 0x20000168
        0x000018f0:    700a        .p      STRB     r2,[r1,#0]
        0x000018f2:    7903        .y      LDRB     r3,[r0,#4]
        0x000018f4:    4a08        .J      LDR      r2,[pc,#32] ; [0x1918] = 0x20000167
        0x000018f6:    7013        .p      STRB     r3,[r2,#0]
        0x000018f8:    7940        @y      LDRB     r0,[r0,#5]
        0x000018fa:    7809        .x      LDRB     r1,[r1,#0]
        0x000018fc:    4b07        .K      LDR      r3,[pc,#28] ; [0x191c] = 0x20000488
        0x000018fe:    18c9        ..      ADDS     r1,r1,r3
        0x00001900:    7812        .x      LDRB     r2,[r2,#0]
        0x00001902:    1889        ..      ADDS     r1,r1,r2
        0x00001904:    1e89        ..      SUBS     r1,r1,#2
        0x00001906:    7008        .p      STRB     r0,[r1,#0]
        0x00001908:    f7fffd78    ..x.    BL       GetHostRTC ; 0x13fc
        0x0000190c:    bd80        ..      POP      {r7,pc}
        0x0000190e:    46c0        .F      MOV      r8,r8
    $d
    __arm_cp.7_0
        0x00001910:    200003aa    ...     DCD    536871850
    __arm_cp.7_1
        0x00001914:    20000168    h..     DCD    536871272
    __arm_cp.7_2
        0x00001918:    20000167    g..     DCD    536871271
    __arm_cp.7_3
        0x0000191c:    20000488    ...     DCD    536872072
    $t
    JumpToBootloader
        0x00001920:    b580        ..      PUSH     {r7,lr}
        0x00001922:    b082        ..      SUB      sp,sp,#8
        0x00001924:    2007        .       MOVS     r0,#7
        0x00001926:    0200        ..      LSLS     r0,r0,#8
        0x00001928:    2103        .!      MOVS     r1,#3
        0x0000192a:    2201        ."      MOVS     r2,#1
        0x0000192c:    2300        .#      MOVS     r3,#0
        0x0000192e:    9301        ..      STR      r3,[sp,#4]
        0x00001930:    f003f806    ....    BL       WDT_Open ; 0x4940
        0x00001934:    490d        .I      LDR      r1,[pc,#52] ; [0x196c] = 0x40004008
        0x00001936:    480e        .H      LDR      r0,[pc,#56] ; [0x1970] = 0x5aa5
        0x00001938:    6008        .`      STR      r0,[r1,#0]
        0x0000193a:    490e        .I      LDR      r1,[pc,#56] ; [0x1974] = 0x40004000
        0x0000193c:    9100        ..      STR      r1,[sp,#0]
        0x0000193e:    6808        .h      LDR      r0,[r1,#0]
        0x00001940:    2204        ."      MOVS     r2,#4
        0x00001942:    4310        .C      ORRS     r0,r0,r2
        0x00001944:    2228        ("      MOVS     r2,#0x28
        0x00001946:    4390        .C      BICS     r0,r0,r2
        0x00001948:    6008        .`      STR      r0,[r1,#0]
        0x0000194a:    b672        r.      CPSID    i
        0x0000194c:    f001fd14    ....    BL       SYS_UnlockReg ; 0x3378
        0x00001950:    f7fffbcc    ....    BL       FMC_Open ; 0x10ec
        0x00001954:    9a00        ..      LDR      r2,[sp,#0]
        0x00001956:    9801        ..      LDR      r0,[sp,#4]
        0x00001958:    6811        .h      LDR      r1,[r2,#0]
        0x0000195a:    2380        .#      MOVS     r3,#0x80
        0x0000195c:    4399        .C      BICS     r1,r1,r3
        0x0000195e:    6011        .`      STR      r1,[r2,#0]
        0x00001960:    f7fffc66    ..f.    BL       FMC_SetVectorPageAddr ; 0x1230
        0x00001964:    f001fa74    ..t.    BL       NVIC_SystemReset ; 0x2e50
        0x00001968:    b002        ..      ADD      sp,sp,#8
        0x0000196a:    bd80        ..      POP      {r7,pc}
    $d
    __arm_cp.13_0
        0x0000196c:    40004008    .@.@    DCD    1073758216
    __arm_cp.13_1
        0x00001970:    00005aa5    .Z..    DCD    23205
    __arm_cp.13_2
        0x00001974:    40004000    .@.@    DCD    1073758208
    $t
    MarkFwAsActive
        0x00001978:    b5b0        ..      PUSH     {r4,r5,r7,lr}
        0x0000197a:    b08a        ..      SUB      sp,sp,#0x28
        0x0000197c:    a909        ..      ADD      r1,sp,#0x24
        0x0000197e:    9105        ..      STR      r1,[sp,#0x14]
        0x00001980:    7008        .p      STRB     r0,[r1,#0]
        0x00001982:    485d        ]H      LDR      r0,[pc,#372] ; [0x1af8] = 0x200004ec
        0x00001984:    6841        Ah      LDR      r1,[r0,#4]
        0x00001986:    203f        ?       MOVS     r0,#0x3f
        0x00001988:    02c0        ..      LSLS     r0,r0,#11
        0x0000198a:    221f        ."      MOVS     r2,#0x1f
        0x0000198c:    0312        ..      LSLS     r2,r2,#12
        0x0000198e:    9206        ..      STR      r2,[sp,#0x18]
        0x00001990:    4291        .B      CMP      r1,r2
        0x00001992:    9007        ..      STR      r0,[sp,#0x1c]
        0x00001994:    d001        ..      BEQ      0x199a ; MarkFwAsActive + 34
        0x00001996:    9806        ..      LDR      r0,[sp,#0x18]
        0x00001998:    9007        ..      STR      r0,[sp,#0x1c]
        0x0000199a:    9805        ..      LDR      r0,[sp,#0x14]
        0x0000199c:    9907        ..      LDR      r1,[sp,#0x1c]
        0x0000199e:    9108        ..      STR      r1,[sp,#0x20]
        0x000019a0:    7800        .x      LDRB     r0,[r0,#0]
        0x000019a2:    07c0        ..      LSLS     r0,r0,#31
        0x000019a4:    2800        .(      CMP      r0,#0
        0x000019a6:    d04d        M.      BEQ      0x1a44 ; MarkFwAsActive + 204
        0x000019a8:    e7ff        ..      B        0x19aa ; MarkFwAsActive + 50
        0x000019aa:    4957        WI      LDR      r1,[pc,#348] ; [0x1b08] = 0x20000508
        0x000019ac:    9103        ..      STR      r1,[sp,#0xc]
        0x000019ae:    780b        .x      LDRB     r3,[r1,#0]
        0x000019b0:    784a        Jx      LDRB     r2,[r1,#1]
        0x000019b2:    0210        ..      LSLS     r0,r2,#8
        0x000019b4:    18c0        ..      ADDS     r0,r0,r3
        0x000019b6:    788b        .x      LDRB     r3,[r1,#2]
        0x000019b8:    041d        ..      LSLS     r5,r3,#16
        0x000019ba:    78cc        .x      LDRB     r4,[r1,#3]
        0x000019bc:    0623        #.      LSLS     r3,r4,#24
        0x000019be:    195b        [.      ADDS     r3,r3,r5
        0x000019c0:    1818        ..      ADDS     r0,r3,r0
        0x000019c2:    2504        .%      MOVS     r5,#4
        0x000019c4:    43a8        .C      BICS     r0,r0,r5
        0x000019c6:    70cc        .p      STRB     r4,[r1,#3]
        0x000019c8:    0c1b        ..      LSRS     r3,r3,#16
        0x000019ca:    708b        .p      STRB     r3,[r1,#2]
        0x000019cc:    704a        Jp      STRB     r2,[r1,#1]
        0x000019ce:    7008        .p      STRB     r0,[r1,#0]
        0x000019d0:    780b        .x      LDRB     r3,[r1,#0]
        0x000019d2:    784a        Jx      LDRB     r2,[r1,#1]
        0x000019d4:    0210        ..      LSLS     r0,r2,#8
        0x000019d6:    18c0        ..      ADDS     r0,r0,r3
        0x000019d8:    788b        .x      LDRB     r3,[r1,#2]
        0x000019da:    041d        ..      LSLS     r5,r3,#16
        0x000019dc:    78cc        .x      LDRB     r4,[r1,#3]
        0x000019de:    0623        #.      LSLS     r3,r4,#24
        0x000019e0:    195b        [.      ADDS     r3,r3,r5
        0x000019e2:    1818        ..      ADDS     r0,r3,r0
        0x000019e4:    250a        .%      MOVS     r5,#0xa
        0x000019e6:    4328        (C      ORRS     r0,r0,r5
        0x000019e8:    70cc        .p      STRB     r4,[r1,#3]
        0x000019ea:    0c1b        ..      LSRS     r3,r3,#16
        0x000019ec:    708b        .p      STRB     r3,[r1,#2]
        0x000019ee:    704a        Jp      STRB     r2,[r1,#1]
        0x000019f0:    7008        .p      STRB     r0,[r1,#0]
        0x000019f2:    7d0a        .}      LDRB     r2,[r1,#0x14]
        0x000019f4:    7d48        H}      LDRB     r0,[r1,#0x15]
        0x000019f6:    0200        ..      LSLS     r0,r0,#8
        0x000019f8:    1882        ..      ADDS     r2,r0,r2
        0x000019fa:    7d88        .}      LDRB     r0,[r1,#0x16]
        0x000019fc:    0403        ..      LSLS     r3,r0,#16
        0x000019fe:    7dc8        .}      LDRB     r0,[r1,#0x17]
        0x00001a00:    0600        ..      LSLS     r0,r0,#24
        0x00001a02:    18c0        ..      ADDS     r0,r0,r3
        0x00001a04:    1880        ..      ADDS     r0,r0,r2
        0x00001a06:    1c40        @.      ADDS     r0,r0,#1
        0x00001a08:    0e02        ..      LSRS     r2,r0,#24
        0x00001a0a:    75ca        .u      STRB     r2,[r1,#0x17]
        0x00001a0c:    0c02        ..      LSRS     r2,r0,#16
        0x00001a0e:    758a        .u      STRB     r2,[r1,#0x16]
        0x00001a10:    7508        .u      STRB     r0,[r1,#0x14]
        0x00001a12:    0a00        ..      LSRS     r0,r0,#8
        0x00001a14:    7548        Hu      STRB     r0,[r1,#0x15]
        0x00001a16:    493b        ;I      LDR      r1,[pc,#236] ; [0x1b04] = 0x20000528
        0x00001a18:    9104        ..      STR      r1,[sp,#0x10]
        0x00001a1a:    780b        .x      LDRB     r3,[r1,#0]
        0x00001a1c:    784a        Jx      LDRB     r2,[r1,#1]
        0x00001a1e:    0210        ..      LSLS     r0,r2,#8
        0x00001a20:    18c0        ..      ADDS     r0,r0,r3
        0x00001a22:    788b        .x      LDRB     r3,[r1,#2]
        0x00001a24:    041d        ..      LSLS     r5,r3,#16
        0x00001a26:    78cc        .x      LDRB     r4,[r1,#3]
        0x00001a28:    0623        #.      LSLS     r3,r4,#24
        0x00001a2a:    195b        [.      ADDS     r3,r3,r5
        0x00001a2c:    1818        ..      ADDS     r0,r3,r0
        0x00001a2e:    2508        .%      MOVS     r5,#8
        0x00001a30:    43a8        .C      BICS     r0,r0,r5
        0x00001a32:    70cc        .p      STRB     r4,[r1,#3]
        0x00001a34:    0c1b        ..      LSRS     r3,r3,#16
        0x00001a36:    708b        .p      STRB     r3,[r1,#2]
        0x00001a38:    704a        Jp      STRB     r2,[r1,#1]
        0x00001a3a:    7008        .p      STRB     r0,[r1,#0]
        0x00001a3c:    4833        3H      LDR      r0,[pc,#204] ; [0x1b0c] = 0x5aa5a55a
        0x00001a3e:    f002ff99    ....    BL       WRITE_FW_STATUS_FLAG ; 0x4974
        0x00001a42:    e04d        M.      B        0x1ae0 ; MarkFwAsActive + 360
        0x00001a44:    482c        ,H      LDR      r0,[pc,#176] ; [0x1af8] = 0x200004ec
        0x00001a46:    6880        .h      LDR      r0,[r0,#8]
        0x00001a48:    492c        ,I      LDR      r1,[pc,#176] ; [0x1afc] = 0xa5a5beef
        0x00001a4a:    4288        .B      CMP      r0,r1
        0x00001a4c:    d008        ..      BEQ      0x1a60 ; MarkFwAsActive + 232
        0x00001a4e:    e7ff        ..      B        0x1a50 ; MarkFwAsActive + 216
        0x00001a50:    a809        ..      ADD      r0,sp,#0x24
        0x00001a52:    7800        .x      LDRB     r0,[r0,#0]
        0x00001a54:    2101        .!      MOVS     r1,#1
        0x00001a56:    4008        .@      ANDS     r0,r0,r1
        0x00001a58:    1c40        @.      ADDS     r0,r0,#1
        0x00001a5a:    2800        .(      CMP      r0,#0
        0x00001a5c:    d03b        ;.      BEQ      0x1ad6 ; MarkFwAsActive + 350
        0x00001a5e:    e7ff        ..      B        0x1a60 ; MarkFwAsActive + 232
        0x00001a60:    4928        (I      LDR      r1,[pc,#160] ; [0x1b04] = 0x20000528
        0x00001a62:    9101        ..      STR      r1,[sp,#4]
        0x00001a64:    780b        .x      LDRB     r3,[r1,#0]
        0x00001a66:    784a        Jx      LDRB     r2,[r1,#1]
        0x00001a68:    0210        ..      LSLS     r0,r2,#8
        0x00001a6a:    18c0        ..      ADDS     r0,r0,r3
        0x00001a6c:    788b        .x      LDRB     r3,[r1,#2]
        0x00001a6e:    041d        ..      LSLS     r5,r3,#16
        0x00001a70:    78cc        .x      LDRB     r4,[r1,#3]
        0x00001a72:    0623        #.      LSLS     r3,r4,#24
        0x00001a74:    195b        [.      ADDS     r3,r3,r5
        0x00001a76:    1818        ..      ADDS     r0,r3,r0
        0x00001a78:    2504        .%      MOVS     r5,#4
        0x00001a7a:    43a8        .C      BICS     r0,r0,r5
        0x00001a7c:    70cc        .p      STRB     r4,[r1,#3]
        0x00001a7e:    0c1b        ..      LSRS     r3,r3,#16
        0x00001a80:    708b        .p      STRB     r3,[r1,#2]
        0x00001a82:    704a        Jp      STRB     r2,[r1,#1]
        0x00001a84:    7008        .p      STRB     r0,[r1,#0]
        0x00001a86:    780b        .x      LDRB     r3,[r1,#0]
        0x00001a88:    784a        Jx      LDRB     r2,[r1,#1]
        0x00001a8a:    0210        ..      LSLS     r0,r2,#8
        0x00001a8c:    18c0        ..      ADDS     r0,r0,r3
        0x00001a8e:    788b        .x      LDRB     r3,[r1,#2]
        0x00001a90:    041d        ..      LSLS     r5,r3,#16
        0x00001a92:    78cc        .x      LDRB     r4,[r1,#3]
        0x00001a94:    0623        #.      LSLS     r3,r4,#24
        0x00001a96:    195b        [.      ADDS     r3,r3,r5
        0x00001a98:    1818        ..      ADDS     r0,r3,r0
        0x00001a9a:    250a        .%      MOVS     r5,#0xa
        0x00001a9c:    4328        (C      ORRS     r0,r0,r5
        0x00001a9e:    70cc        .p      STRB     r4,[r1,#3]
        0x00001aa0:    0c1b        ..      LSRS     r3,r3,#16
        0x00001aa2:    708b        .p      STRB     r3,[r1,#2]
        0x00001aa4:    704a        Jp      STRB     r2,[r1,#1]
        0x00001aa6:    7008        .p      STRB     r0,[r1,#0]
        0x00001aa8:    4917        .I      LDR      r1,[pc,#92] ; [0x1b08] = 0x20000508
        0x00001aaa:    9102        ..      STR      r1,[sp,#8]
        0x00001aac:    780b        .x      LDRB     r3,[r1,#0]
        0x00001aae:    784a        Jx      LDRB     r2,[r1,#1]
        0x00001ab0:    0210        ..      LSLS     r0,r2,#8
        0x00001ab2:    18c0        ..      ADDS     r0,r0,r3
        0x00001ab4:    788b        .x      LDRB     r3,[r1,#2]
        0x00001ab6:    041d        ..      LSLS     r5,r3,#16
        0x00001ab8:    78cc        .x      LDRB     r4,[r1,#3]
        0x00001aba:    0623        #.      LSLS     r3,r4,#24
        0x00001abc:    195b        [.      ADDS     r3,r3,r5
        0x00001abe:    1818        ..      ADDS     r0,r3,r0
        0x00001ac0:    2508        .%      MOVS     r5,#8
        0x00001ac2:    43a8        .C      BICS     r0,r0,r5
        0x00001ac4:    70cc        .p      STRB     r4,[r1,#3]
        0x00001ac6:    0c1b        ..      LSRS     r3,r3,#16
        0x00001ac8:    708b        .p      STRB     r3,[r1,#2]
        0x00001aca:    704a        Jp      STRB     r2,[r1,#1]
        0x00001acc:    7008        .p      STRB     r0,[r1,#0]
        0x00001ace:    480b        .H      LDR      r0,[pc,#44] ; [0x1afc] = 0xa5a5beef
        0x00001ad0:    f002ff50    ..P.    BL       WRITE_FW_STATUS_FLAG ; 0x4974
        0x00001ad4:    e003        ..      B        0x1ade ; MarkFwAsActive + 358
        0x00001ad6:    480a        .H      LDR      r0,[pc,#40] ; [0x1b00] = 0xdeaddead
        0x00001ad8:    f002ff4c    ..L.    BL       WRITE_FW_STATUS_FLAG ; 0x4974
        0x00001adc:    e7ff        ..      B        0x1ade ; MarkFwAsActive + 358
        0x00001ade:    e7ff        ..      B        0x1ae0 ; MarkFwAsActive + 360
        0x00001ae0:    4805        .H      LDR      r0,[pc,#20] ; [0x1af8] = 0x200004ec
        0x00001ae2:    6841        Ah      LDR      r1,[r0,#4]
        0x00001ae4:    4808        .H      LDR      r0,[pc,#32] ; [0x1b08] = 0x20000508
        0x00001ae6:    f002ffa2    ....    BL       WriteMetadata ; 0x4a2e
        0x00001aea:    9908        ..      LDR      r1,[sp,#0x20]
        0x00001aec:    4805        .H      LDR      r0,[pc,#20] ; [0x1b04] = 0x20000528
        0x00001aee:    f002ff9e    ....    BL       WriteMetadata ; 0x4a2e
        0x00001af2:    b00a        ..      ADD      sp,sp,#0x28
        0x00001af4:    bdb0        ..      POP      {r4,r5,r7,pc}
        0x00001af6:    46c0        .F      MOV      r8,r8
    $d
    __arm_cp.2_0
        0x00001af8:    200004ec    ...     DCD    536872172
    __arm_cp.2_1
        0x00001afc:    a5a5beef    ....    DCD    2779102959
    __arm_cp.2_2
        0x00001b00:    deaddead    ....    DCD    3735936685
    __arm_cp.2_3
        0x00001b04:    20000528    (..     DCD    536872232
    __arm_cp.2_4
        0x00001b08:    20000508    ...     DCD    536872200
    __arm_cp.2_5
        0x00001b0c:    5aa5a55a    Z..Z    DCD    1520805210
    $t
    MeterBoardPolling
        0x00001b10:    b580        ..      PUSH     {r7,lr}
        0x00001b12:    b088        ..      SUB      sp,sp,#0x20
        0x00001b14:    4841        AH      LDR      r0,[pc,#260] ; [0x1c1c] = 0x2000037e
        0x00001b16:    7800        .x      LDRB     r0,[r0,#0]
        0x00001b18:    1e40        @.      SUBS     r0,r0,#1
        0x00001b1a:    4941        AI      LDR      r1,[pc,#260] ; [0x1c20] = 0x20000390
        0x00001b1c:    7008        .p      STRB     r0,[r1,#0]
        0x00001b1e:    4841        AH      LDR      r0,[pc,#260] ; [0x1c24] = 0x20000381
        0x00001b20:    7800        .x      LDRB     r0,[r0,#0]
        0x00001b22:    4941        AI      LDR      r1,[pc,#260] ; [0x1c28] = 0x2000030c
        0x00001b24:    1840        @.      ADDS     r0,r0,r1
        0x00001b26:    1e40        @.      SUBS     r0,r0,#1
        0x00001b28:    7800        .x      LDRB     r0,[r0,#0]
        0x00001b2a:    a907        ..      ADD      r1,sp,#0x1c
        0x00001b2c:    7008        .p      STRB     r0,[r1,#0]
        0x00001b2e:    483f        ?H      LDR      r0,[pc,#252] ; [0x1c2c] = 0x20000096
        0x00001b30:    7800        .x      LDRB     r0,[r0,#0]
        0x00001b32:    07c0        ..      LSLS     r0,r0,#31
        0x00001b34:    2800        .(      CMP      r0,#0
        0x00001b36:    d136        6.      BNE      0x1ba6 ; MeterBoardPolling + 150
        0x00001b38:    e7ff        ..      B        0x1b3a ; MeterBoardPolling + 42
        0x00001b3a:    483d        =H      LDR      r0,[pc,#244] ; [0x1c30] = 0x20000094
        0x00001b3c:    7800        .x      LDRB     r0,[r0,#0]
        0x00001b3e:    07c0        ..      LSLS     r0,r0,#31
        0x00001b40:    2800        .(      CMP      r0,#0
        0x00001b42:    d130        0.      BNE      0x1ba6 ; MeterBoardPolling + 150
        0x00001b44:    e7ff        ..      B        0x1b46 ; MeterBoardPolling + 54
        0x00001b46:    483b        ;H      LDR      r0,[pc,#236] ; [0x1c34] = 0x20000097
        0x00001b48:    7800        .x      LDRB     r0,[r0,#0]
        0x00001b4a:    07c0        ..      LSLS     r0,r0,#31
        0x00001b4c:    2800        .(      CMP      r0,#0
        0x00001b4e:    d12a        *.      BNE      0x1ba6 ; MeterBoardPolling + 150
        0x00001b50:    e7ff        ..      B        0x1b52 ; MeterBoardPolling + 66
        0x00001b52:    4839        9H      LDR      r0,[pc,#228] ; [0x1c38] = 0x20000095
        0x00001b54:    7800        .x      LDRB     r0,[r0,#0]
        0x00001b56:    07c0        ..      LSLS     r0,r0,#31
        0x00001b58:    2800        .(      CMP      r0,#0
        0x00001b5a:    d124        $.      BNE      0x1ba6 ; MeterBoardPolling + 150
        0x00001b5c:    e7ff        ..      B        0x1b5e ; MeterBoardPolling + 78
        0x00001b5e:    4937        7I      LDR      r1,[pc,#220] ; [0x1c3c] = 0x2000037f
        0x00001b60:    2001        .       MOVS     r0,#1
        0x00001b62:    9006        ..      STR      r0,[sp,#0x18]
        0x00001b64:    7008        .p      STRB     r0,[r1,#0]
        0x00001b66:    4936        6I      LDR      r1,[pc,#216] ; [0x1c40] = 0x2000037c
        0x00001b68:    7008        .p      STRB     r0,[r1,#0]
        0x00001b6a:    4936        6I      LDR      r1,[pc,#216] ; [0x1c44] = 0x20000380
        0x00001b6c:    7008        .p      STRB     r0,[r1,#0]
        0x00001b6e:    4936        6I      LDR      r1,[pc,#216] ; [0x1c48] = 0x2000037d
        0x00001b70:    7008        .p      STRB     r0,[r1,#0]
        0x00001b72:    492e        .I      LDR      r1,[pc,#184] ; [0x1c2c] = 0x20000096
        0x00001b74:    7008        .p      STRB     r0,[r1,#0]
        0x00001b76:    492e        .I      LDR      r1,[pc,#184] ; [0x1c30] = 0x20000094
        0x00001b78:    7008        .p      STRB     r0,[r1,#0]
        0x00001b7a:    492e        .I      LDR      r1,[pc,#184] ; [0x1c34] = 0x20000097
        0x00001b7c:    7008        .p      STRB     r0,[r1,#0]
        0x00001b7e:    492e        .I      LDR      r1,[pc,#184] ; [0x1c38] = 0x20000095
        0x00001b80:    7008        .p      STRB     r0,[r1,#0]
        0x00001b82:    4826        &H      LDR      r0,[pc,#152] ; [0x1c1c] = 0x2000037e
        0x00001b84:    7801        .x      LDRB     r1,[r0,#0]
        0x00001b86:    1c49        I.      ADDS     r1,r1,#1
        0x00001b88:    7001        .p      STRB     r1,[r0,#0]
        0x00001b8a:    7800        .x      LDRB     r0,[r0,#0]
        0x00001b8c:    492f        /I      LDR      r1,[pc,#188] ; [0x1c4c] = 0x200002b8
        0x00001b8e:    7809        .x      LDRB     r1,[r1,#0]
        0x00001b90:    4288        .B      CMP      r0,r1
        0x00001b92:    dd04        ..      BLE      0x1b9e ; MeterBoardPolling + 142
        0x00001b94:    e7ff        ..      B        0x1b96 ; MeterBoardPolling + 134
        0x00001b96:    4921        !I      LDR      r1,[pc,#132] ; [0x1c1c] = 0x2000037e
        0x00001b98:    2001        .       MOVS     r0,#1
        0x00001b9a:    7008        .p      STRB     r0,[r1,#0]
        0x00001b9c:    e7ff        ..      B        0x1b9e ; MeterBoardPolling + 142
        0x00001b9e:    492c        ,I      LDR      r1,[pc,#176] ; [0x1c50] = 0x2000030e
        0x00001ba0:    2000        .       MOVS     r0,#0
        0x00001ba2:    7008        .p      STRB     r0,[r1,#0]
        0x00001ba4:    e7ff        ..      B        0x1ba6 ; MeterBoardPolling + 150
        0x00001ba6:    482a        *H      LDR      r0,[pc,#168] ; [0x1c50] = 0x2000030e
        0x00001ba8:    7800        .x      LDRB     r0,[r0,#0]
        0x00001baa:    9005        ..      STR      r0,[sp,#0x14]
        0x00001bac:    2815        .(      CMP      r0,#0x15
        0x00001bae:    d900        ..      BLS      0x1bb2 ; MeterBoardPolling + 162
        0x00001bb0:    e3f1        ..      B        0x2396 ; 0x2396
        0x00001bb2:    9805        ..      LDR      r0,[sp,#0x14]
        0x00001bb4:    0081        ..      LSLS     r1,r0,#2
        0x00001bb6:    a001        ..      ADR      r0,{pc}+6 ; 0x1bbc
        0x00001bb8:    5840        @X      LDR      r0,[r0,r1]
        0x00001bba:    4687        .F      MOV      pc,r0
    $d
        0x00001bbc:    00001c15    ....    DCD    7189
        0x00001bc0:    00001c55    U...    DCD    7253
        0x00001bc4:    00001c91    ....    DCD    7313
        0x00001bc8:    00001ce7    ....    DCD    7399
        0x00001bcc:    00001d0f    ....    DCD    7439
        0x00001bd0:    00001d97    ....    DCD    7575
        0x00001bd4:    00001dd3    ....    DCD    7635
        0x00001bd8:    00001e53    S...    DCD    7763
        0x00001bdc:    00001e8f    ....    DCD    7823
        0x00001be0:    00001f0f    ....    DCD    7951
        0x00001be4:    00001f4b    K...    DCD    8011
        0x00001be8:    00001fcb    ....    DCD    8139
        0x00001bec:    0000200b    . ..    DCD    8203
        0x00001bf0:    000020ef    . ..    DCD    8431
        0x00001bf4:    00002111    .!..    DCD    8465
        0x00001bf8:    00002165    e!..    DCD    8549
        0x00001bfc:    00002187    .!..    DCD    8583
        0x00001c00:    000021db    .!..    DCD    8667
        0x00001c04:    000021fd    .!..    DCD    8701
        0x00001c08:    00002251    Q"..    DCD    8785
        0x00001c0c:    00002273    s"..    DCD    8819
        0x00001c10:    000022ef    ."..    DCD    8943
    $t
        0x00001c14:    490e        .I      LDR      r1,[pc,#56] ; [0x1c50] = 0x2000030e
        0x00001c16:    2001        .       MOVS     r0,#1
        0x00001c18:    7008        .p      STRB     r0,[r1,#0]
        0x00001c1a:    e3bd        ..      B        0x2398 ; 0x2398
    $d
        0x00001c1c:    2000037e    ~..     DCD    536871806
        0x00001c20:    20000390    ...     DCD    536871824
        0x00001c24:    20000381    ...     DCD    536871809
        0x00001c28:    2000030c    ...     DCD    536871692
        0x00001c2c:    20000096    ...     DCD    536871062
        0x00001c30:    20000094    ...     DCD    536871060
        0x00001c34:    20000097    ...     DCD    536871063
        0x00001c38:    20000095    ...     DCD    536871061
        0x00001c3c:    2000037f    ...     DCD    536871807
        0x00001c40:    2000037c    |..     DCD    536871804
        0x00001c44:    20000380    ...     DCD    536871808
        0x00001c48:    2000037d    }..     DCD    536871805
    __arm_cp.0_44
        0x00001c4c:    200002b8    ...     DCD    536871608
        0x00001c50:    2000030e    ...     DCD    536871694
    $t
        0x00001c54:    48f8        .H      LDR      r0,[pc,#992] ; [0x2038] = 0x20000096
        0x00001c56:    7800        .x      LDRB     r0,[r0,#0]
        0x00001c58:    07c0        ..      LSLS     r0,r0,#31
        0x00001c5a:    2800        .(      CMP      r0,#0
        0x00001c5c:    d104        ..      BNE      0x1c68 ; 0x1c68
        0x00001c5e:    e7ff        ..      B        0x1c60 ; 0x1c60
        0x00001c60:    49f6        .I      LDR      r1,[pc,#984] ; [0x203c] = 0x2000030e
        0x00001c62:    2003        .       MOVS     r0,#3
        0x00001c64:    7008        .p      STRB     r0,[r1,#0]
        0x00001c66:    e397        ..      B        0x2398 ; 0x2398
        0x00001c68:    48f5        .H      LDR      r0,[pc,#980] ; [0x2040] = 0x2000037a
        0x00001c6a:    7800        .x      LDRB     r0,[r0,#0]
        0x00001c6c:    2803        .(      CMP      r0,#3
        0x00001c6e:    db0e        ..      BLT      0x1c8e ; 0x1c8e
        0x00001c70:    e7ff        ..      B        0x1c72 ; 0x1c72
        0x00001c72:    49f4        .I      LDR      r1,[pc,#976] ; [0x2044] = 0x20000314
        0x00001c74:    20ff        .       MOVS     r0,#0xff
        0x00001c76:    7008        .p      STRB     r0,[r1,#0]
        0x00001c78:    f001fa56    ..V.    BL       ResetMeterUART ; 0x3128
        0x00001c7c:    f002f898    ....    BL       SendMeter_AliveToken ; 0x3db0
        0x00001c80:    49f1        .I      LDR      r1,[pc,#964] ; [0x2048] = 0x200003a5
        0x00001c82:    2000        .       MOVS     r0,#0
        0x00001c84:    7008        .p      STRB     r0,[r1,#0]
        0x00001c86:    49ed        .I      LDR      r1,[pc,#948] ; [0x203c] = 0x2000030e
        0x00001c88:    2002        .       MOVS     r0,#2
        0x00001c8a:    7008        .p      STRB     r0,[r1,#0]
        0x00001c8c:    e7ff        ..      B        0x1c8e ; 0x1c8e
        0x00001c8e:    e383        ..      B        0x2398 ; 0x2398
        0x00001c90:    48ec        .H      LDR      r0,[pc,#944] ; [0x2044] = 0x20000314
        0x00001c92:    7800        .x      LDRB     r0,[r0,#0]
        0x00001c94:    49ed        .I      LDR      r1,[pc,#948] ; [0x204c] = 0x2000037e
        0x00001c96:    7809        .x      LDRB     r1,[r1,#0]
        0x00001c98:    4288        .B      CMP      r0,r1
        0x00001c9a:    d104        ..      BNE      0x1ca6 ; 0x1ca6
        0x00001c9c:    e7ff        ..      B        0x1c9e ; 0x1c9e
        0x00001c9e:    2003        .       MOVS     r0,#3
        0x00001ca0:    f001f8e4    ....    BL       PollSuccess_Handler ; 0x2e6c
        0x00001ca4:    e01e        ..      B        0x1ce4 ; 0x1ce4
        0x00001ca6:    48e8        .H      LDR      r0,[pc,#928] ; [0x2048] = 0x200003a5
        0x00001ca8:    7800        .x      LDRB     r0,[r0,#0]
        0x00001caa:    281a        .(      CMP      r0,#0x1a
        0x00001cac:    db05        ..      BLT      0x1cba ; 0x1cba
        0x00001cae:    e7ff        ..      B        0x1cb0 ; 0x1cb0
        0x00001cb0:    2001        .       MOVS     r0,#1
        0x00001cb2:    2103        .!      MOVS     r1,#3
        0x00001cb4:    f001f8f8    ....    BL       PollingTimeout_Handler ; 0x2ea8
        0x00001cb8:    e7ff        ..      B        0x1cba ; 0x1cba
        0x00001cba:    48e0        .H      LDR      r0,[pc,#896] ; [0x203c] = 0x2000030e
        0x00001cbc:    7800        .x      LDRB     r0,[r0,#0]
        0x00001cbe:    2803        .(      CMP      r0,#3
        0x00001cc0:    d10f        ..      BNE      0x1ce2 ; 0x1ce2
        0x00001cc2:    e7ff        ..      B        0x1cc4 ; 0x1cc4
        0x00001cc4:    48f6        .H      LDR      r0,[pc,#984] ; [0x20a0] = 0x2000037f
        0x00001cc6:    7801        .x      LDRB     r1,[r0,#0]
        0x00001cc8:    1c49        I.      ADDS     r1,r1,#1
        0x00001cca:    7001        .p      STRB     r1,[r0,#0]
        0x00001ccc:    7800        .x      LDRB     r0,[r0,#0]
        0x00001cce:    49f5        .I      LDR      r1,[pc,#980] ; [0x20a4] = 0x20000391
        0x00001cd0:    7809        .x      LDRB     r1,[r1,#0]
        0x00001cd2:    4288        .B      CMP      r0,r1
        0x00001cd4:    dd04        ..      BLE      0x1ce0 ; 0x1ce0
        0x00001cd6:    e7ff        ..      B        0x1cd8 ; 0x1cd8
        0x00001cd8:    49d7        .I      LDR      r1,[pc,#860] ; [0x2038] = 0x20000096
        0x00001cda:    2000        .       MOVS     r0,#0
        0x00001cdc:    7008        .p      STRB     r0,[r1,#0]
        0x00001cde:    e7ff        ..      B        0x1ce0 ; 0x1ce0
        0x00001ce0:    e7ff        ..      B        0x1ce2 ; 0x1ce2
        0x00001ce2:    e7ff        ..      B        0x1ce4 ; 0x1ce4
        0x00001ce4:    e358        X.      B        0x2398 ; 0x2398
        0x00001ce6:    48d6        .H      LDR      r0,[pc,#856] ; [0x2040] = 0x2000037a
        0x00001ce8:    7800        .x      LDRB     r0,[r0,#0]
        0x00001cea:    2803        .(      CMP      r0,#3
        0x00001cec:    db0e        ..      BLT      0x1d0c ; 0x1d0c
        0x00001cee:    e7ff        ..      B        0x1cf0 ; 0x1cf0
        0x00001cf0:    49d4        .I      LDR      r1,[pc,#848] ; [0x2044] = 0x20000314
        0x00001cf2:    20ff        .       MOVS     r0,#0xff
        0x00001cf4:    7008        .p      STRB     r0,[r1,#0]
        0x00001cf6:    f001fa17    ....    BL       ResetMeterUART ; 0x3128
        0x00001cfa:    f002f8a1    ....    BL       SendMeter_GetPowerData ; 0x3e40
        0x00001cfe:    49d2        .I      LDR      r1,[pc,#840] ; [0x2048] = 0x200003a5
        0x00001d00:    2000        .       MOVS     r0,#0
        0x00001d02:    7008        .p      STRB     r0,[r1,#0]
        0x00001d04:    49cd        .I      LDR      r1,[pc,#820] ; [0x203c] = 0x2000030e
        0x00001d06:    2004        .       MOVS     r0,#4
        0x00001d08:    7008        .p      STRB     r0,[r1,#0]
        0x00001d0a:    e7ff        ..      B        0x1d0c ; 0x1d0c
        0x00001d0c:    e344        D.      B        0x2398 ; 0x2398
        0x00001d0e:    48cd        .H      LDR      r0,[pc,#820] ; [0x2044] = 0x20000314
        0x00001d10:    7800        .x      LDRB     r0,[r0,#0]
        0x00001d12:    49ce        .I      LDR      r1,[pc,#824] ; [0x204c] = 0x2000037e
        0x00001d14:    7809        .x      LDRB     r1,[r1,#0]
        0x00001d16:    4288        .B      CMP      r0,r1
        0x00001d18:    d11d        ..      BNE      0x1d56 ; 0x1d56
        0x00001d1a:    e7ff        ..      B        0x1d1c ; 0x1d1c
        0x00001d1c:    48e2        .H      LDR      r0,[pc,#904] ; [0x20a8] = 0x20000390
        0x00001d1e:    7801        .x      LDRB     r1,[r0,#0]
        0x00001d20:    48e2        .H      LDR      r0,[pc,#904] ; [0x20ac] = 0x20000383
        0x00001d22:    1841        A.      ADDS     r1,r0,r1
        0x00001d24:    48de        .H      LDR      r0,[pc,#888] ; [0x20a0] = 0x2000037f
        0x00001d26:    9004        ..      STR      r0,[sp,#0x10]
        0x00001d28:    7800        .x      LDRB     r0,[r0,#0]
        0x00001d2a:    1840        @.      ADDS     r0,r0,r1
        0x00001d2c:    1e41        A.      SUBS     r1,r0,#1
        0x00001d2e:    2000        .       MOVS     r0,#0
        0x00001d30:    7008        .p      STRB     r0,[r1,#0]
        0x00001d32:    2005        .       MOVS     r0,#5
        0x00001d34:    f001f89a    ....    BL       PollSuccess_Handler ; 0x2e6c
        0x00001d38:    9804        ..      LDR      r0,[sp,#0x10]
        0x00001d3a:    7801        .x      LDRB     r1,[r0,#0]
        0x00001d3c:    1c49        I.      ADDS     r1,r1,#1
        0x00001d3e:    7001        .p      STRB     r1,[r0,#0]
        0x00001d40:    7800        .x      LDRB     r0,[r0,#0]
        0x00001d42:    49d8        .I      LDR      r1,[pc,#864] ; [0x20a4] = 0x20000391
        0x00001d44:    7809        .x      LDRB     r1,[r1,#0]
        0x00001d46:    4288        .B      CMP      r0,r1
        0x00001d48:    dd04        ..      BLE      0x1d54 ; 0x1d54
        0x00001d4a:    e7ff        ..      B        0x1d4c ; 0x1d4c
        0x00001d4c:    49ba        .I      LDR      r1,[pc,#744] ; [0x2038] = 0x20000096
        0x00001d4e:    2000        .       MOVS     r0,#0
        0x00001d50:    7008        .p      STRB     r0,[r1,#0]
        0x00001d52:    e7ff        ..      B        0x1d54 ; 0x1d54
        0x00001d54:    e01e        ..      B        0x1d94 ; 0x1d94
        0x00001d56:    48bc        .H      LDR      r0,[pc,#752] ; [0x2048] = 0x200003a5
        0x00001d58:    7800        .x      LDRB     r0,[r0,#0]
        0x00001d5a:    281a        .(      CMP      r0,#0x1a
        0x00001d5c:    db05        ..      BLT      0x1d6a ; 0x1d6a
        0x00001d5e:    e7ff        ..      B        0x1d60 ; 0x1d60
        0x00001d60:    2003        .       MOVS     r0,#3
        0x00001d62:    2105        .!      MOVS     r1,#5
        0x00001d64:    f001f8a0    ....    BL       PollingTimeout_Handler ; 0x2ea8
        0x00001d68:    e7ff        ..      B        0x1d6a ; 0x1d6a
        0x00001d6a:    48b4        .H      LDR      r0,[pc,#720] ; [0x203c] = 0x2000030e
        0x00001d6c:    7800        .x      LDRB     r0,[r0,#0]
        0x00001d6e:    2805        .(      CMP      r0,#5
        0x00001d70:    d10f        ..      BNE      0x1d92 ; 0x1d92
        0x00001d72:    e7ff        ..      B        0x1d74 ; 0x1d74
        0x00001d74:    48ca        .H      LDR      r0,[pc,#808] ; [0x20a0] = 0x2000037f
        0x00001d76:    7801        .x      LDRB     r1,[r0,#0]
        0x00001d78:    1c49        I.      ADDS     r1,r1,#1
        0x00001d7a:    7001        .p      STRB     r1,[r0,#0]
        0x00001d7c:    7800        .x      LDRB     r0,[r0,#0]
        0x00001d7e:    49c9        .I      LDR      r1,[pc,#804] ; [0x20a4] = 0x20000391
        0x00001d80:    7809        .x      LDRB     r1,[r1,#0]
        0x00001d82:    4288        .B      CMP      r0,r1
        0x00001d84:    dd04        ..      BLE      0x1d90 ; 0x1d90
        0x00001d86:    e7ff        ..      B        0x1d88 ; 0x1d88
        0x00001d88:    49ab        .I      LDR      r1,[pc,#684] ; [0x2038] = 0x20000096
        0x00001d8a:    2000        .       MOVS     r0,#0
        0x00001d8c:    7008        .p      STRB     r0,[r1,#0]
        0x00001d8e:    e7ff        ..      B        0x1d90 ; 0x1d90
        0x00001d90:    e7ff        ..      B        0x1d92 ; 0x1d92
        0x00001d92:    e7ff        ..      B        0x1d94 ; 0x1d94
        0x00001d94:    e300        ..      B        0x2398 ; 0x2398
        0x00001d96:    48c6        .H      LDR      r0,[pc,#792] ; [0x20b0] = 0x20000094
        0x00001d98:    7800        .x      LDRB     r0,[r0,#0]
        0x00001d9a:    07c0        ..      LSLS     r0,r0,#31
        0x00001d9c:    2800        .(      CMP      r0,#0
        0x00001d9e:    d104        ..      BNE      0x1daa ; 0x1daa
        0x00001da0:    e7ff        ..      B        0x1da2 ; 0x1da2
        0x00001da2:    49a6        .I      LDR      r1,[pc,#664] ; [0x203c] = 0x2000030e
        0x00001da4:    2007        .       MOVS     r0,#7
        0x00001da6:    7008        .p      STRB     r0,[r1,#0]
        0x00001da8:    e2f6        ..      B        0x2398 ; 0x2398
        0x00001daa:    48a5        .H      LDR      r0,[pc,#660] ; [0x2040] = 0x2000037a
        0x00001dac:    7800        .x      LDRB     r0,[r0,#0]
        0x00001dae:    2803        .(      CMP      r0,#3
        0x00001db0:    db0e        ..      BLT      0x1dd0 ; 0x1dd0
        0x00001db2:    e7ff        ..      B        0x1db4 ; 0x1db4
        0x00001db4:    49a3        .I      LDR      r1,[pc,#652] ; [0x2044] = 0x20000314
        0x00001db6:    20ff        .       MOVS     r0,#0xff
        0x00001db8:    7008        .p      STRB     r0,[r1,#0]
        0x00001dba:    f001f9b5    ....    BL       ResetMeterUART ; 0x3128
        0x00001dbe:    f002f807    ....    BL       SendMeter_GetBmsData ; 0x3dd0
        0x00001dc2:    49a1        .I      LDR      r1,[pc,#644] ; [0x2048] = 0x200003a5
        0x00001dc4:    2000        .       MOVS     r0,#0
        0x00001dc6:    7008        .p      STRB     r0,[r1,#0]
        0x00001dc8:    499c        .I      LDR      r1,[pc,#624] ; [0x203c] = 0x2000030e
        0x00001dca:    2006        .       MOVS     r0,#6
        0x00001dcc:    7008        .p      STRB     r0,[r1,#0]
        0x00001dce:    e7ff        ..      B        0x1dd0 ; 0x1dd0
        0x00001dd0:    e2e2        ..      B        0x2398 ; 0x2398
        0x00001dd2:    489c        .H      LDR      r0,[pc,#624] ; [0x2044] = 0x20000314
        0x00001dd4:    7800        .x      LDRB     r0,[r0,#0]
        0x00001dd6:    499d        .I      LDR      r1,[pc,#628] ; [0x204c] = 0x2000037e
        0x00001dd8:    7809        .x      LDRB     r1,[r1,#0]
        0x00001dda:    4288        .B      CMP      r0,r1
        0x00001ddc:    d11b        ..      BNE      0x1e16 ; 0x1e16
        0x00001dde:    e7ff        ..      B        0x1de0 ; 0x1de0
        0x00001de0:    48b1        .H      LDR      r0,[pc,#708] ; [0x20a8] = 0x20000390
        0x00001de2:    7801        .x      LDRB     r1,[r0,#0]
        0x00001de4:    48b3        .H      LDR      r0,[pc,#716] ; [0x20b4] = 0x20000028
        0x00001de6:    1841        A.      ADDS     r1,r0,r1
        0x00001de8:    48b3        .H      LDR      r0,[pc,#716] ; [0x20b8] = 0x2000037c
        0x00001dea:    9003        ..      STR      r0,[sp,#0xc]
        0x00001dec:    7800        .x      LDRB     r0,[r0,#0]
        0x00001dee:    1840        @.      ADDS     r0,r0,r1
        0x00001df0:    1e41        A.      SUBS     r1,r0,#1
        0x00001df2:    2000        .       MOVS     r0,#0
        0x00001df4:    7008        .p      STRB     r0,[r1,#0]
        0x00001df6:    2007        .       MOVS     r0,#7
        0x00001df8:    f001f838    ..8.    BL       PollSuccess_Handler ; 0x2e6c
        0x00001dfc:    9803        ..      LDR      r0,[sp,#0xc]
        0x00001dfe:    7801        .x      LDRB     r1,[r0,#0]
        0x00001e00:    1c49        I.      ADDS     r1,r1,#1
        0x00001e02:    7001        .p      STRB     r1,[r0,#0]
        0x00001e04:    7800        .x      LDRB     r0,[r0,#0]
        0x00001e06:    2802        .(      CMP      r0,#2
        0x00001e08:    db04        ..      BLT      0x1e14 ; 0x1e14
        0x00001e0a:    e7ff        ..      B        0x1e0c ; 0x1e0c
        0x00001e0c:    49a8        .I      LDR      r1,[pc,#672] ; [0x20b0] = 0x20000094
        0x00001e0e:    2000        .       MOVS     r0,#0
        0x00001e10:    7008        .p      STRB     r0,[r1,#0]
        0x00001e12:    e7ff        ..      B        0x1e14 ; 0x1e14
        0x00001e14:    e01c        ..      B        0x1e50 ; 0x1e50
        0x00001e16:    488c        .H      LDR      r0,[pc,#560] ; [0x2048] = 0x200003a5
        0x00001e18:    7800        .x      LDRB     r0,[r0,#0]
        0x00001e1a:    281a        .(      CMP      r0,#0x1a
        0x00001e1c:    db05        ..      BLT      0x1e2a ; 0x1e2a
        0x00001e1e:    e7ff        ..      B        0x1e20 ; 0x1e20
        0x00001e20:    2005        .       MOVS     r0,#5
        0x00001e22:    2107        .!      MOVS     r1,#7
        0x00001e24:    f001f840    ..@.    BL       PollingTimeout_Handler ; 0x2ea8
        0x00001e28:    e7ff        ..      B        0x1e2a ; 0x1e2a
        0x00001e2a:    4884        .H      LDR      r0,[pc,#528] ; [0x203c] = 0x2000030e
        0x00001e2c:    7800        .x      LDRB     r0,[r0,#0]
        0x00001e2e:    2807        .(      CMP      r0,#7
        0x00001e30:    d10d        ..      BNE      0x1e4e ; 0x1e4e
        0x00001e32:    e7ff        ..      B        0x1e34 ; 0x1e34
        0x00001e34:    48a0        .H      LDR      r0,[pc,#640] ; [0x20b8] = 0x2000037c
        0x00001e36:    7801        .x      LDRB     r1,[r0,#0]
        0x00001e38:    1c49        I.      ADDS     r1,r1,#1
        0x00001e3a:    7001        .p      STRB     r1,[r0,#0]
        0x00001e3c:    7800        .x      LDRB     r0,[r0,#0]
        0x00001e3e:    2802        .(      CMP      r0,#2
        0x00001e40:    db04        ..      BLT      0x1e4c ; 0x1e4c
        0x00001e42:    e7ff        ..      B        0x1e44 ; 0x1e44
        0x00001e44:    499a        .I      LDR      r1,[pc,#616] ; [0x20b0] = 0x20000094
        0x00001e46:    2000        .       MOVS     r0,#0
        0x00001e48:    7008        .p      STRB     r0,[r1,#0]
        0x00001e4a:    e7ff        ..      B        0x1e4c ; 0x1e4c
        0x00001e4c:    e7ff        ..      B        0x1e4e ; 0x1e4e
        0x00001e4e:    e7ff        ..      B        0x1e50 ; 0x1e50
        0x00001e50:    e2a2        ..      B        0x2398 ; 0x2398
        0x00001e52:    489a        .H      LDR      r0,[pc,#616] ; [0x20bc] = 0x20000097
        0x00001e54:    7800        .x      LDRB     r0,[r0,#0]
        0x00001e56:    07c0        ..      LSLS     r0,r0,#31
        0x00001e58:    2800        .(      CMP      r0,#0
        0x00001e5a:    d104        ..      BNE      0x1e66 ; 0x1e66
        0x00001e5c:    e7ff        ..      B        0x1e5e ; 0x1e5e
        0x00001e5e:    4977        wI      LDR      r1,[pc,#476] ; [0x203c] = 0x2000030e
        0x00001e60:    2009        .       MOVS     r0,#9
        0x00001e62:    7008        .p      STRB     r0,[r1,#0]
        0x00001e64:    e298        ..      B        0x2398 ; 0x2398
        0x00001e66:    4876        vH      LDR      r0,[pc,#472] ; [0x2040] = 0x2000037a
        0x00001e68:    7800        .x      LDRB     r0,[r0,#0]
        0x00001e6a:    2803        .(      CMP      r0,#3
        0x00001e6c:    db0e        ..      BLT      0x1e8c ; 0x1e8c
        0x00001e6e:    e7ff        ..      B        0x1e70 ; 0x1e70
        0x00001e70:    4974        tI      LDR      r1,[pc,#464] ; [0x2044] = 0x20000314
        0x00001e72:    20ff        .       MOVS     r0,#0xff
        0x00001e74:    7008        .p      STRB     r0,[r1,#0]
        0x00001e76:    f001f957    ..W.    BL       ResetMeterUART ; 0x3128
        0x00001e7a:    f001fffd    ....    BL       SendMeter_GetWMData ; 0x3e78
        0x00001e7e:    4972        rI      LDR      r1,[pc,#456] ; [0x2048] = 0x200003a5
        0x00001e80:    2000        .       MOVS     r0,#0
        0x00001e82:    7008        .p      STRB     r0,[r1,#0]
        0x00001e84:    496d        mI      LDR      r1,[pc,#436] ; [0x203c] = 0x2000030e
        0x00001e86:    2008        .       MOVS     r0,#8
        0x00001e88:    7008        .p      STRB     r0,[r1,#0]
        0x00001e8a:    e7ff        ..      B        0x1e8c ; 0x1e8c
        0x00001e8c:    e284        ..      B        0x2398 ; 0x2398
        0x00001e8e:    486d        mH      LDR      r0,[pc,#436] ; [0x2044] = 0x20000314
        0x00001e90:    7800        .x      LDRB     r0,[r0,#0]
        0x00001e92:    496e        nI      LDR      r1,[pc,#440] ; [0x204c] = 0x2000037e
        0x00001e94:    7809        .x      LDRB     r1,[r1,#0]
        0x00001e96:    4288        .B      CMP      r0,r1
        0x00001e98:    d11b        ..      BNE      0x1ed2 ; 0x1ed2
        0x00001e9a:    e7ff        ..      B        0x1e9c ; 0x1e9c
        0x00001e9c:    4882        .H      LDR      r0,[pc,#520] ; [0x20a8] = 0x20000390
        0x00001e9e:    7801        .x      LDRB     r1,[r0,#0]
        0x00001ea0:    4887        .H      LDR      r0,[pc,#540] ; [0x20c0] = 0x20000488
        0x00001ea2:    1841        A.      ADDS     r1,r0,r1
        0x00001ea4:    4887        .H      LDR      r0,[pc,#540] ; [0x20c4] = 0x20000380
        0x00001ea6:    9002        ..      STR      r0,[sp,#8]
        0x00001ea8:    7800        .x      LDRB     r0,[r0,#0]
        0x00001eaa:    1840        @.      ADDS     r0,r0,r1
        0x00001eac:    1e41        A.      SUBS     r1,r0,#1
        0x00001eae:    2000        .       MOVS     r0,#0
        0x00001eb0:    7008        .p      STRB     r0,[r1,#0]
        0x00001eb2:    2009        .       MOVS     r0,#9
        0x00001eb4:    f000ffda    ....    BL       PollSuccess_Handler ; 0x2e6c
        0x00001eb8:    9802        ..      LDR      r0,[sp,#8]
        0x00001eba:    7801        .x      LDRB     r1,[r0,#0]
        0x00001ebc:    1c49        I.      ADDS     r1,r1,#1
        0x00001ebe:    7001        .p      STRB     r1,[r0,#0]
        0x00001ec0:    7800        .x      LDRB     r0,[r0,#0]
        0x00001ec2:    2802        .(      CMP      r0,#2
        0x00001ec4:    db04        ..      BLT      0x1ed0 ; 0x1ed0
        0x00001ec6:    e7ff        ..      B        0x1ec8 ; 0x1ec8
        0x00001ec8:    497c        |I      LDR      r1,[pc,#496] ; [0x20bc] = 0x20000097
        0x00001eca:    2000        .       MOVS     r0,#0
        0x00001ecc:    7008        .p      STRB     r0,[r1,#0]
        0x00001ece:    e7ff        ..      B        0x1ed0 ; 0x1ed0
        0x00001ed0:    e01c        ..      B        0x1f0c ; 0x1f0c
        0x00001ed2:    485d        ]H      LDR      r0,[pc,#372] ; [0x2048] = 0x200003a5
        0x00001ed4:    7800        .x      LDRB     r0,[r0,#0]
        0x00001ed6:    281a        .(      CMP      r0,#0x1a
        0x00001ed8:    db05        ..      BLT      0x1ee6 ; 0x1ee6
        0x00001eda:    e7ff        ..      B        0x1edc ; 0x1edc
        0x00001edc:    2007        .       MOVS     r0,#7
        0x00001ede:    2109        .!      MOVS     r1,#9
        0x00001ee0:    f000ffe2    ....    BL       PollingTimeout_Handler ; 0x2ea8
        0x00001ee4:    e7ff        ..      B        0x1ee6 ; 0x1ee6
        0x00001ee6:    4855        UH      LDR      r0,[pc,#340] ; [0x203c] = 0x2000030e
        0x00001ee8:    7800        .x      LDRB     r0,[r0,#0]
        0x00001eea:    2809        .(      CMP      r0,#9
        0x00001eec:    d10d        ..      BNE      0x1f0a ; 0x1f0a
        0x00001eee:    e7ff        ..      B        0x1ef0 ; 0x1ef0
        0x00001ef0:    4874        tH      LDR      r0,[pc,#464] ; [0x20c4] = 0x20000380
        0x00001ef2:    7801        .x      LDRB     r1,[r0,#0]
        0x00001ef4:    1c49        I.      ADDS     r1,r1,#1
        0x00001ef6:    7001        .p      STRB     r1,[r0,#0]
        0x00001ef8:    7800        .x      LDRB     r0,[r0,#0]
        0x00001efa:    2802        .(      CMP      r0,#2
        0x00001efc:    db04        ..      BLT      0x1f08 ; 0x1f08
        0x00001efe:    e7ff        ..      B        0x1f00 ; 0x1f00
        0x00001f00:    496e        nI      LDR      r1,[pc,#440] ; [0x20bc] = 0x20000097
        0x00001f02:    2000        .       MOVS     r0,#0
        0x00001f04:    7008        .p      STRB     r0,[r1,#0]
        0x00001f06:    e7ff        ..      B        0x1f08 ; 0x1f08
        0x00001f08:    e7ff        ..      B        0x1f0a ; 0x1f0a
        0x00001f0a:    e7ff        ..      B        0x1f0c ; 0x1f0c
        0x00001f0c:    e244        D.      B        0x2398 ; 0x2398
        0x00001f0e:    486e        nH      LDR      r0,[pc,#440] ; [0x20c8] = 0x20000095
        0x00001f10:    7800        .x      LDRB     r0,[r0,#0]
        0x00001f12:    07c0        ..      LSLS     r0,r0,#31
        0x00001f14:    2800        .(      CMP      r0,#0
        0x00001f16:    d104        ..      BNE      0x1f22 ; 0x1f22
        0x00001f18:    e7ff        ..      B        0x1f1a ; 0x1f1a
        0x00001f1a:    4948        HI      LDR      r1,[pc,#288] ; [0x203c] = 0x2000030e
        0x00001f1c:    200b        .       MOVS     r0,#0xb
        0x00001f1e:    7008        .p      STRB     r0,[r1,#0]
        0x00001f20:    e23a        :.      B        0x2398 ; 0x2398
        0x00001f22:    4847        GH      LDR      r0,[pc,#284] ; [0x2040] = 0x2000037a
        0x00001f24:    7800        .x      LDRB     r0,[r0,#0]
        0x00001f26:    2803        .(      CMP      r0,#3
        0x00001f28:    db0e        ..      BLT      0x1f48 ; 0x1f48
        0x00001f2a:    e7ff        ..      B        0x1f2c ; 0x1f2c
        0x00001f2c:    4945        EI      LDR      r1,[pc,#276] ; [0x2044] = 0x20000314
        0x00001f2e:    20ff        .       MOVS     r0,#0xff
        0x00001f30:    7008        .p      STRB     r0,[r1,#0]
        0x00001f32:    f001f8f9    ....    BL       ResetMeterUART ; 0x3128
        0x00001f36:    f001ff67    ..g.    BL       SendMeter_GetInvData ; 0x3e08
        0x00001f3a:    4943        CI      LDR      r1,[pc,#268] ; [0x2048] = 0x200003a5
        0x00001f3c:    2000        .       MOVS     r0,#0
        0x00001f3e:    7008        .p      STRB     r0,[r1,#0]
        0x00001f40:    493e        >I      LDR      r1,[pc,#248] ; [0x203c] = 0x2000030e
        0x00001f42:    200a        .       MOVS     r0,#0xa
        0x00001f44:    7008        .p      STRB     r0,[r1,#0]
        0x00001f46:    e7ff        ..      B        0x1f48 ; 0x1f48
        0x00001f48:    e226        &.      B        0x2398 ; 0x2398
        0x00001f4a:    483e        >H      LDR      r0,[pc,#248] ; [0x2044] = 0x20000314
        0x00001f4c:    7800        .x      LDRB     r0,[r0,#0]
        0x00001f4e:    493f        ?I      LDR      r1,[pc,#252] ; [0x204c] = 0x2000037e
        0x00001f50:    7809        .x      LDRB     r1,[r1,#0]
        0x00001f52:    4288        .B      CMP      r0,r1
        0x00001f54:    d11b        ..      BNE      0x1f8e ; 0x1f8e
        0x00001f56:    e7ff        ..      B        0x1f58 ; 0x1f58
        0x00001f58:    4853        SH      LDR      r0,[pc,#332] ; [0x20a8] = 0x20000390
        0x00001f5a:    7801        .x      LDRB     r1,[r0,#0]
        0x00001f5c:    485b        [H      LDR      r0,[pc,#364] ; [0x20cc] = 0x200001d6
        0x00001f5e:    1841        A.      ADDS     r1,r0,r1
        0x00001f60:    485b        [H      LDR      r0,[pc,#364] ; [0x20d0] = 0x2000037d
        0x00001f62:    9001        ..      STR      r0,[sp,#4]
        0x00001f64:    7800        .x      LDRB     r0,[r0,#0]
        0x00001f66:    1840        @.      ADDS     r0,r0,r1
        0x00001f68:    1e41        A.      SUBS     r1,r0,#1
        0x00001f6a:    2000        .       MOVS     r0,#0
        0x00001f6c:    7008        .p      STRB     r0,[r1,#0]
        0x00001f6e:    200b        .       MOVS     r0,#0xb
        0x00001f70:    f000ff7c    ..|.    BL       PollSuccess_Handler ; 0x2e6c
        0x00001f74:    9801        ..      LDR      r0,[sp,#4]
        0x00001f76:    7801        .x      LDRB     r1,[r0,#0]
        0x00001f78:    1c49        I.      ADDS     r1,r1,#1
        0x00001f7a:    7001        .p      STRB     r1,[r0,#0]
        0x00001f7c:    7800        .x      LDRB     r0,[r0,#0]
        0x00001f7e:    2802        .(      CMP      r0,#2
        0x00001f80:    db04        ..      BLT      0x1f8c ; 0x1f8c
        0x00001f82:    e7ff        ..      B        0x1f84 ; 0x1f84
        0x00001f84:    4950        PI      LDR      r1,[pc,#320] ; [0x20c8] = 0x20000095
        0x00001f86:    2000        .       MOVS     r0,#0
        0x00001f88:    7008        .p      STRB     r0,[r1,#0]
        0x00001f8a:    e7ff        ..      B        0x1f8c ; 0x1f8c
        0x00001f8c:    e01c        ..      B        0x1fc8 ; 0x1fc8
        0x00001f8e:    482e        .H      LDR      r0,[pc,#184] ; [0x2048] = 0x200003a5
        0x00001f90:    7800        .x      LDRB     r0,[r0,#0]
        0x00001f92:    281a        .(      CMP      r0,#0x1a
        0x00001f94:    db05        ..      BLT      0x1fa2 ; 0x1fa2
        0x00001f96:    e7ff        ..      B        0x1f98 ; 0x1f98
        0x00001f98:    2009        .       MOVS     r0,#9
        0x00001f9a:    210b        .!      MOVS     r1,#0xb
        0x00001f9c:    f000ff84    ....    BL       PollingTimeout_Handler ; 0x2ea8
        0x00001fa0:    e7ff        ..      B        0x1fa2 ; 0x1fa2
        0x00001fa2:    4826        &H      LDR      r0,[pc,#152] ; [0x203c] = 0x2000030e
        0x00001fa4:    7800        .x      LDRB     r0,[r0,#0]
        0x00001fa6:    280b        .(      CMP      r0,#0xb
        0x00001fa8:    d10d        ..      BNE      0x1fc6 ; 0x1fc6
        0x00001faa:    e7ff        ..      B        0x1fac ; 0x1fac
        0x00001fac:    4848        HH      LDR      r0,[pc,#288] ; [0x20d0] = 0x2000037d
        0x00001fae:    7801        .x      LDRB     r1,[r0,#0]
        0x00001fb0:    1c49        I.      ADDS     r1,r1,#1
        0x00001fb2:    7001        .p      STRB     r1,[r0,#0]
        0x00001fb4:    7800        .x      LDRB     r0,[r0,#0]
        0x00001fb6:    2802        .(      CMP      r0,#2
        0x00001fb8:    db04        ..      BLT      0x1fc4 ; 0x1fc4
        0x00001fba:    e7ff        ..      B        0x1fbc ; 0x1fbc
        0x00001fbc:    49fb        .I      LDR      r1,[pc,#1004] ; [0x23ac] = 0x20000095
        0x00001fbe:    2000        .       MOVS     r0,#0
        0x00001fc0:    7008        .p      STRB     r0,[r1,#0]
        0x00001fc2:    e7ff        ..      B        0x1fc4 ; 0x1fc4
        0x00001fc4:    e7ff        ..      B        0x1fc6 ; 0x1fc6
        0x00001fc6:    e7ff        ..      B        0x1fc8 ; 0x1fc8
        0x00001fc8:    e1e6        ..      B        0x2398 ; 0x2398
        0x00001fca:    481d        .H      LDR      r0,[pc,#116] ; [0x2040] = 0x2000037a
        0x00001fcc:    7800        .x      LDRB     r0,[r0,#0]
        0x00001fce:    2803        .(      CMP      r0,#3
        0x00001fd0:    db1a        ..      BLT      0x2008 ; 0x2008
        0x00001fd2:    e7ff        ..      B        0x1fd4 ; 0x1fd4
        0x00001fd4:    49f8        .I      LDR      r1,[pc,#992] ; [0x23b8] = 0x20000314
        0x00001fd6:    20ff        .       MOVS     r0,#0xff
        0x00001fd8:    7008        .p      STRB     r0,[r1,#0]
        0x00001fda:    f001f8a5    ....    BL       ResetMeterUART ; 0x3128
        0x00001fde:    a807        ..      ADD      r0,sp,#0x1c
        0x00001fe0:    7800        .x      LDRB     r0,[r0,#0]
        0x00001fe2:    2800        .(      CMP      r0,#0
        0x00001fe4:    d00b        ..      BEQ      0x1ffe ; 0x1ffe
        0x00001fe6:    e7ff        ..      B        0x1fe8 ; 0x1fe8
        0x00001fe8:    a807        ..      ADD      r0,sp,#0x1c
        0x00001fea:    7800        .x      LDRB     r0,[r0,#0]
        0x00001fec:    f001ff62    ..b.    BL       SendMeter_MeterOTACmd ; 0x3eb4
        0x00001ff0:    49f2        .I      LDR      r1,[pc,#968] ; [0x23bc] = 0x200003a5
        0x00001ff2:    2000        .       MOVS     r0,#0
        0x00001ff4:    7008        .p      STRB     r0,[r1,#0]
        0x00001ff6:    49ef        .I      LDR      r1,[pc,#956] ; [0x23b4] = 0x2000030e
        0x00001ff8:    200c        .       MOVS     r0,#0xc
        0x00001ffa:    7008        .p      STRB     r0,[r1,#0]
        0x00001ffc:    e003        ..      B        0x2006 ; 0x2006
        0x00001ffe:    49ed        .I      LDR      r1,[pc,#948] ; [0x23b4] = 0x2000030e
        0x00002000:    2000        .       MOVS     r0,#0
        0x00002002:    7008        .p      STRB     r0,[r1,#0]
        0x00002004:    e7ff        ..      B        0x2006 ; 0x2006
        0x00002006:    e7ff        ..      B        0x2008 ; 0x2008
        0x00002008:    e1c6        ..      B        0x2398 ; 0x2398
        0x0000200a:    48eb        .H      LDR      r0,[pc,#940] ; [0x23b8] = 0x20000314
        0x0000200c:    7800        .x      LDRB     r0,[r0,#0]
        0x0000200e:    49e3        .I      LDR      r1,[pc,#908] ; [0x239c] = 0x2000037e
        0x00002010:    7809        .x      LDRB     r1,[r1,#0]
        0x00002012:    4288        .B      CMP      r0,r1
        0x00002014:    d15f        _.      BNE      0x20d6 ; 0x20d6
        0x00002016:    e7ff        ..      B        0x2018 ; 0x2018
        0x00002018:    f001fd22    ..".    BL       SendHost_MeterFWInfo ; 0x3a60
        0x0000201c:    48e1        .H      LDR      r0,[pc,#900] ; [0x23a4] = 0x20000381
        0x0000201e:    7800        .x      LDRB     r0,[r0,#0]
        0x00002020:    49e1        .I      LDR      r1,[pc,#900] ; [0x23a8] = 0x2000030c
        0x00002022:    1840        @.      ADDS     r0,r0,r1
        0x00002024:    1e41        A.      SUBS     r1,r0,#1
        0x00002026:    2000        .       MOVS     r0,#0
        0x00002028:    7008        .p      STRB     r0,[r1,#0]
        0x0000202a:    f000ff1f    ....    BL       PollSuccess_Handler ; 0x2e6c
        0x0000202e:    a807        ..      ADD      r0,sp,#0x1c
        0x00002030:    7800        .x      LDRB     r0,[r0,#0]
        0x00002032:    2820         (      CMP      r0,#0x20
        0x00002034:    d14e        N.      BNE      0x20d4 ; 0x20d4
        0x00002036:    e00b        ..      B        0x2050 ; 0x2050
    $d
    __arm_cp.0_46
        0x00002038:    20000096    ...     DCD    536871062
        0x0000203c:    2000030e    ...     DCD    536871694
        0x00002040:    2000037a    z..     DCD    536871802
        0x00002044:    20000314    ...     DCD    536871700
        0x00002048:    200003a5    ...     DCD    536871845
        0x0000204c:    2000037e    ~..     DCD    536871806
    $t
        0x00002050:    49e3        .I      LDR      r1,[pc,#908] ; [0x23e0] = 0x2000030d
        0x00002052:    2001        .       MOVS     r0,#1
        0x00002054:    7008        .p      STRB     r0,[r1,#0]
        0x00002056:    48e3        .H      LDR      r0,[pc,#908] ; [0x23e4] = 0x20000528
        0x00002058:    9000        ..      STR      r0,[sp,#0]
        0x0000205a:    7b02        .{      LDRB     r2,[r0,#0xc]
        0x0000205c:    7b41        A{      LDRB     r1,[r0,#0xd]
        0x0000205e:    0209        ..      LSLS     r1,r1,#8
        0x00002060:    188a        ..      ADDS     r2,r1,r2
        0x00002062:    7b81        .{      LDRB     r1,[r0,#0xe]
        0x00002064:    040b        ..      LSLS     r3,r1,#16
        0x00002066:    7bc1        .{      LDRB     r1,[r0,#0xf]
        0x00002068:    0609        ..      LSLS     r1,r1,#24
        0x0000206a:    18c9        ..      ADDS     r1,r1,r3
        0x0000206c:    1889        ..      ADDS     r1,r1,r2
        0x0000206e:    4ada        .J      LDR      r2,[pc,#872] ; [0x23d8] = 0x20000394
        0x00002070:    6011        .`      STR      r1,[r2,#0]
        0x00002072:    7c02        .|      LDRB     r2,[r0,#0x10]
        0x00002074:    7c41        A|      LDRB     r1,[r0,#0x11]
        0x00002076:    0209        ..      LSLS     r1,r1,#8
        0x00002078:    1889        ..      ADDS     r1,r1,r2
        0x0000207a:    7c82        .|      LDRB     r2,[r0,#0x12]
        0x0000207c:    0412        ..      LSLS     r2,r2,#16
        0x0000207e:    7cc0        .|      LDRB     r0,[r0,#0x13]
        0x00002080:    0600        ..      LSLS     r0,r0,#24
        0x00002082:    1880        ..      ADDS     r0,r0,r2
        0x00002084:    1840        @.      ADDS     r0,r0,r1
        0x00002086:    49d5        .I      LDR      r1,[pc,#852] ; [0x23dc] = 0x20000478
        0x00002088:    6008        .`      STR      r0,[r1,#0]
        0x0000208a:    48c6        .H      LDR      r0,[pc,#792] ; [0x23a4] = 0x20000381
        0x0000208c:    7800        .x      LDRB     r0,[r0,#0]
        0x0000208e:    49c6        .I      LDR      r1,[pc,#792] ; [0x23a8] = 0x2000030c
        0x00002090:    1840        @.      ADDS     r0,r0,r1
        0x00002092:    1e41        A.      SUBS     r1,r0,#1
        0x00002094:    2000        .       MOVS     r0,#0
        0x00002096:    7008        .p      STRB     r0,[r1,#0]
        0x00002098:    49c6        .I      LDR      r1,[pc,#792] ; [0x23b4] = 0x2000030e
        0x0000209a:    200d        .       MOVS     r0,#0xd
        0x0000209c:    7008        .p      STRB     r0,[r1,#0]
        0x0000209e:    e17b        {.      B        0x2398 ; 0x2398
    $d
        0x000020a0:    2000037f    ...     DCD    536871807
        0x000020a4:    20000391    ...     DCD    536871825
        0x000020a8:    20000390    ...     DCD    536871824
    __arm_cp.0_55
        0x000020ac:    20000383    ...     DCD    536871811
    __arm_cp.0_56
        0x000020b0:    20000094    ...     DCD    536871060
    __arm_cp.0_57
        0x000020b4:    20000028    (..     DCD    536870952
    __arm_cp.0_58
        0x000020b8:    2000037c    |..     DCD    536871804
    __arm_cp.0_59
        0x000020bc:    20000097    ...     DCD    536871063
    __arm_cp.0_60
        0x000020c0:    20000488    ...     DCD    536872072
    __arm_cp.0_61
        0x000020c4:    20000380    ...     DCD    536871808
        0x000020c8:    20000095    ...     DCD    536871061
    __arm_cp.0_63
        0x000020cc:    200001d6    ...     DCD    536871382
    __arm_cp.0_64
        0x000020d0:    2000037d    }..     DCD    536871805
    $t
        0x000020d4:    e00a        ..      B        0x20ec ; 0x20ec
        0x000020d6:    48b9        .H      LDR      r0,[pc,#740] ; [0x23bc] = 0x200003a5
        0x000020d8:    7800        .x      LDRB     r0,[r0,#0]
        0x000020da:    281a        .(      CMP      r0,#0x1a
        0x000020dc:    db05        ..      BLT      0x20ea ; 0x20ea
        0x000020de:    e7ff        ..      B        0x20e0 ; 0x20e0
        0x000020e0:    200b        .       MOVS     r0,#0xb
        0x000020e2:    2100        .!      MOVS     r1,#0
        0x000020e4:    f000fee0    ....    BL       PollingTimeout_Handler ; 0x2ea8
        0x000020e8:    e7ff        ..      B        0x20ea ; 0x20ea
        0x000020ea:    e7ff        ..      B        0x20ec ; 0x20ec
        0x000020ec:    e154        T.      B        0x2398 ; 0x2398
        0x000020ee:    48b5        .H      LDR      r0,[pc,#724] ; [0x23c4] = 0x2000037a
        0x000020f0:    7800        .x      LDRB     r0,[r0,#0]
        0x000020f2:    2803        .(      CMP      r0,#3
        0x000020f4:    db0b        ..      BLT      0x210e ; 0x210e
        0x000020f6:    e7ff        ..      B        0x20f8 ; 0x20f8
        0x000020f8:    49af        .I      LDR      r1,[pc,#700] ; [0x23b8] = 0x20000314
        0x000020fa:    20ff        .       MOVS     r0,#0xff
        0x000020fc:    7008        .p      STRB     r0,[r1,#0]
        0x000020fe:    f001f813    ....    BL       ResetMeterUART ; 0x3128
        0x00002102:    f001fe03    ....    BL       SendMeterBootloader_ConnectCmd ; 0x3d0c
        0x00002106:    49ab        .I      LDR      r1,[pc,#684] ; [0x23b4] = 0x2000030e
        0x00002108:    200e        .       MOVS     r0,#0xe
        0x0000210a:    7008        .p      STRB     r0,[r1,#0]
        0x0000210c:    e7ff        ..      B        0x210e ; 0x210e
        0x0000210e:    e143        C.      B        0x2398 ; 0x2398
        0x00002110:    48a9        .H      LDR      r0,[pc,#676] ; [0x23b8] = 0x20000314
        0x00002112:    7800        .x      LDRB     r0,[r0,#0]
        0x00002114:    49a1        .I      LDR      r1,[pc,#644] ; [0x239c] = 0x2000037e
        0x00002116:    7809        .x      LDRB     r1,[r1,#0]
        0x00002118:    4288        .B      CMP      r0,r1
        0x0000211a:    d117        ..      BNE      0x214c ; 0x214c
        0x0000211c:    e7ff        ..      B        0x211e ; 0x211e
        0x0000211e:    489f        .H      LDR      r0,[pc,#636] ; [0x239c] = 0x2000037e
        0x00002120:    7800        .x      LDRB     r0,[r0,#0]
        0x00002122:    1e41        A.      SUBS     r1,r0,#1
        0x00002124:    489e        .H      LDR      r0,[pc,#632] ; [0x23a0] = 0x20000390
        0x00002126:    7001        .p      STRB     r1,[r0,#0]
        0x00002128:    4aa5        .J      LDR      r2,[pc,#660] ; [0x23c0] = 0x20000382
        0x0000212a:    2100        .!      MOVS     r1,#0
        0x0000212c:    7011        .p      STRB     r1,[r2,#0]
        0x0000212e:    4aa5        .J      LDR      r2,[pc,#660] ; [0x23c4] = 0x2000037a
        0x00002130:    7011        .p      STRB     r1,[r2,#0]
        0x00002132:    4aa5        .J      LDR      r2,[pc,#660] ; [0x23c8] = 0x20000098
        0x00002134:    7011        .p      STRB     r1,[r2,#0]
        0x00002136:    7800        .x      LDRB     r0,[r0,#0]
        0x00002138:    2201        ."      MOVS     r2,#1
        0x0000213a:    4082        .@      LSLS     r2,r2,r0
        0x0000213c:    49a3        .I      LDR      r1,[pc,#652] ; [0x23cc] = 0x200002b4
        0x0000213e:    6808        .h      LDR      r0,[r1,#0]
        0x00002140:    4390        .C      BICS     r0,r0,r2
        0x00002142:    6008        .`      STR      r0,[r1,#0]
        0x00002144:    499b        .I      LDR      r1,[pc,#620] ; [0x23b4] = 0x2000030e
        0x00002146:    200f        .       MOVS     r0,#0xf
        0x00002148:    7008        .p      STRB     r0,[r1,#0]
        0x0000214a:    e00a        ..      B        0x2162 ; 0x2162
        0x0000214c:    489b        .H      LDR      r0,[pc,#620] ; [0x23bc] = 0x200003a5
        0x0000214e:    7800        .x      LDRB     r0,[r0,#0]
        0x00002150:    281a        .(      CMP      r0,#0x1a
        0x00002152:    db05        ..      BLT      0x2160 ; 0x2160
        0x00002154:    e7ff        ..      B        0x2156 ; 0x2156
        0x00002156:    200d        .       MOVS     r0,#0xd
        0x00002158:    2100        .!      MOVS     r1,#0
        0x0000215a:    f000fea5    ....    BL       PollingTimeout_Handler ; 0x2ea8
        0x0000215e:    e7ff        ..      B        0x2160 ; 0x2160
        0x00002160:    e7ff        ..      B        0x2162 ; 0x2162
        0x00002162:    e119        ..      B        0x2398 ; 0x2398
        0x00002164:    4897        .H      LDR      r0,[pc,#604] ; [0x23c4] = 0x2000037a
        0x00002166:    7800        .x      LDRB     r0,[r0,#0]
        0x00002168:    2803        .(      CMP      r0,#3
        0x0000216a:    db0b        ..      BLT      0x2184 ; 0x2184
        0x0000216c:    e7ff        ..      B        0x216e ; 0x216e
        0x0000216e:    49f6        .I      LDR      r1,[pc,#984] ; [0x2548] = 0x20000314
        0x00002170:    20ff        .       MOVS     r0,#0xff
        0x00002172:    7008        .p      STRB     r0,[r1,#0]
        0x00002174:    f000ffd8    ....    BL       ResetMeterUART ; 0x3128
        0x00002178:    f001fdd6    ....    BL       SendMeterBootloader_UpdateMetadata ; 0x3d28
        0x0000217c:    498d        .I      LDR      r1,[pc,#564] ; [0x23b4] = 0x2000030e
        0x0000217e:    2010        .       MOVS     r0,#0x10
        0x00002180:    7008        .p      STRB     r0,[r1,#0]
        0x00002182:    e7ff        ..      B        0x2184 ; 0x2184
        0x00002184:    e108        ..      B        0x2398 ; 0x2398
        0x00002186:    48f0        .H      LDR      r0,[pc,#960] ; [0x2548] = 0x20000314
        0x00002188:    7800        .x      LDRB     r0,[r0,#0]
        0x0000218a:    4984        .I      LDR      r1,[pc,#528] ; [0x239c] = 0x2000037e
        0x0000218c:    7809        .x      LDRB     r1,[r1,#0]
        0x0000218e:    4288        .B      CMP      r0,r1
        0x00002190:    d117        ..      BNE      0x21c2 ; 0x21c2
        0x00002192:    e7ff        ..      B        0x2194 ; 0x2194
        0x00002194:    4881        .H      LDR      r0,[pc,#516] ; [0x239c] = 0x2000037e
        0x00002196:    7800        .x      LDRB     r0,[r0,#0]
        0x00002198:    1e41        A.      SUBS     r1,r0,#1
        0x0000219a:    4881        .H      LDR      r0,[pc,#516] ; [0x23a0] = 0x20000390
        0x0000219c:    7001        .p      STRB     r1,[r0,#0]
        0x0000219e:    4a88        .J      LDR      r2,[pc,#544] ; [0x23c0] = 0x20000382
        0x000021a0:    2100        .!      MOVS     r1,#0
        0x000021a2:    7011        .p      STRB     r1,[r2,#0]
        0x000021a4:    4a87        .J      LDR      r2,[pc,#540] ; [0x23c4] = 0x2000037a
        0x000021a6:    7011        .p      STRB     r1,[r2,#0]
        0x000021a8:    4a87        .J      LDR      r2,[pc,#540] ; [0x23c8] = 0x20000098
        0x000021aa:    7011        .p      STRB     r1,[r2,#0]
        0x000021ac:    7800        .x      LDRB     r0,[r0,#0]
        0x000021ae:    2201        ."      MOVS     r2,#1
        0x000021b0:    4082        .@      LSLS     r2,r2,r0
        0x000021b2:    4986        .I      LDR      r1,[pc,#536] ; [0x23cc] = 0x200002b4
        0x000021b4:    6808        .h      LDR      r0,[r1,#0]
        0x000021b6:    4390        .C      BICS     r0,r0,r2
        0x000021b8:    6008        .`      STR      r0,[r1,#0]
        0x000021ba:    497e        ~I      LDR      r1,[pc,#504] ; [0x23b4] = 0x2000030e
        0x000021bc:    2011        .       MOVS     r0,#0x11
        0x000021be:    7008        .p      STRB     r0,[r1,#0]
        0x000021c0:    e00a        ..      B        0x21d8 ; 0x21d8
        0x000021c2:    487e        ~H      LDR      r0,[pc,#504] ; [0x23bc] = 0x200003a5
        0x000021c4:    7800        .x      LDRB     r0,[r0,#0]
        0x000021c6:    281a        .(      CMP      r0,#0x1a
        0x000021c8:    db05        ..      BLT      0x21d6 ; 0x21d6
        0x000021ca:    e7ff        ..      B        0x21cc ; 0x21cc
        0x000021cc:    200f        .       MOVS     r0,#0xf
        0x000021ce:    2100        .!      MOVS     r1,#0
        0x000021d0:    f000fe6a    ..j.    BL       PollingTimeout_Handler ; 0x2ea8
        0x000021d4:    e7ff        ..      B        0x21d6 ; 0x21d6
        0x000021d6:    e7ff        ..      B        0x21d8 ; 0x21d8
        0x000021d8:    e0de        ..      B        0x2398 ; 0x2398
        0x000021da:    487a        zH      LDR      r0,[pc,#488] ; [0x23c4] = 0x2000037a
        0x000021dc:    7800        .x      LDRB     r0,[r0,#0]
        0x000021de:    2803        .(      CMP      r0,#3
        0x000021e0:    db0b        ..      BLT      0x21fa ; 0x21fa
        0x000021e2:    e7ff        ..      B        0x21e4 ; 0x21e4
        0x000021e4:    49d8        .I      LDR      r1,[pc,#864] ; [0x2548] = 0x20000314
        0x000021e6:    20ff        .       MOVS     r0,#0xff
        0x000021e8:    7008        .p      STRB     r0,[r1,#0]
        0x000021ea:    f000ff9d    ....    BL       ResetMeterUART ; 0x3128
        0x000021ee:    f001fd39    ..9.    BL       SendMeterBootloader_CmdEraseAPROM ; 0x3c64
        0x000021f2:    4970        pI      LDR      r1,[pc,#448] ; [0x23b4] = 0x2000030e
        0x000021f4:    2012        .       MOVS     r0,#0x12
        0x000021f6:    7008        .p      STRB     r0,[r1,#0]
        0x000021f8:    e7ff        ..      B        0x21fa ; 0x21fa
        0x000021fa:    e0cd        ..      B        0x2398 ; 0x2398
        0x000021fc:    48d2        .H      LDR      r0,[pc,#840] ; [0x2548] = 0x20000314
        0x000021fe:    7800        .x      LDRB     r0,[r0,#0]
        0x00002200:    4966        fI      LDR      r1,[pc,#408] ; [0x239c] = 0x2000037e
        0x00002202:    7809        .x      LDRB     r1,[r1,#0]
        0x00002204:    4288        .B      CMP      r0,r1
        0x00002206:    d117        ..      BNE      0x2238 ; 0x2238
        0x00002208:    e7ff        ..      B        0x220a ; 0x220a
        0x0000220a:    4864        dH      LDR      r0,[pc,#400] ; [0x239c] = 0x2000037e
        0x0000220c:    7800        .x      LDRB     r0,[r0,#0]
        0x0000220e:    1e41        A.      SUBS     r1,r0,#1
        0x00002210:    4863        cH      LDR      r0,[pc,#396] ; [0x23a0] = 0x20000390
        0x00002212:    7001        .p      STRB     r1,[r0,#0]
        0x00002214:    4a6a        jJ      LDR      r2,[pc,#424] ; [0x23c0] = 0x20000382
        0x00002216:    2100        .!      MOVS     r1,#0
        0x00002218:    7011        .p      STRB     r1,[r2,#0]
        0x0000221a:    4a6a        jJ      LDR      r2,[pc,#424] ; [0x23c4] = 0x2000037a
        0x0000221c:    7011        .p      STRB     r1,[r2,#0]
        0x0000221e:    4a6a        jJ      LDR      r2,[pc,#424] ; [0x23c8] = 0x20000098
        0x00002220:    7011        .p      STRB     r1,[r2,#0]
        0x00002222:    7800        .x      LDRB     r0,[r0,#0]
        0x00002224:    2201        ."      MOVS     r2,#1
        0x00002226:    4082        .@      LSLS     r2,r2,r0
        0x00002228:    4968        hI      LDR      r1,[pc,#416] ; [0x23cc] = 0x200002b4
        0x0000222a:    6808        .h      LDR      r0,[r1,#0]
        0x0000222c:    4390        .C      BICS     r0,r0,r2
        0x0000222e:    6008        .`      STR      r0,[r1,#0]
        0x00002230:    4960        `I      LDR      r1,[pc,#384] ; [0x23b4] = 0x2000030e
        0x00002232:    2013        .       MOVS     r0,#0x13
        0x00002234:    7008        .p      STRB     r0,[r1,#0]
        0x00002236:    e00a        ..      B        0x224e ; 0x224e
        0x00002238:    4860        `H      LDR      r0,[pc,#384] ; [0x23bc] = 0x200003a5
        0x0000223a:    7800        .x      LDRB     r0,[r0,#0]
        0x0000223c:    281a        .(      CMP      r0,#0x1a
        0x0000223e:    db05        ..      BLT      0x224c ; 0x224c
        0x00002240:    e7ff        ..      B        0x2242 ; 0x2242
        0x00002242:    2011        .       MOVS     r0,#0x11
        0x00002244:    2100        .!      MOVS     r1,#0
        0x00002246:    f000fe2f    ../.    BL       PollingTimeout_Handler ; 0x2ea8
        0x0000224a:    e7ff        ..      B        0x224c ; 0x224c
        0x0000224c:    e7ff        ..      B        0x224e ; 0x224e
        0x0000224e:    e0a3        ..      B        0x2398 ; 0x2398
        0x00002250:    485c        \H      LDR      r0,[pc,#368] ; [0x23c4] = 0x2000037a
        0x00002252:    7800        .x      LDRB     r0,[r0,#0]
        0x00002254:    2803        .(      CMP      r0,#3
        0x00002256:    db0b        ..      BLT      0x2270 ; 0x2270
        0x00002258:    e7ff        ..      B        0x225a ; 0x225a
        0x0000225a:    49bb        .I      LDR      r1,[pc,#748] ; [0x2548] = 0x20000314
        0x0000225c:    20ff        .       MOVS     r0,#0xff
        0x0000225e:    7008        .p      STRB     r0,[r1,#0]
        0x00002260:    f000ff62    ..b.    BL       ResetMeterUART ; 0x3128
        0x00002264:    f001fd26    ..&.    BL       SendMeterBootloader_CmdUpdateAPROM ; 0x3cb4
        0x00002268:    4952        RI      LDR      r1,[pc,#328] ; [0x23b4] = 0x2000030e
        0x0000226a:    2014        .       MOVS     r0,#0x14
        0x0000226c:    7008        .p      STRB     r0,[r1,#0]
        0x0000226e:    e7ff        ..      B        0x2270 ; 0x2270
        0x00002270:    e092        ..      B        0x2398 ; 0x2398
        0x00002272:    48b5        .H      LDR      r0,[pc,#724] ; [0x2548] = 0x20000314
        0x00002274:    7800        .x      LDRB     r0,[r0,#0]
        0x00002276:    4949        II      LDR      r1,[pc,#292] ; [0x239c] = 0x2000037e
        0x00002278:    7809        .x      LDRB     r1,[r1,#0]
        0x0000227a:    4288        .B      CMP      r0,r1
        0x0000227c:    d12b        +.      BNE      0x22d6 ; 0x22d6
        0x0000227e:    e7ff        ..      B        0x2280 ; 0x2280
        0x00002280:    4846        FH      LDR      r0,[pc,#280] ; [0x239c] = 0x2000037e
        0x00002282:    7800        .x      LDRB     r0,[r0,#0]
        0x00002284:    1e41        A.      SUBS     r1,r0,#1
        0x00002286:    4846        FH      LDR      r0,[pc,#280] ; [0x23a0] = 0x20000390
        0x00002288:    7001        .p      STRB     r1,[r0,#0]
        0x0000228a:    4a4d        MJ      LDR      r2,[pc,#308] ; [0x23c0] = 0x20000382
        0x0000228c:    2100        .!      MOVS     r1,#0
        0x0000228e:    7011        .p      STRB     r1,[r2,#0]
        0x00002290:    4a4c        LJ      LDR      r2,[pc,#304] ; [0x23c4] = 0x2000037a
        0x00002292:    7011        .p      STRB     r1,[r2,#0]
        0x00002294:    4a4c        LJ      LDR      r2,[pc,#304] ; [0x23c8] = 0x20000098
        0x00002296:    7011        .p      STRB     r1,[r2,#0]
        0x00002298:    7800        .x      LDRB     r0,[r0,#0]
        0x0000229a:    2201        ."      MOVS     r2,#1
        0x0000229c:    4082        .@      LSLS     r2,r2,r0
        0x0000229e:    494b        KI      LDR      r1,[pc,#300] ; [0x23cc] = 0x200002b4
        0x000022a0:    6808        .h      LDR      r0,[r1,#0]
        0x000022a2:    4390        .C      BICS     r0,r0,r2
        0x000022a4:    6008        .`      STR      r0,[r1,#0]
        0x000022a6:    484b        KH      LDR      r0,[pc,#300] ; [0x23d4] = 0x20000548
        0x000022a8:    6803        .h      LDR      r3,[r0,#0]
        0x000022aa:    4a4b        KJ      LDR      r2,[pc,#300] ; [0x23d8] = 0x20000394
        0x000022ac:    6811        .h      LDR      r1,[r2,#0]
        0x000022ae:    18c9        ..      ADDS     r1,r1,r3
        0x000022b0:    6011        .`      STR      r1,[r2,#0]
        0x000022b2:    6802        .h      LDR      r2,[r0,#0]
        0x000022b4:    4849        IH      LDR      r0,[pc,#292] ; [0x23dc] = 0x20000478
        0x000022b6:    6801        .h      LDR      r1,[r0,#0]
        0x000022b8:    1a89        ..      SUBS     r1,r1,r2
        0x000022ba:    6001        .`      STR      r1,[r0,#0]
        0x000022bc:    6800        .h      LDR      r0,[r0,#0]
        0x000022be:    2800        .(      CMP      r0,#0
        0x000022c0:    d104        ..      BNE      0x22cc ; 0x22cc
        0x000022c2:    e7ff        ..      B        0x22c4 ; 0x22c4
        0x000022c4:    493b        ;I      LDR      r1,[pc,#236] ; [0x23b4] = 0x2000030e
        0x000022c6:    2015        .       MOVS     r0,#0x15
        0x000022c8:    7008        .p      STRB     r0,[r1,#0]
        0x000022ca:    e003        ..      B        0x22d4 ; 0x22d4
        0x000022cc:    4939        9I      LDR      r1,[pc,#228] ; [0x23b4] = 0x2000030e
        0x000022ce:    2013        .       MOVS     r0,#0x13
        0x000022d0:    7008        .p      STRB     r0,[r1,#0]
        0x000022d2:    e7ff        ..      B        0x22d4 ; 0x22d4
        0x000022d4:    e00a        ..      B        0x22ec ; 0x22ec
        0x000022d6:    4839        9H      LDR      r0,[pc,#228] ; [0x23bc] = 0x200003a5
        0x000022d8:    7800        .x      LDRB     r0,[r0,#0]
        0x000022da:    281a        .(      CMP      r0,#0x1a
        0x000022dc:    db05        ..      BLT      0x22ea ; 0x22ea
        0x000022de:    e7ff        ..      B        0x22e0 ; 0x22e0
        0x000022e0:    2013        .       MOVS     r0,#0x13
        0x000022e2:    2100        .!      MOVS     r1,#0
        0x000022e4:    f000fde0    ....    BL       PollingTimeout_Handler ; 0x2ea8
        0x000022e8:    e7ff        ..      B        0x22ea ; 0x22ea
        0x000022ea:    e7ff        ..      B        0x22ec ; 0x22ec
        0x000022ec:    e054        T.      B        0x2398 ; 0x2398
        0x000022ee:    4896        .H      LDR      r0,[pc,#600] ; [0x2548] = 0x20000314
        0x000022f0:    7800        .x      LDRB     r0,[r0,#0]
        0x000022f2:    492a        *I      LDR      r1,[pc,#168] ; [0x239c] = 0x2000037e
        0x000022f4:    7809        .x      LDRB     r1,[r1,#0]
        0x000022f6:    4288        .B      CMP      r0,r1
        0x000022f8:    d13a        :.      BNE      0x2370 ; 0x2370
        0x000022fa:    e7ff        ..      B        0x22fc ; 0x22fc
        0x000022fc:    4827        'H      LDR      r0,[pc,#156] ; [0x239c] = 0x2000037e
        0x000022fe:    7800        .x      LDRB     r0,[r0,#0]
        0x00002300:    1e41        A.      SUBS     r1,r0,#1
        0x00002302:    4827        'H      LDR      r0,[pc,#156] ; [0x23a0] = 0x20000390
        0x00002304:    7001        .p      STRB     r1,[r0,#0]
        0x00002306:    4a2e        .J      LDR      r2,[pc,#184] ; [0x23c0] = 0x20000382
        0x00002308:    2100        .!      MOVS     r1,#0
        0x0000230a:    7011        .p      STRB     r1,[r2,#0]
        0x0000230c:    4a2d        -J      LDR      r2,[pc,#180] ; [0x23c4] = 0x2000037a
        0x0000230e:    7011        .p      STRB     r1,[r2,#0]
        0x00002310:    4a2d        -J      LDR      r2,[pc,#180] ; [0x23c8] = 0x20000098
        0x00002312:    7011        .p      STRB     r1,[r2,#0]
        0x00002314:    7800        .x      LDRB     r0,[r0,#0]
        0x00002316:    2201        ."      MOVS     r2,#1
        0x00002318:    4082        .@      LSLS     r2,r2,r0
        0x0000231a:    492c        ,I      LDR      r1,[pc,#176] ; [0x23cc] = 0x200002b4
        0x0000231c:    6808        .h      LDR      r0,[r1,#0]
        0x0000231e:    4390        .C      BICS     r0,r0,r2
        0x00002320:    6008        .`      STR      r0,[r1,#0]
        0x00002322:    48a1        .H      LDR      r0,[pc,#644] ; [0x25a8] = 0x2000040e
        0x00002324:    7900        .y      LDRB     r0,[r0,#4]
        0x00002326:    280a        .(      CMP      r0,#0xa
        0x00002328:    d121        !.      BNE      0x236e ; 0x236e
        0x0000232a:    e7ff        ..      B        0x232c ; 0x232c
        0x0000232c:    489e        .H      LDR      r0,[pc,#632] ; [0x25a8] = 0x2000040e
        0x0000232e:    7940        @y      LDRB     r0,[r0,#5]
        0x00002330:    28bb        .(      CMP      r0,#0xbb
        0x00002332:    d11c        ..      BNE      0x236e ; 0x236e
        0x00002334:    e7ff        ..      B        0x2336 ; 0x2336
        0x00002336:    489c        .H      LDR      r0,[pc,#624] ; [0x25a8] = 0x2000040e
        0x00002338:    7980        .y      LDRB     r0,[r0,#6]
        0x0000233a:    28c0        .(      CMP      r0,#0xc0
        0x0000233c:    d117        ..      BNE      0x236e ; 0x236e
        0x0000233e:    e7ff        ..      B        0x2340 ; 0x2340
        0x00002340:    4899        .H      LDR      r0,[pc,#612] ; [0x25a8] = 0x2000040e
        0x00002342:    79c0        .y      LDRB     r0,[r0,#7]
        0x00002344:    28dd        .(      CMP      r0,#0xdd
        0x00002346:    d112        ..      BNE      0x236e ; 0x236e
        0x00002348:    e7ff        ..      B        0x234a ; 0x234a
        0x0000234a:    4819        .H      LDR      r0,[pc,#100] ; [0x23b0] = 0x2000037f
        0x0000234c:    7801        .x      LDRB     r1,[r0,#0]
        0x0000234e:    1c49        I.      ADDS     r1,r1,#1
        0x00002350:    7001        .p      STRB     r1,[r0,#0]
        0x00002352:    7800        .x      LDRB     r0,[r0,#0]
        0x00002354:    491e        .I      LDR      r1,[pc,#120] ; [0x23d0] = 0x20000391
        0x00002356:    7809        .x      LDRB     r1,[r1,#0]
        0x00002358:    4288        .B      CMP      r0,r1
        0x0000235a:    dd04        ..      BLE      0x2366 ; 0x2366
        0x0000235c:    e7ff        ..      B        0x235e ; 0x235e
        0x0000235e:    4914        .I      LDR      r1,[pc,#80] ; [0x23b0] = 0x2000037f
        0x00002360:    2001        .       MOVS     r0,#1
        0x00002362:    7008        .p      STRB     r0,[r1,#0]
        0x00002364:    e7ff        ..      B        0x2366 ; 0x2366
        0x00002366:    4913        .I      LDR      r1,[pc,#76] ; [0x23b4] = 0x2000030e
        0x00002368:    2000        .       MOVS     r0,#0
        0x0000236a:    7008        .p      STRB     r0,[r1,#0]
        0x0000236c:    e7ff        ..      B        0x236e ; 0x236e
        0x0000236e:    e011        ..      B        0x2394 ; 0x2394
        0x00002370:    4812        .H      LDR      r0,[pc,#72] ; [0x23bc] = 0x200003a5
        0x00002372:    7800        .x      LDRB     r0,[r0,#0]
        0x00002374:    281a        .(      CMP      r0,#0x1a
        0x00002376:    db0c        ..      BLT      0x2392 ; 0x2392
        0x00002378:    e7ff        ..      B        0x237a ; 0x237a
        0x0000237a:    480a        .H      LDR      r0,[pc,#40] ; [0x23a4] = 0x20000381
        0x0000237c:    7800        .x      LDRB     r0,[r0,#0]
        0x0000237e:    490a        .I      LDR      r1,[pc,#40] ; [0x23a8] = 0x2000030c
        0x00002380:    1840        @.      ADDS     r0,r0,r1
        0x00002382:    1e41        A.      SUBS     r1,r0,#1
        0x00002384:    2020                MOVS     r0,#0x20
        0x00002386:    7008        .p      STRB     r0,[r1,#0]
        0x00002388:    2100        .!      MOVS     r1,#0
        0x0000238a:    4608        .F      MOV      r0,r1
        0x0000238c:    f000fd8c    ....    BL       PollingTimeout_Handler ; 0x2ea8
        0x00002390:    e7ff        ..      B        0x2392 ; 0x2392
        0x00002392:    e7ff        ..      B        0x2394 ; 0x2394
        0x00002394:    e000        ..      B        0x2398 ; 0x2398
        0x00002396:    e7ff        ..      B        0x2398 ; 0x2398
        0x00002398:    b008        ..      ADD      sp,sp,#0x20
        0x0000239a:    bd80        ..      POP      {r7,pc}
    $d
    __arm_cp.0_0
        0x0000239c:    2000037e    ~..     DCD    536871806
    __arm_cp.0_1
        0x000023a0:    20000390    ...     DCD    536871824
    __arm_cp.0_2
        0x000023a4:    20000381    ...     DCD    536871809
    __arm_cp.0_3
        0x000023a8:    2000030c    ...     DCD    536871692
    __arm_cp.0_7
        0x000023ac:    20000095    ...     DCD    536871061
    __arm_cp.0_8
        0x000023b0:    2000037f    ...     DCD    536871807
    __arm_cp.0_13
        0x000023b4:    2000030e    ...     DCD    536871694
    __arm_cp.0_14
        0x000023b8:    20000314    ...     DCD    536871700
    __arm_cp.0_15
        0x000023bc:    200003a5    ...     DCD    536871845
    __arm_cp.0_16
        0x000023c0:    20000382    ...     DCD    536871810
    __arm_cp.0_17
        0x000023c4:    2000037a    z..     DCD    536871802
    __arm_cp.0_18
        0x000023c8:    20000098    ...     DCD    536871064
    __arm_cp.0_19
        0x000023cc:    200002b4    ...     DCD    536871604
    __arm_cp.0_21
        0x000023d0:    20000391    ...     DCD    536871825
    __arm_cp.0_22
        0x000023d4:    20000548    H..     DCD    536872264
    __arm_cp.0_23
        0x000023d8:    20000394    ...     DCD    536871828
    __arm_cp.0_24
        0x000023dc:    20000478    x..     DCD    536872056
    __arm_cp.0_25
        0x000023e0:    2000030d    ...     DCD    536871693
    __arm_cp.0_26
        0x000023e4:    20000528    (..     DCD    536872232
    $t
    MeterProcess
        0x000023e8:    b580        ..      PUSH     {r7,lr}
        0x000023ea:    b084        ..      SUB      sp,sp,#0x10
        0x000023ec:    4853        SH      LDR      r0,[pc,#332] ; [0x253c] = 0x200003a3
        0x000023ee:    7800        .x      LDRB     r0,[r0,#0]
        0x000023f0:    2831        1(      CMP      r0,#0x31
        0x000023f2:    d107        ..      BNE      0x2404 ; MeterProcess + 28
        0x000023f4:    e7ff        ..      B        0x23f6 ; MeterProcess + 14
        0x000023f6:    4951        QI      LDR      r1,[pc,#324] ; [0x253c] = 0x200003a3
        0x000023f8:    7808        .x      LDRB     r0,[r1,#0]
        0x000023fa:    1c40        @.      ADDS     r0,r0,#1
        0x000023fc:    7008        .p      STRB     r0,[r1,#0]
        0x000023fe:    f000fe93    ....    BL       ResetMeterUART ; 0x3128
        0x00002402:    e7ff        ..      B        0x2404 ; MeterProcess + 28
        0x00002404:    484e        NH      LDR      r0,[pc,#312] ; [0x2540] = 0x20000315
        0x00002406:    7800        .x      LDRB     r0,[r0,#0]
        0x00002408:    2800        .(      CMP      r0,#0
        0x0000240a:    d100        ..      BNE      0x240e ; MeterProcess + 38
        0x0000240c:    e093        ..      B        0x2536 ; MeterProcess + 334
        0x0000240e:    494c        LI      LDR      r1,[pc,#304] ; [0x2540] = 0x20000315
        0x00002410:    2000        .       MOVS     r0,#0
        0x00002412:    7008        .p      STRB     r0,[r1,#0]
        0x00002414:    a902        ..      ADD      r1,sp,#8
        0x00002416:    7008        .p      STRB     r0,[r1,#0]
        0x00002418:    a903        ..      ADD      r1,sp,#0xc
        0x0000241a:    2001        .       MOVS     r0,#1
        0x0000241c:    7008        .p      STRB     r0,[r1,#0]
        0x0000241e:    e7ff        ..      B        0x2420 ; MeterProcess + 56
        0x00002420:    a803        ..      ADD      r0,sp,#0xc
        0x00002422:    7800        .x      LDRB     r0,[r0,#0]
        0x00002424:    2861        a(      CMP      r0,#0x61
        0x00002426:    dc0e        ..      BGT      0x2446 ; MeterProcess + 94
        0x00002428:    e7ff        ..      B        0x242a ; MeterProcess + 66
        0x0000242a:    a803        ..      ADD      r0,sp,#0xc
        0x0000242c:    7801        .x      LDRB     r1,[r0,#0]
        0x0000242e:    48fe        .H      LDR      r0,[pc,#1016] ; [0x2828] = 0x2000040e
        0x00002430:    5c41        A\      LDRB     r1,[r0,r1]
        0x00002432:    9802        ..      LDR      r0,[sp,#8]
        0x00002434:    1840        @.      ADDS     r0,r0,r1
        0x00002436:    a902        ..      ADD      r1,sp,#8
        0x00002438:    7008        .p      STRB     r0,[r1,#0]
        0x0000243a:    e7ff        ..      B        0x243c ; MeterProcess + 84
        0x0000243c:    9803        ..      LDR      r0,[sp,#0xc]
        0x0000243e:    1c40        @.      ADDS     r0,r0,#1
        0x00002440:    a903        ..      ADD      r1,sp,#0xc
        0x00002442:    7008        .p      STRB     r0,[r1,#0]
        0x00002444:    e7ec        ..      B        0x2420 ; MeterProcess + 56
        0x00002446:    48f8        .H      LDR      r0,[pc,#992] ; [0x2828] = 0x2000040e
        0x00002448:    7800        .x      LDRB     r0,[r0,#0]
        0x0000244a:    2855        U(      CMP      r0,#0x55
        0x0000244c:    d16f        o.      BNE      0x252e ; MeterProcess + 326
        0x0000244e:    e7ff        ..      B        0x2450 ; MeterProcess + 104
        0x00002450:    48f5        .H      LDR      r0,[pc,#980] ; [0x2828] = 0x2000040e
        0x00002452:    2162        b!      MOVS     r1,#0x62
        0x00002454:    5c40        @\      LDRB     r0,[r0,r1]
        0x00002456:    a902        ..      ADD      r1,sp,#8
        0x00002458:    7809        .x      LDRB     r1,[r1,#0]
        0x0000245a:    4288        .B      CMP      r0,r1
        0x0000245c:    d167        g.      BNE      0x252e ; MeterProcess + 326
        0x0000245e:    e7ff        ..      B        0x2460 ; MeterProcess + 120
        0x00002460:    4938        8I      LDR      r1,[pc,#224] ; [0x2544] = 0x500042dc
        0x00002462:    6808        .h      LDR      r0,[r1,#0]
        0x00002464:    2201        ."      MOVS     r2,#1
        0x00002466:    4050        P@      EORS     r0,r0,r2
        0x00002468:    6008        .`      STR      r0,[r1,#0]
        0x0000246a:    48fe        .H      LDR      r0,[pc,#1016] ; [0x2864] = 0x2000040e
        0x0000246c:    7840        @x      LDRB     r0,[r0,#1]
        0x0000246e:    4936        6I      LDR      r1,[pc,#216] ; [0x2548] = 0x20000314
        0x00002470:    7008        .p      STRB     r0,[r1,#0]
        0x00002472:    4836        6H      LDR      r0,[pc,#216] ; [0x254c] = 0x2000030d
        0x00002474:    7800        .x      LDRB     r0,[r0,#0]
        0x00002476:    2800        .(      CMP      r0,#0
        0x00002478:    d005        ..      BEQ      0x2486 ; MeterProcess + 158
        0x0000247a:    e7ff        ..      B        0x247c ; MeterProcess + 148
        0x0000247c:    48f9        .H      LDR      r0,[pc,#996] ; [0x2864] = 0x2000040e
        0x0000247e:    78c0        .x      LDRB     r0,[r0,#3]
        0x00002480:    4934        4I      LDR      r1,[pc,#208] ; [0x2554] = 0x200004fc
        0x00002482:    7008        .p      STRB     r0,[r1,#0]
        0x00002484:    e052        R.      B        0x252c ; MeterProcess + 324
        0x00002486:    48f7        .H      LDR      r0,[pc,#988] ; [0x2864] = 0x2000040e
        0x00002488:    7880        .x      LDRB     r0,[r0,#2]
        0x0000248a:    3820         8      SUBS     r0,r0,#0x20
        0x0000248c:    9001        ..      STR      r0,[sp,#4]
        0x0000248e:    2816        .(      CMP      r0,#0x16
        0x00002490:    d84a        J.      BHI      0x2528 ; MeterProcess + 320
        0x00002492:    9801        ..      LDR      r0,[sp,#4]
        0x00002494:    0081        ..      LSLS     r1,r0,#2
        0x00002496:    a001        ..      ADR      r0,{pc}+6 ; 0x249c
        0x00002498:    5840        @X      LDR      r0,[r0,r1]
        0x0000249a:    4687        .F      MOV      pc,r0
    $d
        0x0000249c:    00002523    #%..    DCD    9507
        0x000024a0:    00002529    )%..    DCD    9513
        0x000024a4:    00002529    )%..    DCD    9513
        0x000024a8:    00002529    )%..    DCD    9513
        0x000024ac:    00002529    )%..    DCD    9513
        0x000024b0:    00002529    )%..    DCD    9513
        0x000024b4:    00002529    )%..    DCD    9513
        0x000024b8:    00002529    )%..    DCD    9513
        0x000024bc:    00002529    )%..    DCD    9513
        0x000024c0:    00002529    )%..    DCD    9513
        0x000024c4:    00002529    )%..    DCD    9513
        0x000024c8:    00002529    )%..    DCD    9513
        0x000024cc:    00002529    )%..    DCD    9513
        0x000024d0:    00002529    )%..    DCD    9513
        0x000024d4:    00002529    )%..    DCD    9513
        0x000024d8:    00002529    )%..    DCD    9513
        0x000024dc:    000024f9    .$..    DCD    9465
        0x000024e0:    00002505    .%..    DCD    9477
        0x000024e4:    00002529    )%..    DCD    9513
        0x000024e8:    0000250b    .%..    DCD    9483
        0x000024ec:    00002511    .%..    DCD    9489
        0x000024f0:    00002517    .%..    DCD    9495
        0x000024f4:    0000251d    .%..    DCD    9501
    $t
        0x000024f8:    f000f82e    ....    BL       Meter_AckProcess ; 0x2558
        0x000024fc:    4914        .I      LDR      r1,[pc,#80] ; [0x2550] = 0x200004e6
        0x000024fe:    2001        .       MOVS     r0,#1
        0x00002500:    7008        .p      STRB     r0,[r1,#0]
        0x00002502:    e012        ..      B        0x252a ; MeterProcess + 322
        0x00002504:    f000fb68    ..h.    BL       Meter_RSP_SysInformation ; 0x2bd8
        0x00002508:    e00f        ..      B        0x252a ; MeterProcess + 322
        0x0000250a:    f000fb1f    ....    BL       Meter_RSP_PowerData ; 0x2b4c
        0x0000250e:    e00c        ..      B        0x252a ; MeterProcess + 322
        0x00002510:    f000f84e    ..N.    BL       Meter_RSP_BmsData ; 0x25b0
        0x00002514:    e009        ..      B        0x252a ; MeterProcess + 322
        0x00002516:    f000fbe7    ....    BL       Meter_RSP_WMData ; 0x2ce8
        0x0000251a:    e006        ..      B        0x252a ; MeterProcess + 322
        0x0000251c:    f000f9aa    ....    BL       Meter_RSP_InvData ; 0x2874
        0x00002520:    e003        ..      B        0x252a ; MeterProcess + 322
        0x00002522:    f000f987    ....    BL       Meter_RSP_FWInfo ; 0x2834
        0x00002526:    e7ff        ..      B        0x2528 ; MeterProcess + 320
        0x00002528:    e7ff        ..      B        0x252a ; MeterProcess + 322
        0x0000252a:    e7ff        ..      B        0x252c ; MeterProcess + 324
        0x0000252c:    e002        ..      B        0x2534 ; MeterProcess + 332
        0x0000252e:    f000fdfb    ....    BL       ResetMeterUART ; 0x3128
        0x00002532:    e7ff        ..      B        0x2534 ; MeterProcess + 332
        0x00002534:    e7ff        ..      B        0x2536 ; MeterProcess + 334
        0x00002536:    b004        ..      ADD      sp,sp,#0x10
        0x00002538:    bd80        ..      POP      {r7,pc}
        0x0000253a:    46c0        .F      MOV      r8,r8
    $d
    __arm_cp.13_0
        0x0000253c:    200003a3    ...     DCD    536871843
    __arm_cp.13_1
        0x00002540:    20000315    ...     DCD    536871701
    __arm_cp.13_3
        0x00002544:    500042dc    .B.P    DCD    1342194396
    __arm_cp.13_4
        0x00002548:    20000314    ...     DCD    536871700
    __arm_cp.13_5
        0x0000254c:    2000030d    ...     DCD    536871693
    __arm_cp.13_6
        0x00002550:    200004e6    ...     DCD    536872166
    __arm_cp.13_7
        0x00002554:    200004fc    ...     DCD    536872188
    $t
    Meter_AckProcess
        0x00002558:    b082        ..      SUB      sp,sp,#8
        0x0000255a:    ab01        ..      ADD      r3,sp,#4
        0x0000255c:    2005        .       MOVS     r0,#5
        0x0000255e:    7018        .p      STRB     r0,[r3,#0]
        0x00002560:    7819        .x      LDRB     r1,[r3,#0]
        0x00002562:    1c48        H.      ADDS     r0,r1,#1
        0x00002564:    7018        .p      STRB     r0,[r3,#0]
        0x00002566:    48bf        .H      LDR      r0,[pc,#764] ; [0x2864] = 0x2000040e
        0x00002568:    5c41        A\      LDRB     r1,[r0,r1]
        0x0000256a:    0609        ..      LSLS     r1,r1,#24
        0x0000256c:    9100        ..      STR      r1,[sp,#0]
        0x0000256e:    7819        .x      LDRB     r1,[r3,#0]
        0x00002570:    1c4a        J.      ADDS     r2,r1,#1
        0x00002572:    701a        .p      STRB     r2,[r3,#0]
        0x00002574:    5c41        A\      LDRB     r1,[r0,r1]
        0x00002576:    040a        ..      LSLS     r2,r1,#16
        0x00002578:    9900        ..      LDR      r1,[sp,#0]
        0x0000257a:    4311        .C      ORRS     r1,r1,r2
        0x0000257c:    9100        ..      STR      r1,[sp,#0]
        0x0000257e:    7819        .x      LDRB     r1,[r3,#0]
        0x00002580:    1c4a        J.      ADDS     r2,r1,#1
        0x00002582:    701a        .p      STRB     r2,[r3,#0]
        0x00002584:    5c41        A\      LDRB     r1,[r0,r1]
        0x00002586:    020a        ..      LSLS     r2,r1,#8
        0x00002588:    9900        ..      LDR      r1,[sp,#0]
        0x0000258a:    4311        .C      ORRS     r1,r1,r2
        0x0000258c:    9100        ..      STR      r1,[sp,#0]
        0x0000258e:    7819        .x      LDRB     r1,[r3,#0]
        0x00002590:    1c4a        J.      ADDS     r2,r1,#1
        0x00002592:    701a        .p      STRB     r2,[r3,#0]
        0x00002594:    5c41        A\      LDRB     r1,[r0,r1]
        0x00002596:    9800        ..      LDR      r0,[sp,#0]
        0x00002598:    4308        .C      ORRS     r0,r0,r1
        0x0000259a:    9000        ..      STR      r0,[sp,#0]
        0x0000259c:    9800        ..      LDR      r0,[sp,#0]
        0x0000259e:    4903        .I      LDR      r1,[pc,#12] ; [0x25ac] = 0x20000084
        0x000025a0:    6008        .`      STR      r0,[r1,#0]
        0x000025a2:    b002        ..      ADD      sp,sp,#8
        0x000025a4:    4770        pG      BX       lr
        0x000025a6:    46c0        .F      MOV      r8,r8
    $d
    __arm_cp.14_0
        0x000025a8:    2000040e    ...     DCD    536871950
    __arm_cp.14_1
        0x000025ac:    20000084    ...     DCD    536871044
    $t
    Meter_RSP_BmsData
        0x000025b0:    b5f0        ..      PUSH     {r4-r7,lr}
        0x000025b2:    b08a        ..      SUB      sp,sp,#0x28
        0x000025b4:    48ab        .H      LDR      r0,[pc,#684] ; [0x2864] = 0x2000040e
        0x000025b6:    9004        ..      STR      r0,[sp,#0x10]
        0x000025b8:    7901        .y      LDRB     r1,[r0,#4]
        0x000025ba:    4b9c        .K      LDR      r3,[pc,#624] ; [0x282c] = 0x20000082
        0x000025bc:    7019        .p      STRB     r1,[r3,#0]
        0x000025be:    ae09        ..      ADD      r6,sp,#0x24
        0x000025c0:    9605        ..      STR      r6,[sp,#0x14]
        0x000025c2:    2105        .!      MOVS     r1,#5
        0x000025c4:    7031        1p      STRB     r1,[r6,#0]
        0x000025c6:    7831        1x      LDRB     r1,[r6,#0]
        0x000025c8:    1c4a        J.      ADDS     r2,r1,#1
        0x000025ca:    7032        2p      STRB     r2,[r6,#0]
        0x000025cc:    5c44        D\      LDRB     r4,[r0,r1]
        0x000025ce:    7819        .x      LDRB     r1,[r3,#0]
        0x000025d0:    2248        H"      MOVS     r2,#0x48
        0x000025d2:    4615        .F      MOV      r5,r2
        0x000025d4:    434d        MC      MULS     r5,r1,r5
        0x000025d6:    4996        .I      LDR      r1,[pc,#600] ; [0x2830] = 0x2000002c
        0x000025d8:    554c        LU      STRB     r4,[r1,r5]
        0x000025da:    7834        4x      LDRB     r4,[r6,#0]
        0x000025dc:    1c65        e.      ADDS     r5,r4,#1
        0x000025de:    7035        5p      STRB     r5,[r6,#0]
        0x000025e0:    5d04        .]      LDRB     r4,[r0,r4]
        0x000025e2:    781f        .x      LDRB     r7,[r3,#0]
        0x000025e4:    4615        .F      MOV      r5,r2
        0x000025e6:    437d        }C      MULS     r5,r7,r5
        0x000025e8:    194d        M.      ADDS     r5,r1,r5
        0x000025ea:    2741        A'      MOVS     r7,#0x41
        0x000025ec:    55ec        .U      STRB     r4,[r5,r7]
        0x000025ee:    7834        4x      LDRB     r4,[r6,#0]
        0x000025f0:    1c65        e.      ADDS     r5,r4,#1
        0x000025f2:    7035        5p      STRB     r5,[r6,#0]
        0x000025f4:    5d04        .]      LDRB     r4,[r0,r4]
        0x000025f6:    781f        .x      LDRB     r7,[r3,#0]
        0x000025f8:    4615        .F      MOV      r5,r2
        0x000025fa:    437d        }C      MULS     r5,r7,r5
        0x000025fc:    194d        M.      ADDS     r5,r1,r5
        0x000025fe:    2740        @'      MOVS     r7,#0x40
        0x00002600:    55ec        .U      STRB     r4,[r5,r7]
        0x00002602:    7834        4x      LDRB     r4,[r6,#0]
        0x00002604:    1c65        e.      ADDS     r5,r4,#1
        0x00002606:    7035        5p      STRB     r5,[r6,#0]
        0x00002608:    5d04        .]      LDRB     r4,[r0,r4]
        0x0000260a:    781f        .x      LDRB     r7,[r3,#0]
        0x0000260c:    4615        .F      MOV      r5,r2
        0x0000260e:    437d        }C      MULS     r5,r7,r5
        0x00002610:    194d        M.      ADDS     r5,r1,r5
        0x00002612:    2742        B'      MOVS     r7,#0x42
        0x00002614:    55ec        .U      STRB     r4,[r5,r7]
        0x00002616:    7834        4x      LDRB     r4,[r6,#0]
        0x00002618:    1c65        e.      ADDS     r5,r4,#1
        0x0000261a:    7035        5p      STRB     r5,[r6,#0]
        0x0000261c:    5d04        .]      LDRB     r4,[r0,r4]
        0x0000261e:    0624        $.      LSLS     r4,r4,#24
        0x00002620:    9408        ..      STR      r4,[sp,#0x20]
        0x00002622:    7834        4x      LDRB     r4,[r6,#0]
        0x00002624:    1c65        e.      ADDS     r5,r4,#1
        0x00002626:    7035        5p      STRB     r5,[r6,#0]
        0x00002628:    5d04        .]      LDRB     r4,[r0,r4]
        0x0000262a:    0425        %.      LSLS     r5,r4,#16
        0x0000262c:    9c08        ..      LDR      r4,[sp,#0x20]
        0x0000262e:    432c        ,C      ORRS     r4,r4,r5
        0x00002630:    9408        ..      STR      r4,[sp,#0x20]
        0x00002632:    7834        4x      LDRB     r4,[r6,#0]
        0x00002634:    1c65        e.      ADDS     r5,r4,#1
        0x00002636:    7035        5p      STRB     r5,[r6,#0]
        0x00002638:    5d04        .]      LDRB     r4,[r0,r4]
        0x0000263a:    0225        %.      LSLS     r5,r4,#8
        0x0000263c:    9c08        ..      LDR      r4,[sp,#0x20]
        0x0000263e:    432c        ,C      ORRS     r4,r4,r5
        0x00002640:    9408        ..      STR      r4,[sp,#0x20]
        0x00002642:    7834        4x      LDRB     r4,[r6,#0]
        0x00002644:    1c65        e.      ADDS     r5,r4,#1
        0x00002646:    7035        5p      STRB     r5,[r6,#0]
        0x00002648:    5d04        .]      LDRB     r4,[r0,r4]
        0x0000264a:    9808        ..      LDR      r0,[sp,#0x20]
        0x0000264c:    4320         C      ORRS     r0,r0,r4
        0x0000264e:    9008        ..      STR      r0,[sp,#0x20]
        0x00002650:    9808        ..      LDR      r0,[sp,#0x20]
        0x00002652:    781b        .x      LDRB     r3,[r3,#0]
        0x00002654:    435a        ZC      MULS     r2,r3,r2
        0x00002656:    1889        ..      ADDS     r1,r1,r2
        0x00002658:    6048        H`      STR      r0,[r1,#4]
        0x0000265a:    a907        ..      ADD      r1,sp,#0x1c
        0x0000265c:    2000        .       MOVS     r0,#0
        0x0000265e:    7008        .p      STRB     r0,[r1,#0]
        0x00002660:    e7ff        ..      B        0x2662 ; Meter_RSP_BmsData + 178
        0x00002662:    a807        ..      ADD      r0,sp,#0x1c
        0x00002664:    7800        .x      LDRB     r0,[r0,#0]
        0x00002666:    280f        .(      CMP      r0,#0xf
        0x00002668:    dc26        &.      BGT      0x26b8 ; Meter_RSP_BmsData + 264
        0x0000266a:    e7ff        ..      B        0x266c ; Meter_RSP_BmsData + 188
        0x0000266c:    af09        ..      ADD      r7,sp,#0x24
        0x0000266e:    7839        9x      LDRB     r1,[r7,#0]
        0x00002670:    1c48        H.      ADDS     r0,r1,#1
        0x00002672:    7038        8p      STRB     r0,[r7,#0]
        0x00002674:    487b        {H      LDR      r0,[pc,#492] ; [0x2864] = 0x2000040e
        0x00002676:    9003        ..      STR      r0,[sp,#0xc]
        0x00002678:    5c40        @\      LDRB     r0,[r0,r1]
        0x0000267a:    0205        ..      LSLS     r5,r0,#8
        0x0000267c:    4c6b        kL      LDR      r4,[pc,#428] ; [0x282c] = 0x20000082
        0x0000267e:    7821        !x      LDRB     r1,[r4,#0]
        0x00002680:    2348        H#      MOVS     r3,#0x48
        0x00002682:    4618        .F      MOV      r0,r3
        0x00002684:    4348        HC      MULS     r0,r1,r0
        0x00002686:    496a        jI      LDR      r1,[pc,#424] ; [0x2830] = 0x2000002c
        0x00002688:    180e        ..      ADDS     r6,r1,r0
        0x0000268a:    aa07        ..      ADD      r2,sp,#0x1c
        0x0000268c:    7810        .x      LDRB     r0,[r2,#0]
        0x0000268e:    0040        @.      LSLS     r0,r0,#1
        0x00002690:    1836        6.      ADDS     r6,r6,r0
        0x00002692:    9803        ..      LDR      r0,[sp,#0xc]
        0x00002694:    8135        5.      STRH     r5,[r6,#8]
        0x00002696:    783d        =x      LDRB     r5,[r7,#0]
        0x00002698:    1c6e        n.      ADDS     r6,r5,#1
        0x0000269a:    703e        >p      STRB     r6,[r7,#0]
        0x0000269c:    5d40        @]      LDRB     r0,[r0,r5]
        0x0000269e:    7824        $x      LDRB     r4,[r4,#0]
        0x000026a0:    4363        cC      MULS     r3,r4,r3
        0x000026a2:    18c9        ..      ADDS     r1,r1,r3
        0x000026a4:    7812        .x      LDRB     r2,[r2,#0]
        0x000026a6:    0052        R.      LSLS     r2,r2,#1
        0x000026a8:    1889        ..      ADDS     r1,r1,r2
        0x000026aa:    8108        ..      STRH     r0,[r1,#8]
        0x000026ac:    e7ff        ..      B        0x26ae ; Meter_RSP_BmsData + 254
        0x000026ae:    9807        ..      LDR      r0,[sp,#0x1c]
        0x000026b0:    1c40        @.      ADDS     r0,r0,#1
        0x000026b2:    a907        ..      ADD      r1,sp,#0x1c
        0x000026b4:    7008        .p      STRB     r0,[r1,#0]
        0x000026b6:    e7d4        ..      B        0x2662 ; Meter_RSP_BmsData + 178
        0x000026b8:    ae09        ..      ADD      r6,sp,#0x24
        0x000026ba:    9601        ..      STR      r6,[sp,#4]
        0x000026bc:    7831        1x      LDRB     r1,[r6,#0]
        0x000026be:    1c48        H.      ADDS     r0,r1,#1
        0x000026c0:    7030        0p      STRB     r0,[r6,#0]
        0x000026c2:    4868        hH      LDR      r0,[pc,#416] ; [0x2864] = 0x2000040e
        0x000026c4:    9002        ..      STR      r0,[sp,#8]
        0x000026c6:    5c41        A\      LDRB     r1,[r0,r1]
        0x000026c8:    0609        ..      LSLS     r1,r1,#24
        0x000026ca:    9108        ..      STR      r1,[sp,#0x20]
        0x000026cc:    7831        1x      LDRB     r1,[r6,#0]
        0x000026ce:    1c4a        J.      ADDS     r2,r1,#1
        0x000026d0:    7032        2p      STRB     r2,[r6,#0]
        0x000026d2:    5c41        A\      LDRB     r1,[r0,r1]
        0x000026d4:    040a        ..      LSLS     r2,r1,#16
        0x000026d6:    9908        ..      LDR      r1,[sp,#0x20]
        0x000026d8:    4311        .C      ORRS     r1,r1,r2
        0x000026da:    9108        ..      STR      r1,[sp,#0x20]
        0x000026dc:    7831        1x      LDRB     r1,[r6,#0]
        0x000026de:    1c4a        J.      ADDS     r2,r1,#1
        0x000026e0:    7032        2p      STRB     r2,[r6,#0]
        0x000026e2:    5c41        A\      LDRB     r1,[r0,r1]
        0x000026e4:    020a        ..      LSLS     r2,r1,#8
        0x000026e6:    9908        ..      LDR      r1,[sp,#0x20]
        0x000026e8:    4311        .C      ORRS     r1,r1,r2
        0x000026ea:    9108        ..      STR      r1,[sp,#0x20]
        0x000026ec:    7831        1x      LDRB     r1,[r6,#0]
        0x000026ee:    1c4a        J.      ADDS     r2,r1,#1
        0x000026f0:    7032        2p      STRB     r2,[r6,#0]
        0x000026f2:    5c42        B\      LDRB     r2,[r0,r1]
        0x000026f4:    9908        ..      LDR      r1,[sp,#0x20]
        0x000026f6:    4311        .C      ORRS     r1,r1,r2
        0x000026f8:    9108        ..      STR      r1,[sp,#0x20]
        0x000026fa:    9c08        ..      LDR      r4,[sp,#0x20]
        0x000026fc:    4b4b        KK      LDR      r3,[pc,#300] ; [0x282c] = 0x20000082
        0x000026fe:    7819        .x      LDRB     r1,[r3,#0]
        0x00002700:    2248        H"      MOVS     r2,#0x48
        0x00002702:    4615        .F      MOV      r5,r2
        0x00002704:    434d        MC      MULS     r5,r1,r5
        0x00002706:    494a        JI      LDR      r1,[pc,#296] ; [0x2830] = 0x2000002c
        0x00002708:    194d        M.      ADDS     r5,r1,r5
        0x0000270a:    62ac        .b      STR      r4,[r5,#0x28]
        0x0000270c:    7834        4x      LDRB     r4,[r6,#0]
        0x0000270e:    1c65        e.      ADDS     r5,r4,#1
        0x00002710:    7035        5p      STRB     r5,[r6,#0]
        0x00002712:    5d04        .]      LDRB     r4,[r0,r4]
        0x00002714:    0624        $.      LSLS     r4,r4,#24
        0x00002716:    9408        ..      STR      r4,[sp,#0x20]
        0x00002718:    7834        4x      LDRB     r4,[r6,#0]
        0x0000271a:    1c65        e.      ADDS     r5,r4,#1
        0x0000271c:    7035        5p      STRB     r5,[r6,#0]
        0x0000271e:    5d04        .]      LDRB     r4,[r0,r4]
        0x00002720:    0425        %.      LSLS     r5,r4,#16
        0x00002722:    9c08        ..      LDR      r4,[sp,#0x20]
        0x00002724:    432c        ,C      ORRS     r4,r4,r5
        0x00002726:    9408        ..      STR      r4,[sp,#0x20]
        0x00002728:    7834        4x      LDRB     r4,[r6,#0]
        0x0000272a:    1c65        e.      ADDS     r5,r4,#1
        0x0000272c:    7035        5p      STRB     r5,[r6,#0]
        0x0000272e:    5d04        .]      LDRB     r4,[r0,r4]
        0x00002730:    0225        %.      LSLS     r5,r4,#8
        0x00002732:    9c08        ..      LDR      r4,[sp,#0x20]
        0x00002734:    432c        ,C      ORRS     r4,r4,r5
        0x00002736:    9408        ..      STR      r4,[sp,#0x20]
        0x00002738:    7834        4x      LDRB     r4,[r6,#0]
        0x0000273a:    1c65        e.      ADDS     r5,r4,#1
        0x0000273c:    7035        5p      STRB     r5,[r6,#0]
        0x0000273e:    5d05        .]      LDRB     r5,[r0,r4]
        0x00002740:    9c08        ..      LDR      r4,[sp,#0x20]
        0x00002742:    432c        ,C      ORRS     r4,r4,r5
        0x00002744:    9408        ..      STR      r4,[sp,#0x20]
        0x00002746:    9c08        ..      LDR      r4,[sp,#0x20]
        0x00002748:    781f        .x      LDRB     r7,[r3,#0]
        0x0000274a:    4615        .F      MOV      r5,r2
        0x0000274c:    437d        }C      MULS     r5,r7,r5
        0x0000274e:    194d        M.      ADDS     r5,r1,r5
        0x00002750:    62ec        .b      STR      r4,[r5,#0x2c]
        0x00002752:    7834        4x      LDRB     r4,[r6,#0]
        0x00002754:    1c65        e.      ADDS     r5,r4,#1
        0x00002756:    7035        5p      STRB     r5,[r6,#0]
        0x00002758:    5d04        .]      LDRB     r4,[r0,r4]
        0x0000275a:    0624        $.      LSLS     r4,r4,#24
        0x0000275c:    9408        ..      STR      r4,[sp,#0x20]
        0x0000275e:    7834        4x      LDRB     r4,[r6,#0]
        0x00002760:    1c65        e.      ADDS     r5,r4,#1
        0x00002762:    7035        5p      STRB     r5,[r6,#0]
        0x00002764:    5d04        .]      LDRB     r4,[r0,r4]
        0x00002766:    0425        %.      LSLS     r5,r4,#16
        0x00002768:    9c08        ..      LDR      r4,[sp,#0x20]
        0x0000276a:    432c        ,C      ORRS     r4,r4,r5
        0x0000276c:    9408        ..      STR      r4,[sp,#0x20]
        0x0000276e:    7834        4x      LDRB     r4,[r6,#0]
        0x00002770:    1c65        e.      ADDS     r5,r4,#1
        0x00002772:    7035        5p      STRB     r5,[r6,#0]
        0x00002774:    5d04        .]      LDRB     r4,[r0,r4]
        0x00002776:    0225        %.      LSLS     r5,r4,#8
        0x00002778:    9c08        ..      LDR      r4,[sp,#0x20]
        0x0000277a:    432c        ,C      ORRS     r4,r4,r5
        0x0000277c:    9408        ..      STR      r4,[sp,#0x20]
        0x0000277e:    7834        4x      LDRB     r4,[r6,#0]
        0x00002780:    1c65        e.      ADDS     r5,r4,#1
        0x00002782:    7035        5p      STRB     r5,[r6,#0]
        0x00002784:    5d04        .]      LDRB     r4,[r0,r4]
        0x00002786:    9808        ..      LDR      r0,[sp,#0x20]
        0x00002788:    4320         C      ORRS     r0,r0,r4
        0x0000278a:    9008        ..      STR      r0,[sp,#0x20]
        0x0000278c:    9808        ..      LDR      r0,[sp,#0x20]
        0x0000278e:    781b        .x      LDRB     r3,[r3,#0]
        0x00002790:    435a        ZC      MULS     r2,r3,r2
        0x00002792:    1889        ..      ADDS     r1,r1,r2
        0x00002794:    6308        .c      STR      r0,[r1,#0x30]
        0x00002796:    a906        ..      ADD      r1,sp,#0x18
        0x00002798:    2000        .       MOVS     r0,#0
        0x0000279a:    7008        .p      STRB     r0,[r1,#0]
        0x0000279c:    e7ff        ..      B        0x279e ; Meter_RSP_BmsData + 494
        0x0000279e:    a806        ..      ADD      r0,sp,#0x18
        0x000027a0:    7800        .x      LDRB     r0,[r0,#0]
        0x000027a2:    2804        .(      CMP      r0,#4
        0x000027a4:    dc26        &.      BGT      0x27f4 ; Meter_RSP_BmsData + 580
        0x000027a6:    e7ff        ..      B        0x27a8 ; Meter_RSP_BmsData + 504
        0x000027a8:    af09        ..      ADD      r7,sp,#0x24
        0x000027aa:    7839        9x      LDRB     r1,[r7,#0]
        0x000027ac:    1c48        H.      ADDS     r0,r1,#1
        0x000027ae:    7038        8p      STRB     r0,[r7,#0]
        0x000027b0:    48e1        .H      LDR      r0,[pc,#900] ; [0x2b38] = 0x2000040e
        0x000027b2:    9000        ..      STR      r0,[sp,#0]
        0x000027b4:    5c40        @\      LDRB     r0,[r0,r1]
        0x000027b6:    0205        ..      LSLS     r5,r0,#8
        0x000027b8:    4ce0        .L      LDR      r4,[pc,#896] ; [0x2b3c] = 0x20000082
        0x000027ba:    7821        !x      LDRB     r1,[r4,#0]
        0x000027bc:    2348        H#      MOVS     r3,#0x48
        0x000027be:    4618        .F      MOV      r0,r3
        0x000027c0:    4348        HC      MULS     r0,r1,r0
        0x000027c2:    491b        .I      LDR      r1,[pc,#108] ; [0x2830] = 0x2000002c
        0x000027c4:    180e        ..      ADDS     r6,r1,r0
        0x000027c6:    aa06        ..      ADD      r2,sp,#0x18
        0x000027c8:    7810        .x      LDRB     r0,[r2,#0]
        0x000027ca:    0040        @.      LSLS     r0,r0,#1
        0x000027cc:    1836        6.      ADDS     r6,r6,r0
        0x000027ce:    9800        ..      LDR      r0,[sp,#0]
        0x000027d0:    8135        5.      STRH     r5,[r6,#8]
        0x000027d2:    783d        =x      LDRB     r5,[r7,#0]
        0x000027d4:    1c6e        n.      ADDS     r6,r5,#1
        0x000027d6:    703e        >p      STRB     r6,[r7,#0]
        0x000027d8:    5d40        @]      LDRB     r0,[r0,r5]
        0x000027da:    7824        $x      LDRB     r4,[r4,#0]
        0x000027dc:    4363        cC      MULS     r3,r4,r3
        0x000027de:    18c9        ..      ADDS     r1,r1,r3
        0x000027e0:    7812        .x      LDRB     r2,[r2,#0]
        0x000027e2:    0052        R.      LSLS     r2,r2,#1
        0x000027e4:    1889        ..      ADDS     r1,r1,r2
        0x000027e6:    8108        ..      STRH     r0,[r1,#8]
        0x000027e8:    e7ff        ..      B        0x27ea ; Meter_RSP_BmsData + 570
        0x000027ea:    9806        ..      LDR      r0,[sp,#0x18]
        0x000027ec:    1c40        @.      ADDS     r0,r0,#1
        0x000027ee:    a906        ..      ADD      r1,sp,#0x18
        0x000027f0:    7008        .p      STRB     r0,[r1,#0]
        0x000027f2:    e7d4        ..      B        0x279e ; Meter_RSP_BmsData + 494
        0x000027f4:    ae09        ..      ADD      r6,sp,#0x24
        0x000027f6:    7831        1x      LDRB     r1,[r6,#0]
        0x000027f8:    1c48        H.      ADDS     r0,r1,#1
        0x000027fa:    7030        0p      STRB     r0,[r6,#0]
        0x000027fc:    48f3        .H      LDR      r0,[pc,#972] ; [0x2bcc] = 0x2000040e
        0x000027fe:    5c41        A\      LDRB     r1,[r0,r1]
        0x00002800:    020c        ..      LSLS     r4,r1,#8
        0x00002802:    4bf3        .K      LDR      r3,[pc,#972] ; [0x2bd0] = 0x20000082
        0x00002804:    7819        .x      LDRB     r1,[r3,#0]
        0x00002806:    2248        H"      MOVS     r2,#0x48
        0x00002808:    4615        .F      MOV      r5,r2
        0x0000280a:    434d        MC      MULS     r5,r1,r5
        0x0000280c:    4908        .I      LDR      r1,[pc,#32] ; [0x2830] = 0x2000002c
        0x0000280e:    194d        M.      ADDS     r5,r1,r5
        0x00002810:    86ac        ..      STRH     r4,[r5,#0x34]
        0x00002812:    7834        4x      LDRB     r4,[r6,#0]
        0x00002814:    1c65        e.      ADDS     r5,r4,#1
        0x00002816:    7035        5p      STRB     r5,[r6,#0]
        0x00002818:    5d00        .]      LDRB     r0,[r0,r4]
        0x0000281a:    781b        .x      LDRB     r3,[r3,#0]
        0x0000281c:    435a        ZC      MULS     r2,r3,r2
        0x0000281e:    1889        ..      ADDS     r1,r1,r2
        0x00002820:    8688        ..      STRH     r0,[r1,#0x34]
        0x00002822:    b00a        ..      ADD      sp,sp,#0x28
        0x00002824:    bdf0        ..      POP      {r4-r7,pc}
        0x00002826:    46c0        .F      MOV      r8,r8
    $d
    __arm_cp.17_0
        0x00002828:    2000040e    ...     DCD    536871950
    __arm_cp.17_1
        0x0000282c:    20000082    ...     DCD    536871042
    __arm_cp.17_2
        0x00002830:    2000002c    ,..     DCD    536870956
    $t
    Meter_RSP_FWInfo
        0x00002834:    b580        ..      PUSH     {r7,lr}
        0x00002836:    b082        ..      SUB      sp,sp,#8
        0x00002838:    48e4        .H      LDR      r0,[pc,#912] ; [0x2bcc] = 0x2000040e
        0x0000283a:    9000        ..      STR      r0,[sp,#0]
        0x0000283c:    1d01        ..      ADDS     r1,r0,#4
        0x0000283e:    480a        .H      LDR      r0,[pc,#40] ; [0x2868] = 0x200002fc
        0x00002840:    2210        ."      MOVS     r2,#0x10
        0x00002842:    f7fdfc65    ..e.    BL       __aeabi_memcpy ; 0x110
        0x00002846:    9900        ..      LDR      r1,[sp,#0]
        0x00002848:    3114        .1      ADDS     r1,r1,#0x14
        0x0000284a:    4808        .H      LDR      r0,[pc,#32] ; [0x286c] = 0x200002bc
        0x0000284c:    2220         "      MOVS     r2,#0x20
        0x0000284e:    9201        ..      STR      r2,[sp,#4]
        0x00002850:    f7fdfc5e    ..^.    BL       __aeabi_memcpy ; 0x110
        0x00002854:    9900        ..      LDR      r1,[sp,#0]
        0x00002856:    9a01        ..      LDR      r2,[sp,#4]
        0x00002858:    3134        41      ADDS     r1,r1,#0x34
        0x0000285a:    4805        .H      LDR      r0,[pc,#20] ; [0x2870] = 0x200002dc
        0x0000285c:    f7fdfc58    ..X.    BL       __aeabi_memcpy ; 0x110
        0x00002860:    b002        ..      ADD      sp,sp,#8
        0x00002862:    bd80        ..      POP      {r7,pc}
    $d
    __arm_cp.20_0
        0x00002864:    2000040e    ...     DCD    536871950
    __arm_cp.20_1
        0x00002868:    200002fc    ...     DCD    536871676
    __arm_cp.20_2
        0x0000286c:    200002bc    ...     DCD    536871612
    __arm_cp.20_3
        0x00002870:    200002dc    ...     DCD    536871644
    $t
    Meter_RSP_InvData
        0x00002874:    b5f0        ..      PUSH     {r4-r7,lr}
        0x00002876:    b082        ..      SUB      sp,sp,#8
        0x00002878:    48d4        .H      LDR      r0,[pc,#848] ; [0x2bcc] = 0x2000040e
        0x0000287a:    7901        .y      LDRB     r1,[r0,#4]
        0x0000287c:    4bd4        .K      LDR      r3,[pc,#848] ; [0x2bd0] = 0x20000082
        0x0000287e:    7019        .p      STRB     r1,[r3,#0]
        0x00002880:    ae01        ..      ADD      r6,sp,#4
        0x00002882:    2105        .!      MOVS     r1,#5
        0x00002884:    7031        1p      STRB     r1,[r6,#0]
        0x00002886:    7831        1x      LDRB     r1,[r6,#0]
        0x00002888:    1c4a        J.      ADDS     r2,r1,#1
        0x0000288a:    7032        2p      STRB     r2,[r6,#0]
        0x0000288c:    5c41        A\      LDRB     r1,[r0,r1]
        0x0000288e:    781a        .x      LDRB     r2,[r3,#0]
        0x00002890:    0094        ..      LSLS     r4,r2,#2
        0x00002892:    4aab        .J      LDR      r2,[pc,#684] ; [0x2b40] = 0x200001d7
        0x00002894:    5511        .U      STRB     r1,[r2,r4]
        0x00002896:    7831        1x      LDRB     r1,[r6,#0]
        0x00002898:    1c4c        L.      ADDS     r4,r1,#1
        0x0000289a:    7034        4p      STRB     r4,[r6,#0]
        0x0000289c:    5c41        A\      LDRB     r1,[r0,r1]
        0x0000289e:    1e4c        L.      SUBS     r4,r1,#1
        0x000028a0:    41a1        .A      SBCS     r1,r1,r4
        0x000028a2:    781c        .x      LDRB     r4,[r3,#0]
        0x000028a4:    00a5        ..      LSLS     r5,r4,#2
        0x000028a6:    4ca7        .L      LDR      r4,[pc,#668] ; [0x2b44] = 0x2000007e
        0x000028a8:    5561        aU      STRB     r1,[r4,r5]
        0x000028aa:    7831        1x      LDRB     r1,[r6,#0]
        0x000028ac:    1c4d        M.      ADDS     r5,r1,#1
        0x000028ae:    7035        5p      STRB     r5,[r6,#0]
        0x000028b0:    5c41        A\      LDRB     r1,[r0,r1]
        0x000028b2:    1e4d        M.      SUBS     r5,r1,#1
        0x000028b4:    41a9        .A      SBCS     r1,r1,r5
        0x000028b6:    781d        .x      LDRB     r5,[r3,#0]
        0x000028b8:    00ad        ..      LSLS     r5,r5,#2
        0x000028ba:    1965        e.      ADDS     r5,r4,r5
        0x000028bc:    7069        ip      STRB     r1,[r5,#1]
        0x000028be:    7831        1x      LDRB     r1,[r6,#0]
        0x000028c0:    1c4d        M.      ADDS     r5,r1,#1
        0x000028c2:    7035        5p      STRB     r5,[r6,#0]
        0x000028c4:    5c41        A\      LDRB     r1,[r0,r1]
        0x000028c6:    1e4d        M.      SUBS     r5,r1,#1
        0x000028c8:    41a9        .A      SBCS     r1,r1,r5
        0x000028ca:    781d        .x      LDRB     r5,[r3,#0]
        0x000028cc:    00ad        ..      LSLS     r5,r5,#2
        0x000028ce:    1965        e.      ADDS     r5,r4,r5
        0x000028d0:    70a9        .p      STRB     r1,[r5,#2]
        0x000028d2:    7831        1x      LDRB     r1,[r6,#0]
        0x000028d4:    1c4d        M.      ADDS     r5,r1,#1
        0x000028d6:    7035        5p      STRB     r5,[r6,#0]
        0x000028d8:    5c41        A\      LDRB     r1,[r0,r1]
        0x000028da:    1e4d        M.      SUBS     r5,r1,#1
        0x000028dc:    41a9        .A      SBCS     r1,r1,r5
        0x000028de:    781d        .x      LDRB     r5,[r3,#0]
        0x000028e0:    00ad        ..      LSLS     r5,r5,#2
        0x000028e2:    1964        d.      ADDS     r4,r4,r5
        0x000028e4:    70e1        .p      STRB     r1,[r4,#3]
        0x000028e6:    7831        1x      LDRB     r1,[r6,#0]
        0x000028e8:    1c4c        L.      ADDS     r4,r1,#1
        0x000028ea:    7034        4p      STRB     r4,[r6,#0]
        0x000028ec:    5c41        A\      LDRB     r1,[r0,r1]
        0x000028ee:    1e4c        L.      SUBS     r4,r1,#1
        0x000028f0:    41a1        .A      SBCS     r1,r1,r4
        0x000028f2:    781c        .x      LDRB     r4,[r3,#0]
        0x000028f4:    00a4        ..      LSLS     r4,r4,#2
        0x000028f6:    1914        ..      ADDS     r4,r2,r4
        0x000028f8:    7061        ap      STRB     r1,[r4,#1]
        0x000028fa:    7831        1x      LDRB     r1,[r6,#0]
        0x000028fc:    1c4c        L.      ADDS     r4,r1,#1
        0x000028fe:    7034        4p      STRB     r4,[r6,#0]
        0x00002900:    5c41        A\      LDRB     r1,[r0,r1]
        0x00002902:    1e4c        L.      SUBS     r4,r1,#1
        0x00002904:    41a1        .A      SBCS     r1,r1,r4
        0x00002906:    781c        .x      LDRB     r4,[r3,#0]
        0x00002908:    00a4        ..      LSLS     r4,r4,#2
        0x0000290a:    1914        ..      ADDS     r4,r2,r4
        0x0000290c:    70a1        .p      STRB     r1,[r4,#2]
        0x0000290e:    7831        1x      LDRB     r1,[r6,#0]
        0x00002910:    1c4c        L.      ADDS     r4,r1,#1
        0x00002912:    7034        4p      STRB     r4,[r6,#0]
        0x00002914:    5c41        A\      LDRB     r1,[r0,r1]
        0x00002916:    1e4c        L.      SUBS     r4,r1,#1
        0x00002918:    41a1        .A      SBCS     r1,r1,r4
        0x0000291a:    781c        .x      LDRB     r4,[r3,#0]
        0x0000291c:    00a4        ..      LSLS     r4,r4,#2
        0x0000291e:    1912        ..      ADDS     r2,r2,r4
        0x00002920:    70d1        .p      STRB     r1,[r2,#3]
        0x00002922:    7831        1x      LDRB     r1,[r6,#0]
        0x00002924:    1c4a        J.      ADDS     r2,r1,#1
        0x00002926:    7032        2p      STRB     r2,[r6,#0]
        0x00002928:    5c44        D\      LDRB     r4,[r0,r1]
        0x0000292a:    1e61        a.      SUBS     r1,r4,#1
        0x0000292c:    418c        .A      SBCS     r4,r4,r1
        0x0000292e:    7819        .x      LDRB     r1,[r3,#0]
        0x00002930:    2218        ."      MOVS     r2,#0x18
        0x00002932:    4615        .F      MOV      r5,r2
        0x00002934:    434d        MC      MULS     r5,r1,r5
        0x00002936:    4984        .I      LDR      r1,[pc,#528] ; [0x2b48] = 0x20000010
        0x00002938:    554c        LU      STRB     r4,[r1,r5]
        0x0000293a:    7834        4x      LDRB     r4,[r6,#0]
        0x0000293c:    1c65        e.      ADDS     r5,r4,#1
        0x0000293e:    7035        5p      STRB     r5,[r6,#0]
        0x00002940:    5d04        .]      LDRB     r4,[r0,r4]
        0x00002942:    1e65        e.      SUBS     r5,r4,#1
        0x00002944:    41ac        .A      SBCS     r4,r4,r5
        0x00002946:    781f        .x      LDRB     r7,[r3,#0]
        0x00002948:    4615        .F      MOV      r5,r2
        0x0000294a:    437d        }C      MULS     r5,r7,r5
        0x0000294c:    194d        M.      ADDS     r5,r1,r5
        0x0000294e:    706c        lp      STRB     r4,[r5,#1]
        0x00002950:    7834        4x      LDRB     r4,[r6,#0]
        0x00002952:    1c65        e.      ADDS     r5,r4,#1
        0x00002954:    7035        5p      STRB     r5,[r6,#0]
        0x00002956:    5d04        .]      LDRB     r4,[r0,r4]
        0x00002958:    1e65        e.      SUBS     r5,r4,#1
        0x0000295a:    41ac        .A      SBCS     r4,r4,r5
        0x0000295c:    781f        .x      LDRB     r7,[r3,#0]
        0x0000295e:    4615        .F      MOV      r5,r2
        0x00002960:    437d        }C      MULS     r5,r7,r5
        0x00002962:    194d        M.      ADDS     r5,r1,r5
        0x00002964:    70ac        .p      STRB     r4,[r5,#2]
        0x00002966:    7834        4x      LDRB     r4,[r6,#0]
        0x00002968:    1c65        e.      ADDS     r5,r4,#1
        0x0000296a:    7035        5p      STRB     r5,[r6,#0]
        0x0000296c:    5d04        .]      LDRB     r4,[r0,r4]
        0x0000296e:    1e65        e.      SUBS     r5,r4,#1
        0x00002970:    41ac        .A      SBCS     r4,r4,r5
        0x00002972:    781f        .x      LDRB     r7,[r3,#0]
        0x00002974:    4615        .F      MOV      r5,r2
        0x00002976:    437d        }C      MULS     r5,r7,r5
        0x00002978:    194d        M.      ADDS     r5,r1,r5
        0x0000297a:    70ec        .p      STRB     r4,[r5,#3]
        0x0000297c:    7834        4x      LDRB     r4,[r6,#0]
        0x0000297e:    1c65        e.      ADDS     r5,r4,#1
        0x00002980:    7035        5p      STRB     r5,[r6,#0]
        0x00002982:    5d04        .]      LDRB     r4,[r0,r4]
        0x00002984:    1e65        e.      SUBS     r5,r4,#1
        0x00002986:    41ac        .A      SBCS     r4,r4,r5
        0x00002988:    781f        .x      LDRB     r7,[r3,#0]
        0x0000298a:    4615        .F      MOV      r5,r2
        0x0000298c:    437d        }C      MULS     r5,r7,r5
        0x0000298e:    194d        M.      ADDS     r5,r1,r5
        0x00002990:    712c        ,q      STRB     r4,[r5,#4]
        0x00002992:    7834        4x      LDRB     r4,[r6,#0]
        0x00002994:    1c65        e.      ADDS     r5,r4,#1
        0x00002996:    7035        5p      STRB     r5,[r6,#0]
        0x00002998:    5d04        .]      LDRB     r4,[r0,r4]
        0x0000299a:    1e65        e.      SUBS     r5,r4,#1
        0x0000299c:    41ac        .A      SBCS     r4,r4,r5
        0x0000299e:    781f        .x      LDRB     r7,[r3,#0]
        0x000029a0:    4615        .F      MOV      r5,r2
        0x000029a2:    437d        }C      MULS     r5,r7,r5
        0x000029a4:    194d        M.      ADDS     r5,r1,r5
        0x000029a6:    716c        lq      STRB     r4,[r5,#5]
        0x000029a8:    7834        4x      LDRB     r4,[r6,#0]
        0x000029aa:    1c65        e.      ADDS     r5,r4,#1
        0x000029ac:    7035        5p      STRB     r5,[r6,#0]
        0x000029ae:    5d04        .]      LDRB     r4,[r0,r4]
        0x000029b0:    1e65        e.      SUBS     r5,r4,#1
        0x000029b2:    41ac        .A      SBCS     r4,r4,r5
        0x000029b4:    781f        .x      LDRB     r7,[r3,#0]
        0x000029b6:    4615        .F      MOV      r5,r2
        0x000029b8:    437d        }C      MULS     r5,r7,r5
        0x000029ba:    194d        M.      ADDS     r5,r1,r5
        0x000029bc:    71ac        .q      STRB     r4,[r5,#6]
        0x000029be:    7834        4x      LDRB     r4,[r6,#0]
        0x000029c0:    1c65        e.      ADDS     r5,r4,#1
        0x000029c2:    7035        5p      STRB     r5,[r6,#0]
        0x000029c4:    5d04        .]      LDRB     r4,[r0,r4]
        0x000029c6:    1e65        e.      SUBS     r5,r4,#1
        0x000029c8:    41ac        .A      SBCS     r4,r4,r5
        0x000029ca:    781f        .x      LDRB     r7,[r3,#0]
        0x000029cc:    4615        .F      MOV      r5,r2
        0x000029ce:    437d        }C      MULS     r5,r7,r5
        0x000029d0:    194d        M.      ADDS     r5,r1,r5
        0x000029d2:    71ec        .q      STRB     r4,[r5,#7]
        0x000029d4:    7834        4x      LDRB     r4,[r6,#0]
        0x000029d6:    1c65        e.      ADDS     r5,r4,#1
        0x000029d8:    7035        5p      STRB     r5,[r6,#0]
        0x000029da:    5d04        .]      LDRB     r4,[r0,r4]
        0x000029dc:    1e65        e.      SUBS     r5,r4,#1
        0x000029de:    41ac        .A      SBCS     r4,r4,r5
        0x000029e0:    781f        .x      LDRB     r7,[r3,#0]
        0x000029e2:    4615        .F      MOV      r5,r2
        0x000029e4:    437d        }C      MULS     r5,r7,r5
        0x000029e6:    194d        M.      ADDS     r5,r1,r5
        0x000029e8:    722c        ,r      STRB     r4,[r5,#8]
        0x000029ea:    7834        4x      LDRB     r4,[r6,#0]
        0x000029ec:    1c65        e.      ADDS     r5,r4,#1
        0x000029ee:    7035        5p      STRB     r5,[r6,#0]
        0x000029f0:    5d04        .]      LDRB     r4,[r0,r4]
        0x000029f2:    1e65        e.      SUBS     r5,r4,#1
        0x000029f4:    41ac        .A      SBCS     r4,r4,r5
        0x000029f6:    781f        .x      LDRB     r7,[r3,#0]
        0x000029f8:    4615        .F      MOV      r5,r2
        0x000029fa:    437d        }C      MULS     r5,r7,r5
        0x000029fc:    194d        M.      ADDS     r5,r1,r5
        0x000029fe:    726c        lr      STRB     r4,[r5,#9]
        0x00002a00:    7834        4x      LDRB     r4,[r6,#0]
        0x00002a02:    1c65        e.      ADDS     r5,r4,#1
        0x00002a04:    7035        5p      STRB     r5,[r6,#0]
        0x00002a06:    5d04        .]      LDRB     r4,[r0,r4]
        0x00002a08:    1e65        e.      SUBS     r5,r4,#1
        0x00002a0a:    41ac        .A      SBCS     r4,r4,r5
        0x00002a0c:    781f        .x      LDRB     r7,[r3,#0]
        0x00002a0e:    4615        .F      MOV      r5,r2
        0x00002a10:    437d        }C      MULS     r5,r7,r5
        0x00002a12:    194d        M.      ADDS     r5,r1,r5
        0x00002a14:    72ac        .r      STRB     r4,[r5,#0xa]
        0x00002a16:    7834        4x      LDRB     r4,[r6,#0]
        0x00002a18:    1c65        e.      ADDS     r5,r4,#1
        0x00002a1a:    7035        5p      STRB     r5,[r6,#0]
        0x00002a1c:    5d04        .]      LDRB     r4,[r0,r4]
        0x00002a1e:    1e65        e.      SUBS     r5,r4,#1
        0x00002a20:    41ac        .A      SBCS     r4,r4,r5
        0x00002a22:    781f        .x      LDRB     r7,[r3,#0]
        0x00002a24:    4615        .F      MOV      r5,r2
        0x00002a26:    437d        }C      MULS     r5,r7,r5
        0x00002a28:    194d        M.      ADDS     r5,r1,r5
        0x00002a2a:    72ec        .r      STRB     r4,[r5,#0xb]
        0x00002a2c:    7834        4x      LDRB     r4,[r6,#0]
        0x00002a2e:    1c65        e.      ADDS     r5,r4,#1
        0x00002a30:    7035        5p      STRB     r5,[r6,#0]
        0x00002a32:    5d04        .]      LDRB     r4,[r0,r4]
        0x00002a34:    1e65        e.      SUBS     r5,r4,#1
        0x00002a36:    41ac        .A      SBCS     r4,r4,r5
        0x00002a38:    781f        .x      LDRB     r7,[r3,#0]
        0x00002a3a:    4615        .F      MOV      r5,r2
        0x00002a3c:    437d        }C      MULS     r5,r7,r5
        0x00002a3e:    194d        M.      ADDS     r5,r1,r5
        0x00002a40:    732c        ,s      STRB     r4,[r5,#0xc]
        0x00002a42:    7834        4x      LDRB     r4,[r6,#0]
        0x00002a44:    1c65        e.      ADDS     r5,r4,#1
        0x00002a46:    7035        5p      STRB     r5,[r6,#0]
        0x00002a48:    5d04        .]      LDRB     r4,[r0,r4]
        0x00002a4a:    1e65        e.      SUBS     r5,r4,#1
        0x00002a4c:    41ac        .A      SBCS     r4,r4,r5
        0x00002a4e:    781f        .x      LDRB     r7,[r3,#0]
        0x00002a50:    4615        .F      MOV      r5,r2
        0x00002a52:    437d        }C      MULS     r5,r7,r5
        0x00002a54:    194d        M.      ADDS     r5,r1,r5
        0x00002a56:    736c        ls      STRB     r4,[r5,#0xd]
        0x00002a58:    7834        4x      LDRB     r4,[r6,#0]
        0x00002a5a:    1c65        e.      ADDS     r5,r4,#1
        0x00002a5c:    7035        5p      STRB     r5,[r6,#0]
        0x00002a5e:    5d04        .]      LDRB     r4,[r0,r4]
        0x00002a60:    1e65        e.      SUBS     r5,r4,#1
        0x00002a62:    41ac        .A      SBCS     r4,r4,r5
        0x00002a64:    781f        .x      LDRB     r7,[r3,#0]
        0x00002a66:    4615        .F      MOV      r5,r2
        0x00002a68:    437d        }C      MULS     r5,r7,r5
        0x00002a6a:    194d        M.      ADDS     r5,r1,r5
        0x00002a6c:    73ac        .s      STRB     r4,[r5,#0xe]
        0x00002a6e:    7834        4x      LDRB     r4,[r6,#0]
        0x00002a70:    1c65        e.      ADDS     r5,r4,#1
        0x00002a72:    7035        5p      STRB     r5,[r6,#0]
        0x00002a74:    5d04        .]      LDRB     r4,[r0,r4]
        0x00002a76:    1e65        e.      SUBS     r5,r4,#1
        0x00002a78:    41ac        .A      SBCS     r4,r4,r5
        0x00002a7a:    781f        .x      LDRB     r7,[r3,#0]
        0x00002a7c:    4615        .F      MOV      r5,r2
        0x00002a7e:    437d        }C      MULS     r5,r7,r5
        0x00002a80:    194d        M.      ADDS     r5,r1,r5
        0x00002a82:    73ec        .s      STRB     r4,[r5,#0xf]
        0x00002a84:    7834        4x      LDRB     r4,[r6,#0]
        0x00002a86:    1c65        e.      ADDS     r5,r4,#1
        0x00002a88:    7035        5p      STRB     r5,[r6,#0]
        0x00002a8a:    5d04        .]      LDRB     r4,[r0,r4]
        0x00002a8c:    1e65        e.      SUBS     r5,r4,#1
        0x00002a8e:    41ac        .A      SBCS     r4,r4,r5
        0x00002a90:    781f        .x      LDRB     r7,[r3,#0]
        0x00002a92:    4615        .F      MOV      r5,r2
        0x00002a94:    437d        }C      MULS     r5,r7,r5
        0x00002a96:    194d        M.      ADDS     r5,r1,r5
        0x00002a98:    742c        ,t      STRB     r4,[r5,#0x10]
        0x00002a9a:    7834        4x      LDRB     r4,[r6,#0]
        0x00002a9c:    1c65        e.      ADDS     r5,r4,#1
        0x00002a9e:    7035        5p      STRB     r5,[r6,#0]
        0x00002aa0:    5d04        .]      LDRB     r4,[r0,r4]
        0x00002aa2:    1e65        e.      SUBS     r5,r4,#1
        0x00002aa4:    41ac        .A      SBCS     r4,r4,r5
        0x00002aa6:    781f        .x      LDRB     r7,[r3,#0]
        0x00002aa8:    4615        .F      MOV      r5,r2
        0x00002aaa:    437d        }C      MULS     r5,r7,r5
        0x00002aac:    194d        M.      ADDS     r5,r1,r5
        0x00002aae:    746c        lt      STRB     r4,[r5,#0x11]
        0x00002ab0:    7834        4x      LDRB     r4,[r6,#0]
        0x00002ab2:    1c65        e.      ADDS     r5,r4,#1
        0x00002ab4:    7035        5p      STRB     r5,[r6,#0]
        0x00002ab6:    5d04        .]      LDRB     r4,[r0,r4]
        0x00002ab8:    1e65        e.      SUBS     r5,r4,#1
        0x00002aba:    41ac        .A      SBCS     r4,r4,r5
        0x00002abc:    781f        .x      LDRB     r7,[r3,#0]
        0x00002abe:    4615        .F      MOV      r5,r2
        0x00002ac0:    437d        }C      MULS     r5,r7,r5
        0x00002ac2:    194d        M.      ADDS     r5,r1,r5
        0x00002ac4:    74ac        .t      STRB     r4,[r5,#0x12]
        0x00002ac6:    7834        4x      LDRB     r4,[r6,#0]
        0x00002ac8:    1c65        e.      ADDS     r5,r4,#1
        0x00002aca:    7035        5p      STRB     r5,[r6,#0]
        0x00002acc:    5d04        .]      LDRB     r4,[r0,r4]
        0x00002ace:    1e65        e.      SUBS     r5,r4,#1
        0x00002ad0:    41ac        .A      SBCS     r4,r4,r5
        0x00002ad2:    781f        .x      LDRB     r7,[r3,#0]
        0x00002ad4:    4615        .F      MOV      r5,r2
        0x00002ad6:    437d        }C      MULS     r5,r7,r5
        0x00002ad8:    194d        M.      ADDS     r5,r1,r5
        0x00002ada:    74ec        .t      STRB     r4,[r5,#0x13]
        0x00002adc:    7834        4x      LDRB     r4,[r6,#0]
        0x00002ade:    1c65        e.      ADDS     r5,r4,#1
        0x00002ae0:    7035        5p      STRB     r5,[r6,#0]
        0x00002ae2:    5d04        .]      LDRB     r4,[r0,r4]
        0x00002ae4:    1e65        e.      SUBS     r5,r4,#1
        0x00002ae6:    41ac        .A      SBCS     r4,r4,r5
        0x00002ae8:    781f        .x      LDRB     r7,[r3,#0]
        0x00002aea:    4615        .F      MOV      r5,r2
        0x00002aec:    437d        }C      MULS     r5,r7,r5
        0x00002aee:    194d        M.      ADDS     r5,r1,r5
        0x00002af0:    752c        ,u      STRB     r4,[r5,#0x14]
        0x00002af2:    7834        4x      LDRB     r4,[r6,#0]
        0x00002af4:    1c65        e.      ADDS     r5,r4,#1
        0x00002af6:    7035        5p      STRB     r5,[r6,#0]
        0x00002af8:    5d04        .]      LDRB     r4,[r0,r4]
        0x00002afa:    1e65        e.      SUBS     r5,r4,#1
        0x00002afc:    41ac        .A      SBCS     r4,r4,r5
        0x00002afe:    781f        .x      LDRB     r7,[r3,#0]
        0x00002b00:    4615        .F      MOV      r5,r2
        0x00002b02:    437d        }C      MULS     r5,r7,r5
        0x00002b04:    194d        M.      ADDS     r5,r1,r5
        0x00002b06:    756c        lu      STRB     r4,[r5,#0x15]
        0x00002b08:    7834        4x      LDRB     r4,[r6,#0]
        0x00002b0a:    1c65        e.      ADDS     r5,r4,#1
        0x00002b0c:    7035        5p      STRB     r5,[r6,#0]
        0x00002b0e:    5d04        .]      LDRB     r4,[r0,r4]
        0x00002b10:    1e65        e.      SUBS     r5,r4,#1
        0x00002b12:    41ac        .A      SBCS     r4,r4,r5
        0x00002b14:    781f        .x      LDRB     r7,[r3,#0]
        0x00002b16:    4615        .F      MOV      r5,r2
        0x00002b18:    437d        }C      MULS     r5,r7,r5
        0x00002b1a:    194d        M.      ADDS     r5,r1,r5
        0x00002b1c:    75ac        .u      STRB     r4,[r5,#0x16]
        0x00002b1e:    7834        4x      LDRB     r4,[r6,#0]
        0x00002b20:    1c65        e.      ADDS     r5,r4,#1
        0x00002b22:    7035        5p      STRB     r5,[r6,#0]
        0x00002b24:    5d00        .]      LDRB     r0,[r0,r4]
        0x00002b26:    1e44        D.      SUBS     r4,r0,#1
        0x00002b28:    41a0        .A      SBCS     r0,r0,r4
        0x00002b2a:    781b        .x      LDRB     r3,[r3,#0]
        0x00002b2c:    435a        ZC      MULS     r2,r3,r2
        0x00002b2e:    1889        ..      ADDS     r1,r1,r2
        0x00002b30:    75c8        .u      STRB     r0,[r1,#0x17]
        0x00002b32:    b002        ..      ADD      sp,sp,#8
        0x00002b34:    bdf0        ..      POP      {r4-r7,pc}
        0x00002b36:    46c0        .F      MOV      r8,r8
    $d
    __arm_cp.19_0
        0x00002b38:    2000040e    ...     DCD    536871950
    __arm_cp.19_1
        0x00002b3c:    20000082    ...     DCD    536871042
    __arm_cp.19_2
        0x00002b40:    200001d7    ...     DCD    536871383
    __arm_cp.19_3
        0x00002b44:    2000007e    ~..     DCD    536871038
    __arm_cp.19_4
        0x00002b48:    20000010    ...     DCD    536870928
    $t
    Meter_RSP_PowerData
        0x00002b4c:    b5b0        ..      PUSH     {r4,r5,r7,lr}
        0x00002b4e:    b082        ..      SUB      sp,sp,#8
        0x00002b50:    4884        .H      LDR      r0,[pc,#528] ; [0x2d64] = 0x2000040e
        0x00002b52:    7901        .y      LDRB     r1,[r0,#4]
        0x00002b54:    4a84        .J      LDR      r2,[pc,#528] ; [0x2d68] = 0x20000082
        0x00002b56:    7011        .p      STRB     r1,[r2,#0]
        0x00002b58:    ad01        ..      ADD      r5,sp,#4
        0x00002b5a:    2105        .!      MOVS     r1,#5
        0x00002b5c:    7029        )p      STRB     r1,[r5,#0]
        0x00002b5e:    7829        )x      LDRB     r1,[r5,#0]
        0x00002b60:    1c4b        K.      ADDS     r3,r1,#1
        0x00002b62:    702b        +p      STRB     r3,[r5,#0]
        0x00002b64:    5c43        C\      LDRB     r3,[r0,r1]
        0x00002b66:    7811        .x      LDRB     r1,[r2,#0]
        0x00002b68:    00cc        ..      LSLS     r4,r1,#3
        0x00002b6a:    491a        .I      LDR      r1,[pc,#104] ; [0x2bd4] = 0x200002ac
        0x00002b6c:    550b        .U      STRB     r3,[r1,r4]
        0x00002b6e:    782b        +x      LDRB     r3,[r5,#0]
        0x00002b70:    1c5c        \.      ADDS     r4,r3,#1
        0x00002b72:    702c        ,p      STRB     r4,[r5,#0]
        0x00002b74:    5cc3        .\      LDRB     r3,[r0,r3]
        0x00002b76:    7814        .x      LDRB     r4,[r2,#0]
        0x00002b78:    00e4        ..      LSLS     r4,r4,#3
        0x00002b7a:    190c        ..      ADDS     r4,r1,r4
        0x00002b7c:    7063        cp      STRB     r3,[r4,#1]
        0x00002b7e:    2300        .#      MOVS     r3,#0
        0x00002b80:    9300        ..      STR      r3,[sp,#0]
        0x00002b82:    782b        +x      LDRB     r3,[r5,#0]
        0x00002b84:    1c5c        \.      ADDS     r4,r3,#1
        0x00002b86:    702c        ,p      STRB     r4,[r5,#0]
        0x00002b88:    5cc3        .\      LDRB     r3,[r0,r3]
        0x00002b8a:    061b        ..      LSLS     r3,r3,#24
        0x00002b8c:    9300        ..      STR      r3,[sp,#0]
        0x00002b8e:    782b        +x      LDRB     r3,[r5,#0]
        0x00002b90:    1c5c        \.      ADDS     r4,r3,#1
        0x00002b92:    702c        ,p      STRB     r4,[r5,#0]
        0x00002b94:    5cc3        .\      LDRB     r3,[r0,r3]
        0x00002b96:    041c        ..      LSLS     r4,r3,#16
        0x00002b98:    9b00        ..      LDR      r3,[sp,#0]
        0x00002b9a:    4323        #C      ORRS     r3,r3,r4
        0x00002b9c:    9300        ..      STR      r3,[sp,#0]
        0x00002b9e:    782b        +x      LDRB     r3,[r5,#0]
        0x00002ba0:    1c5c        \.      ADDS     r4,r3,#1
        0x00002ba2:    702c        ,p      STRB     r4,[r5,#0]
        0x00002ba4:    5cc3        .\      LDRB     r3,[r0,r3]
        0x00002ba6:    021c        ..      LSLS     r4,r3,#8
        0x00002ba8:    9b00        ..      LDR      r3,[sp,#0]
        0x00002baa:    4323        #C      ORRS     r3,r3,r4
        0x00002bac:    9300        ..      STR      r3,[sp,#0]
        0x00002bae:    782b        +x      LDRB     r3,[r5,#0]
        0x00002bb0:    1c5c        \.      ADDS     r4,r3,#1
        0x00002bb2:    702c        ,p      STRB     r4,[r5,#0]
        0x00002bb4:    5cc3        .\      LDRB     r3,[r0,r3]
        0x00002bb6:    9800        ..      LDR      r0,[sp,#0]
        0x00002bb8:    4318        .C      ORRS     r0,r0,r3
        0x00002bba:    9000        ..      STR      r0,[sp,#0]
        0x00002bbc:    9800        ..      LDR      r0,[sp,#0]
        0x00002bbe:    7812        .x      LDRB     r2,[r2,#0]
        0x00002bc0:    00d2        ..      LSLS     r2,r2,#3
        0x00002bc2:    1889        ..      ADDS     r1,r1,r2
        0x00002bc4:    6048        H`      STR      r0,[r1,#4]
        0x00002bc6:    b002        ..      ADD      sp,sp,#8
        0x00002bc8:    bdb0        ..      POP      {r4,r5,r7,pc}
        0x00002bca:    46c0        .F      MOV      r8,r8
    $d
    __arm_cp.16_0
        0x00002bcc:    2000040e    ...     DCD    536871950
    __arm_cp.16_1
        0x00002bd0:    20000082    ...     DCD    536871042
    __arm_cp.16_2
        0x00002bd4:    200002ac    ...     DCD    536871596
    $t
    Meter_RSP_SysInformation
        0x00002bd8:    b510        ..      PUSH     {r4,lr}
        0x00002bda:    b083        ..      SUB      sp,sp,#0xc
        0x00002bdc:    ac02        ..      ADD      r4,sp,#8
        0x00002bde:    2005        .       MOVS     r0,#5
        0x00002be0:    7020         p      STRB     r0,[r4,#0]
        0x00002be2:    7821        !x      LDRB     r1,[r4,#0]
        0x00002be4:    1c48        H.      ADDS     r0,r1,#1
        0x00002be6:    7020         p      STRB     r0,[r4,#0]
        0x00002be8:    485e        ^H      LDR      r0,[pc,#376] ; [0x2d64] = 0x2000040e
        0x00002bea:    5c41        A\      LDRB     r1,[r0,r1]
        0x00002bec:    0609        ..      LSLS     r1,r1,#24
        0x00002bee:    9100        ..      STR      r1,[sp,#0]
        0x00002bf0:    7821        !x      LDRB     r1,[r4,#0]
        0x00002bf2:    1c4a        J.      ADDS     r2,r1,#1
        0x00002bf4:    7022        "p      STRB     r2,[r4,#0]
        0x00002bf6:    5c41        A\      LDRB     r1,[r0,r1]
        0x00002bf8:    040a        ..      LSLS     r2,r1,#16
        0x00002bfa:    9900        ..      LDR      r1,[sp,#0]
        0x00002bfc:    4311        .C      ORRS     r1,r1,r2
        0x00002bfe:    9100        ..      STR      r1,[sp,#0]
        0x00002c00:    7821        !x      LDRB     r1,[r4,#0]
        0x00002c02:    1c4a        J.      ADDS     r2,r1,#1
        0x00002c04:    7022        "p      STRB     r2,[r4,#0]
        0x00002c06:    5c41        A\      LDRB     r1,[r0,r1]
        0x00002c08:    020a        ..      LSLS     r2,r1,#8
        0x00002c0a:    9900        ..      LDR      r1,[sp,#0]
        0x00002c0c:    4311        .C      ORRS     r1,r1,r2
        0x00002c0e:    9100        ..      STR      r1,[sp,#0]
        0x00002c10:    7821        !x      LDRB     r1,[r4,#0]
        0x00002c12:    1c4a        J.      ADDS     r2,r1,#1
        0x00002c14:    7022        "p      STRB     r2,[r4,#0]
        0x00002c16:    5c42        B\      LDRB     r2,[r0,r1]
        0x00002c18:    9900        ..      LDR      r1,[sp,#0]
        0x00002c1a:    4311        .C      ORRS     r1,r1,r2
        0x00002c1c:    9100        ..      STR      r1,[sp,#0]
        0x00002c1e:    9900        ..      LDR      r1,[sp,#0]
        0x00002c20:    4a2f        /J      LDR      r2,[pc,#188] ; [0x2ce0] = 0x20000084
        0x00002c22:    6011        .`      STR      r1,[r2,#0]
        0x00002c24:    7821        !x      LDRB     r1,[r4,#0]
        0x00002c26:    1c4b        K.      ADDS     r3,r1,#1
        0x00002c28:    7023        #p      STRB     r3,[r4,#0]
        0x00002c2a:    5c41        A\      LDRB     r1,[r0,r1]
        0x00002c2c:    0609        ..      LSLS     r1,r1,#24
        0x00002c2e:    9100        ..      STR      r1,[sp,#0]
        0x00002c30:    7821        !x      LDRB     r1,[r4,#0]
        0x00002c32:    1c4b        K.      ADDS     r3,r1,#1
        0x00002c34:    7023        #p      STRB     r3,[r4,#0]
        0x00002c36:    5c41        A\      LDRB     r1,[r0,r1]
        0x00002c38:    040b        ..      LSLS     r3,r1,#16
        0x00002c3a:    9900        ..      LDR      r1,[sp,#0]
        0x00002c3c:    4319        .C      ORRS     r1,r1,r3
        0x00002c3e:    9100        ..      STR      r1,[sp,#0]
        0x00002c40:    7821        !x      LDRB     r1,[r4,#0]
        0x00002c42:    1c4b        K.      ADDS     r3,r1,#1
        0x00002c44:    7023        #p      STRB     r3,[r4,#0]
        0x00002c46:    5c41        A\      LDRB     r1,[r0,r1]
        0x00002c48:    020b        ..      LSLS     r3,r1,#8
        0x00002c4a:    9900        ..      LDR      r1,[sp,#0]
        0x00002c4c:    4319        .C      ORRS     r1,r1,r3
        0x00002c4e:    9100        ..      STR      r1,[sp,#0]
        0x00002c50:    7821        !x      LDRB     r1,[r4,#0]
        0x00002c52:    1c4b        K.      ADDS     r3,r1,#1
        0x00002c54:    7023        #p      STRB     r3,[r4,#0]
        0x00002c56:    5c43        C\      LDRB     r3,[r0,r1]
        0x00002c58:    9900        ..      LDR      r1,[sp,#0]
        0x00002c5a:    4319        .C      ORRS     r1,r1,r3
        0x00002c5c:    9100        ..      STR      r1,[sp,#0]
        0x00002c5e:    9900        ..      LDR      r1,[sp,#0]
        0x00002c60:    6051        Q`      STR      r1,[r2,#4]
        0x00002c62:    7821        !x      LDRB     r1,[r4,#0]
        0x00002c64:    1c4b        K.      ADDS     r3,r1,#1
        0x00002c66:    7023        #p      STRB     r3,[r4,#0]
        0x00002c68:    5c41        A\      LDRB     r1,[r0,r1]
        0x00002c6a:    0609        ..      LSLS     r1,r1,#24
        0x00002c6c:    9100        ..      STR      r1,[sp,#0]
        0x00002c6e:    7821        !x      LDRB     r1,[r4,#0]
        0x00002c70:    1c4b        K.      ADDS     r3,r1,#1
        0x00002c72:    7023        #p      STRB     r3,[r4,#0]
        0x00002c74:    5c41        A\      LDRB     r1,[r0,r1]
        0x00002c76:    040b        ..      LSLS     r3,r1,#16
        0x00002c78:    9900        ..      LDR      r1,[sp,#0]
        0x00002c7a:    4319        .C      ORRS     r1,r1,r3
        0x00002c7c:    9100        ..      STR      r1,[sp,#0]
        0x00002c7e:    7821        !x      LDRB     r1,[r4,#0]
        0x00002c80:    1c4b        K.      ADDS     r3,r1,#1
        0x00002c82:    7023        #p      STRB     r3,[r4,#0]
        0x00002c84:    5c41        A\      LDRB     r1,[r0,r1]
        0x00002c86:    020b        ..      LSLS     r3,r1,#8
        0x00002c88:    9900        ..      LDR      r1,[sp,#0]
        0x00002c8a:    4319        .C      ORRS     r1,r1,r3
        0x00002c8c:    9100        ..      STR      r1,[sp,#0]
        0x00002c8e:    7821        !x      LDRB     r1,[r4,#0]
        0x00002c90:    1c4b        K.      ADDS     r3,r1,#1
        0x00002c92:    7023        #p      STRB     r3,[r4,#0]
        0x00002c94:    5c43        C\      LDRB     r3,[r0,r1]
        0x00002c96:    9900        ..      LDR      r1,[sp,#0]
        0x00002c98:    4319        .C      ORRS     r1,r1,r3
        0x00002c9a:    9100        ..      STR      r1,[sp,#0]
        0x00002c9c:    9900        ..      LDR      r1,[sp,#0]
        0x00002c9e:    6091        .`      STR      r1,[r2,#8]
        0x00002ca0:    7821        !x      LDRB     r1,[r4,#0]
        0x00002ca2:    1c4b        K.      ADDS     r3,r1,#1
        0x00002ca4:    7023        #p      STRB     r3,[r4,#0]
        0x00002ca6:    5c41        A\      LDRB     r1,[r0,r1]
        0x00002ca8:    ab01        ..      ADD      r3,sp,#4
        0x00002caa:    7019        .p      STRB     r1,[r3,#0]
        0x00002cac:    9901        ..      LDR      r1,[sp,#4]
        0x00002cae:    7311        .s      STRB     r1,[r2,#0xc]
        0x00002cb0:    7821        !x      LDRB     r1,[r4,#0]
        0x00002cb2:    1c4a        J.      ADDS     r2,r1,#1
        0x00002cb4:    7022        "p      STRB     r2,[r4,#0]
        0x00002cb6:    5c42        B\      LDRB     r2,[r0,r1]
        0x00002cb8:    490a        .I      LDR      r1,[pc,#40] ; [0x2ce4] = 0x20000472
        0x00002cba:    700a        .p      STRB     r2,[r1,#0]
        0x00002cbc:    7822        "x      LDRB     r2,[r4,#0]
        0x00002cbe:    1c53        S.      ADDS     r3,r2,#1
        0x00002cc0:    7023        #p      STRB     r3,[r4,#0]
        0x00002cc2:    5c82        .\      LDRB     r2,[r0,r2]
        0x00002cc4:    704a        Jp      STRB     r2,[r1,#1]
        0x00002cc6:    7822        "x      LDRB     r2,[r4,#0]
        0x00002cc8:    1c53        S.      ADDS     r3,r2,#1
        0x00002cca:    7023        #p      STRB     r3,[r4,#0]
        0x00002ccc:    5c82        .\      LDRB     r2,[r0,r2]
        0x00002cce:    708a        .p      STRB     r2,[r1,#2]
        0x00002cd0:    7822        "x      LDRB     r2,[r4,#0]
        0x00002cd2:    1c53        S.      ADDS     r3,r2,#1
        0x00002cd4:    7023        #p      STRB     r3,[r4,#0]
        0x00002cd6:    5c80        .\      LDRB     r0,[r0,r2]
        0x00002cd8:    70c8        .p      STRB     r0,[r1,#3]
        0x00002cda:    b003        ..      ADD      sp,sp,#0xc
        0x00002cdc:    bd10        ..      POP      {r4,pc}
        0x00002cde:    46c0        .F      MOV      r8,r8
    $d
    __arm_cp.15_1
        0x00002ce0:    20000084    ...     DCD    536871044
    __arm_cp.15_2
        0x00002ce4:    20000472    r..     DCD    536872050
    $t
    Meter_RSP_WMData
        0x00002ce8:    b5b0        ..      PUSH     {r4,r5,r7,lr}
        0x00002cea:    b082        ..      SUB      sp,sp,#8
        0x00002cec:    481d        .H      LDR      r0,[pc,#116] ; [0x2d64] = 0x2000040e
        0x00002cee:    7901        .y      LDRB     r1,[r0,#4]
        0x00002cf0:    4a1d        .J      LDR      r2,[pc,#116] ; [0x2d68] = 0x20000082
        0x00002cf2:    7011        .p      STRB     r1,[r2,#0]
        0x00002cf4:    ad01        ..      ADD      r5,sp,#4
        0x00002cf6:    2105        .!      MOVS     r1,#5
        0x00002cf8:    7029        )p      STRB     r1,[r5,#0]
        0x00002cfa:    7829        )x      LDRB     r1,[r5,#0]
        0x00002cfc:    1c4b        K.      ADDS     r3,r1,#1
        0x00002cfe:    702b        +p      STRB     r3,[r5,#0]
        0x00002d00:    5c43        C\      LDRB     r3,[r0,r1]
        0x00002d02:    7811        .x      LDRB     r1,[r2,#0]
        0x00002d04:    00cc        ..      LSLS     r4,r1,#3
        0x00002d06:    4919        .I      LDR      r1,[pc,#100] ; [0x2d6c] = 0x2000047c
        0x00002d08:    550b        .U      STRB     r3,[r1,r4]
        0x00002d0a:    782b        +x      LDRB     r3,[r5,#0]
        0x00002d0c:    1c5c        \.      ADDS     r4,r3,#1
        0x00002d0e:    702c        ,p      STRB     r4,[r5,#0]
        0x00002d10:    5cc3        .\      LDRB     r3,[r0,r3]
        0x00002d12:    7814        .x      LDRB     r4,[r2,#0]
        0x00002d14:    00e4        ..      LSLS     r4,r4,#3
        0x00002d16:    190c        ..      ADDS     r4,r1,r4
        0x00002d18:    7063        cp      STRB     r3,[r4,#1]
        0x00002d1a:    782b        +x      LDRB     r3,[r5,#0]
        0x00002d1c:    1c5c        \.      ADDS     r4,r3,#1
        0x00002d1e:    702c        ,p      STRB     r4,[r5,#0]
        0x00002d20:    5cc3        .\      LDRB     r3,[r0,r3]
        0x00002d22:    061b        ..      LSLS     r3,r3,#24
        0x00002d24:    9300        ..      STR      r3,[sp,#0]
        0x00002d26:    782b        +x      LDRB     r3,[r5,#0]
        0x00002d28:    1c5c        \.      ADDS     r4,r3,#1
        0x00002d2a:    702c        ,p      STRB     r4,[r5,#0]
        0x00002d2c:    5cc3        .\      LDRB     r3,[r0,r3]
        0x00002d2e:    041c        ..      LSLS     r4,r3,#16
        0x00002d30:    9b00        ..      LDR      r3,[sp,#0]
        0x00002d32:    4323        #C      ORRS     r3,r3,r4
        0x00002d34:    9300        ..      STR      r3,[sp,#0]
        0x00002d36:    782b        +x      LDRB     r3,[r5,#0]
        0x00002d38:    1c5c        \.      ADDS     r4,r3,#1
        0x00002d3a:    702c        ,p      STRB     r4,[r5,#0]
        0x00002d3c:    5cc3        .\      LDRB     r3,[r0,r3]
        0x00002d3e:    021c        ..      LSLS     r4,r3,#8
        0x00002d40:    9b00        ..      LDR      r3,[sp,#0]
        0x00002d42:    4323        #C      ORRS     r3,r3,r4
        0x00002d44:    9300        ..      STR      r3,[sp,#0]
        0x00002d46:    782b        +x      LDRB     r3,[r5,#0]
        0x00002d48:    1c5c        \.      ADDS     r4,r3,#1
        0x00002d4a:    702c        ,p      STRB     r4,[r5,#0]
        0x00002d4c:    5cc3        .\      LDRB     r3,[r0,r3]
        0x00002d4e:    9800        ..      LDR      r0,[sp,#0]
        0x00002d50:    4318        .C      ORRS     r0,r0,r3
        0x00002d52:    9000        ..      STR      r0,[sp,#0]
        0x00002d54:    9800        ..      LDR      r0,[sp,#0]
        0x00002d56:    7812        .x      LDRB     r2,[r2,#0]
        0x00002d58:    00d2        ..      LSLS     r2,r2,#3
        0x00002d5a:    1889        ..      ADDS     r1,r1,r2
        0x00002d5c:    6048        H`      STR      r0,[r1,#4]
        0x00002d5e:    b002        ..      ADD      sp,sp,#8
        0x00002d60:    bdb0        ..      POP      {r4,r5,r7,pc}
        0x00002d62:    46c0        .F      MOV      r8,r8
    $d
    __arm_cp.18_0
        0x00002d64:    2000040e    ...     DCD    536871950
    __arm_cp.18_1
        0x00002d68:    20000082    ...     DCD    536871042
    __arm_cp.18_2
        0x00002d6c:    2000047c    |..     DCD    536872060
    $t
    NVIC_DisableIRQ
        0x00002d70:    b081        ..      SUB      sp,sp,#4
        0x00002d72:    4601        .F      MOV      r1,r0
        0x00002d74:    4668        hF      MOV      r0,sp
        0x00002d76:    7001        .p      STRB     r1,[r0,#0]
        0x00002d78:    7801        .x      LDRB     r1,[r0,#0]
        0x00002d7a:    201f        .       MOVS     r0,#0x1f
        0x00002d7c:    4001        .@      ANDS     r1,r1,r0
        0x00002d7e:    2001        .       MOVS     r0,#1
        0x00002d80:    4088        .@      LSLS     r0,r0,r1
        0x00002d82:    4902        .I      LDR      r1,[pc,#8] ; [0x2d8c] = 0xe000e180
        0x00002d84:    6008        .`      STR      r0,[r1,#0]
        0x00002d86:    b001        ..      ADD      sp,sp,#4
        0x00002d88:    4770        pG      BX       lr
        0x00002d8a:    46c0        .F      MOV      r8,r8
    $d
    __arm_cp.4_0
        0x00002d8c:    e000e180    ....    DCD    3758154112
    $t
    NVIC_EnableIRQ
        0x00002d90:    b081        ..      SUB      sp,sp,#4
        0x00002d92:    4601        .F      MOV      r1,r0
        0x00002d94:    4668        hF      MOV      r0,sp
        0x00002d96:    7001        .p      STRB     r1,[r0,#0]
        0x00002d98:    7801        .x      LDRB     r1,[r0,#0]
        0x00002d9a:    201f        .       MOVS     r0,#0x1f
        0x00002d9c:    4001        .@      ANDS     r1,r1,r0
        0x00002d9e:    2001        .       MOVS     r0,#1
        0x00002da0:    4088        .@      LSLS     r0,r0,r1
        0x00002da2:    4909        .I      LDR      r1,[pc,#36] ; [0x2dc8] = 0xe000e100
        0x00002da4:    6008        .`      STR      r0,[r1,#0]
        0x00002da6:    b001        ..      ADD      sp,sp,#4
        0x00002da8:    4770        pG      BX       lr
        0x00002daa:    46c0        .F      MOV      r8,r8
    NVIC_EnableIRQ
        0x00002dac:    b081        ..      SUB      sp,sp,#4
        0x00002dae:    4601        .F      MOV      r1,r0
        0x00002db0:    4668        hF      MOV      r0,sp
        0x00002db2:    7001        .p      STRB     r1,[r0,#0]
        0x00002db4:    7801        .x      LDRB     r1,[r0,#0]
        0x00002db6:    201f        .       MOVS     r0,#0x1f
        0x00002db8:    4001        .@      ANDS     r1,r1,r0
        0x00002dba:    2001        .       MOVS     r0,#1
        0x00002dbc:    4088        .@      LSLS     r0,r0,r1
        0x00002dbe:    4902        .I      LDR      r1,[pc,#8] ; [0x2dc8] = 0xe000e100
        0x00002dc0:    6008        .`      STR      r0,[r1,#0]
        0x00002dc2:    b001        ..      ADD      sp,sp,#4
        0x00002dc4:    4770        pG      BX       lr
        0x00002dc6:    46c0        .F      MOV      r8,r8
    $d
    __arm_cp.7_0
        0x00002dc8:    e000e100    ....    DCD    3758153984
    $t
    NVIC_SetPriority
        0x00002dcc:    b570        p.      PUSH     {r4-r6,lr}
        0x00002dce:    b082        ..      SUB      sp,sp,#8
        0x00002dd0:    4602        .F      MOV      r2,r0
        0x00002dd2:    a801        ..      ADD      r0,sp,#4
        0x00002dd4:    7002        .p      STRB     r2,[r0,#0]
        0x00002dd6:    9100        ..      STR      r1,[sp,#0]
        0x00002dd8:    2100        .!      MOVS     r1,#0
        0x00002dda:    5640        @V      LDRSB    r0,[r0,r1]
        0x00002ddc:    2800        .(      CMP      r0,#0
        0x00002dde:    d51b        ..      BPL      0x2e18 ; NVIC_SetPriority + 76
        0x00002de0:    e7ff        ..      B        0x2de2 ; NVIC_SetPriority + 22
        0x00002de2:    a901        ..      ADD      r1,sp,#4
        0x00002de4:    7808        .x      LDRB     r0,[r1,#0]
        0x00002de6:    240f        .$      MOVS     r4,#0xf
        0x00002de8:    4020         @      ANDS     r0,r0,r4
        0x00002dea:    3808        .8      SUBS     r0,r0,#8
        0x00002dec:    2203        ."      MOVS     r2,#3
        0x00002dee:    43d3        .C      MVNS     r3,r2
        0x00002df0:    4018        .@      ANDS     r0,r0,r3
        0x00002df2:    4a16        .J      LDR      r2,[pc,#88] ; [0x2e4c] = 0xe000ed1c
        0x00002df4:    5880        .X      LDR      r0,[r0,r2]
        0x00002df6:    2500        .%      MOVS     r5,#0
        0x00002df8:    5749        IW      LDRSB    r1,[r1,r5]
        0x00002dfa:    078d        ..      LSLS     r5,r1,#30
        0x00002dfc:    0eee        ..      LSRS     r6,r5,#27
        0x00002dfe:    25ff        .%      MOVS     r5,#0xff
        0x00002e00:    40b5        .@      LSLS     r5,r5,r6
        0x00002e02:    43a8        .C      BICS     r0,r0,r5
        0x00002e04:    9d00        ..      LDR      r5,[sp,#0]
        0x00002e06:    01ad        ..      LSLS     r5,r5,#6
        0x00002e08:    b2ed        ..      UXTB     r5,r5
        0x00002e0a:    40b5        .@      LSLS     r5,r5,r6
        0x00002e0c:    4328        (C      ORRS     r0,r0,r5
        0x00002e0e:    4021        !@      ANDS     r1,r1,r4
        0x00002e10:    3908        .9      SUBS     r1,r1,#8
        0x00002e12:    4019        .@      ANDS     r1,r1,r3
        0x00002e14:    5088        .P      STR      r0,[r1,r2]
        0x00002e16:    e015        ..      B        0x2e44 ; NVIC_SetPriority + 120
        0x00002e18:    2400        .$      MOVS     r4,#0
        0x00002e1a:    a901        ..      ADD      r1,sp,#4
        0x00002e1c:    5708        .W      LDRSB    r0,[r1,r4]
        0x00002e1e:    2203        ."      MOVS     r2,#3
        0x00002e20:    43d3        .C      MVNS     r3,r2
        0x00002e22:    4018        .@      ANDS     r0,r0,r3
        0x00002e24:    4a08        .J      LDR      r2,[pc,#32] ; [0x2e48] = 0xe000e400
        0x00002e26:    5880        .X      LDR      r0,[r0,r2]
        0x00002e28:    5709        .W      LDRSB    r1,[r1,r4]
        0x00002e2a:    078c        ..      LSLS     r4,r1,#30
        0x00002e2c:    0ee5        ..      LSRS     r5,r4,#27
        0x00002e2e:    24ff        .$      MOVS     r4,#0xff
        0x00002e30:    40ac        .@      LSLS     r4,r4,r5
        0x00002e32:    43a0        .C      BICS     r0,r0,r4
        0x00002e34:    9c00        ..      LDR      r4,[sp,#0]
        0x00002e36:    01a4        ..      LSLS     r4,r4,#6
        0x00002e38:    b2e4        ..      UXTB     r4,r4
        0x00002e3a:    40ac        .@      LSLS     r4,r4,r5
        0x00002e3c:    4320         C      ORRS     r0,r0,r4
        0x00002e3e:    4019        .@      ANDS     r1,r1,r3
        0x00002e40:    5088        .P      STR      r0,[r1,r2]
        0x00002e42:    e7ff        ..      B        0x2e44 ; NVIC_SetPriority + 120
        0x00002e44:    b002        ..      ADD      sp,sp,#8
        0x00002e46:    bd70        p.      POP      {r4-r6,pc}
    $d
    __arm_cp.24_0
        0x00002e48:    e000e400    ....    DCD    3758154752
    __arm_cp.24_1
        0x00002e4c:    e000ed1c    ....    DCD    3758157084
    $t
    NVIC_SystemReset
        0x00002e50:    f3bf8f4f    ..O.    DSB      
        0x00002e54:    4903        .I      LDR      r1,[pc,#12] ; [0x2e64] = 0xe000ed0c
        0x00002e56:    4804        .H      LDR      r0,[pc,#16] ; [0x2e68] = 0x5fa0004
        0x00002e58:    6008        .`      STR      r0,[r1,#0]
        0x00002e5a:    f3bf8f4f    ..O.    DSB      
        0x00002e5e:    e7ff        ..      B        0x2e60 ; NVIC_SystemReset + 16
        0x00002e60:    bf00        ..      NOP      
        0x00002e62:    e7fd        ..      B        0x2e60 ; NVIC_SystemReset + 16
    $d
    __arm_cp.16_0
        0x00002e64:    e000ed0c    ....    DCD    3758157068
    __arm_cp.16_1
        0x00002e68:    05fa0004    ....    DCD    100270084
    $t
    PollSuccess_Handler
        0x00002e6c:    b081        ..      SUB      sp,sp,#4
        0x00002e6e:    4669        iF      MOV      r1,sp
        0x00002e70:    7008        .p      STRB     r0,[r1,#0]
        0x00002e72:    4827        'H      LDR      r0,[pc,#156] ; [0x2f10] = 0x2000037e
        0x00002e74:    7800        .x      LDRB     r0,[r0,#0]
        0x00002e76:    1e41        A.      SUBS     r1,r0,#1
        0x00002e78:    4826        &H      LDR      r0,[pc,#152] ; [0x2f14] = 0x20000390
        0x00002e7a:    7001        .p      STRB     r1,[r0,#0]
        0x00002e7c:    4a27        'J      LDR      r2,[pc,#156] ; [0x2f1c] = 0x20000382
        0x00002e7e:    2100        .!      MOVS     r1,#0
        0x00002e80:    7011        .p      STRB     r1,[r2,#0]
        0x00002e82:    4a25        %J      LDR      r2,[pc,#148] ; [0x2f18] = 0x2000037a
        0x00002e84:    7011        .p      STRB     r1,[r2,#0]
        0x00002e86:    4a07        .J      LDR      r2,[pc,#28] ; [0x2ea4] = 0x20000098
        0x00002e88:    7011        .p      STRB     r1,[r2,#0]
        0x00002e8a:    7800        .x      LDRB     r0,[r0,#0]
        0x00002e8c:    2201        ."      MOVS     r2,#1
        0x00002e8e:    4082        .@      LSLS     r2,r2,r0
        0x00002e90:    4924        $I      LDR      r1,[pc,#144] ; [0x2f24] = 0x200002b4
        0x00002e92:    6808        .h      LDR      r0,[r1,#0]
        0x00002e94:    4390        .C      BICS     r0,r0,r2
        0x00002e96:    6008        .`      STR      r0,[r1,#0]
        0x00002e98:    9800        ..      LDR      r0,[sp,#0]
        0x00002e9a:    4921        !I      LDR      r1,[pc,#132] ; [0x2f20] = 0x2000030e
        0x00002e9c:    7008        .p      STRB     r0,[r1,#0]
        0x00002e9e:    b001        ..      ADD      sp,sp,#4
        0x00002ea0:    4770        pG      BX       lr
        0x00002ea2:    46c0        .F      MOV      r8,r8
    $d
    __arm_cp.2_4
        0x00002ea4:    20000098    ...     DCD    536871064
    $t
    PollingTimeout_Handler
        0x00002ea8:    b082        ..      SUB      sp,sp,#8
        0x00002eaa:    aa01        ..      ADD      r2,sp,#4
        0x00002eac:    7010        .p      STRB     r0,[r2,#0]
        0x00002eae:    4668        hF      MOV      r0,sp
        0x00002eb0:    7001        .p      STRB     r1,[r0,#0]
        0x00002eb2:    4817        .H      LDR      r0,[pc,#92] ; [0x2f10] = 0x2000037e
        0x00002eb4:    7800        .x      LDRB     r0,[r0,#0]
        0x00002eb6:    1e40        @.      SUBS     r0,r0,#1
        0x00002eb8:    4916        .I      LDR      r1,[pc,#88] ; [0x2f14] = 0x20000390
        0x00002eba:    7008        .p      STRB     r0,[r1,#0]
        0x00002ebc:    4916        .I      LDR      r1,[pc,#88] ; [0x2f18] = 0x2000037a
        0x00002ebe:    2000        .       MOVS     r0,#0
        0x00002ec0:    7008        .p      STRB     r0,[r1,#0]
        0x00002ec2:    4816        .H      LDR      r0,[pc,#88] ; [0x2f1c] = 0x20000382
        0x00002ec4:    7801        .x      LDRB     r1,[r0,#0]
        0x00002ec6:    1c49        I.      ADDS     r1,r1,#1
        0x00002ec8:    7001        .p      STRB     r1,[r0,#0]
        0x00002eca:    7800        .x      LDRB     r0,[r0,#0]
        0x00002ecc:    2806        .(      CMP      r0,#6
        0x00002ece:    db18        ..      BLT      0x2f02 ; PollingTimeout_Handler + 90
        0x00002ed0:    e7ff        ..      B        0x2ed2 ; PollingTimeout_Handler + 42
        0x00002ed2:    4912        .I      LDR      r1,[pc,#72] ; [0x2f1c] = 0x20000382
        0x00002ed4:    2000        .       MOVS     r0,#0
        0x00002ed6:    7008        .p      STRB     r0,[r1,#0]
        0x00002ed8:    480e        .H      LDR      r0,[pc,#56] ; [0x2f14] = 0x20000390
        0x00002eda:    7800        .x      LDRB     r0,[r0,#0]
        0x00002edc:    2201        ."      MOVS     r2,#1
        0x00002ede:    4082        .@      LSLS     r2,r2,r0
        0x00002ee0:    4910        .I      LDR      r1,[pc,#64] ; [0x2f24] = 0x200002b4
        0x00002ee2:    6808        .h      LDR      r0,[r1,#0]
        0x00002ee4:    4310        .C      ORRS     r0,r0,r2
        0x00002ee6:    6008        .`      STR      r0,[r1,#0]
        0x00002ee8:    480f        .H      LDR      r0,[pc,#60] ; [0x2f28] = 0x2000030d
        0x00002eea:    7800        .x      LDRB     r0,[r0,#0]
        0x00002eec:    2801        .(      CMP      r0,#1
        0x00002eee:    d104        ..      BNE      0x2efa ; PollingTimeout_Handler + 82
        0x00002ef0:    e7ff        ..      B        0x2ef2 ; PollingTimeout_Handler + 74
        0x00002ef2:    490d        .I      LDR      r1,[pc,#52] ; [0x2f28] = 0x2000030d
        0x00002ef4:    2000        .       MOVS     r0,#0
        0x00002ef6:    7008        .p      STRB     r0,[r1,#0]
        0x00002ef8:    e7ff        ..      B        0x2efa ; PollingTimeout_Handler + 82
        0x00002efa:    9800        ..      LDR      r0,[sp,#0]
        0x00002efc:    4908        .I      LDR      r1,[pc,#32] ; [0x2f20] = 0x2000030e
        0x00002efe:    7008        .p      STRB     r0,[r1,#0]
        0x00002f00:    e003        ..      B        0x2f0a ; PollingTimeout_Handler + 98
        0x00002f02:    9801        ..      LDR      r0,[sp,#4]
        0x00002f04:    4906        .I      LDR      r1,[pc,#24] ; [0x2f20] = 0x2000030e
        0x00002f06:    7008        .p      STRB     r0,[r1,#0]
        0x00002f08:    e7ff        ..      B        0x2f0a ; PollingTimeout_Handler + 98
        0x00002f0a:    b002        ..      ADD      sp,sp,#8
        0x00002f0c:    4770        pG      BX       lr
        0x00002f0e:    46c0        .F      MOV      r8,r8
    $d
    __arm_cp.3_0
        0x00002f10:    2000037e    ~..     DCD    536871806
    __arm_cp.3_1
        0x00002f14:    20000390    ...     DCD    536871824
    __arm_cp.3_2
        0x00002f18:    2000037a    z..     DCD    536871802
    __arm_cp.3_3
        0x00002f1c:    20000382    ...     DCD    536871810
    __arm_cp.3_4
        0x00002f20:    2000030e    ...     DCD    536871694
    __arm_cp.3_5
        0x00002f24:    200002b4    ...     DCD    536871604
    __arm_cp.3_6
        0x00002f28:    2000030d    ...     DCD    536871693
    $t
    ProcessHardFault
        0x00002f2c:    b580        ..      PUSH     {r7,lr}
        0x00002f2e:    b084        ..      SUB      sp,sp,#0x10
        0x00002f30:    9003        ..      STR      r0,[sp,#0xc]
        0x00002f32:    9102        ..      STR      r1,[sp,#8]
        0x00002f34:    9201        ..      STR      r2,[sp,#4]
        0x00002f36:    a803        ..      ADD      r0,sp,#0xc
        0x00002f38:    7800        .x      LDRB     r0,[r0,#0]
        0x00002f3a:    0740        @.      LSLS     r0,r0,#29
        0x00002f3c:    2800        .(      CMP      r0,#0
        0x00002f3e:    d503        ..      BPL      0x2f48 ; ProcessHardFault + 28
        0x00002f40:    e7ff        ..      B        0x2f42 ; ProcessHardFault + 22
        0x00002f42:    9801        ..      LDR      r0,[sp,#4]
        0x00002f44:    9000        ..      STR      r0,[sp,#0]
        0x00002f46:    e002        ..      B        0x2f4e ; ProcessHardFault + 34
        0x00002f48:    9802        ..      LDR      r0,[sp,#8]
        0x00002f4a:    9000        ..      STR      r0,[sp,#0]
        0x00002f4c:    e7ff        ..      B        0x2f4e ; ProcessHardFault + 34
        0x00002f4e:    4807        .H      LDR      r0,[pc,#28] ; [0x2f6c] = 0x57f4
        0x00002f50:    f001ffaa    ....    BL       __0printf ; 0x4ea8
        0x00002f54:    e7ff        ..      B        0x2f56 ; ProcessHardFault + 42
        0x00002f56:    9800        ..      LDR      r0,[sp,#0]
        0x00002f58:    6800        .h      LDR      r0,[r0,#0]
        0x00002f5a:    2101        .!      MOVS     r1,#1
        0x00002f5c:    4308        .C      ORRS     r0,r0,r1
        0x00002f5e:    2800        .(      CMP      r0,#0
        0x00002f60:    d001        ..      BEQ      0x2f66 ; ProcessHardFault + 58
        0x00002f62:    e7ff        ..      B        0x2f64 ; ProcessHardFault + 56
        0x00002f64:    e7f7        ..      B        0x2f56 ; ProcessHardFault + 42
        0x00002f66:    9803        ..      LDR      r0,[sp,#0xc]
        0x00002f68:    b004        ..      ADD      sp,sp,#0x10
        0x00002f6a:    bd80        ..      POP      {r7,pc}
    $d
    __arm_cp.0_0
        0x00002f6c:    000057f4    .W..    DCD    22516
    $t
    RaedFlashRTC
        0x00002f70:    b580        ..      PUSH     {r7,lr}
        0x00002f72:    b084        ..      SUB      sp,sp,#0x10
        0x00002f74:    f000f9cc    ....    BL       SYS_UnlockReg ; 0x3310
        0x00002f78:    f7fef8b8    ....    BL       FMC_Open ; 0x10ec
        0x00002f7c:    4809        .H      LDR      r0,[pc,#36] ; [0x2fa4] = 0x1e810
        0x00002f7e:    9003        ..      STR      r0,[sp,#0xc]
        0x00002f80:    9903        ..      LDR      r1,[sp,#0xc]
        0x00002f82:    460a        .F      MOV      r2,r1
        0x00002f84:    3208        .2      ADDS     r2,r2,#8
        0x00002f86:    2000        .       MOVS     r0,#0
        0x00002f88:    ab01        ..      ADD      r3,sp,#4
        0x00002f8a:    9300        ..      STR      r3,[sp,#0]
        0x00002f8c:    f7fef8b4    ....    BL       FMC_Proc ; 0x10f8
        0x00002f90:    9900        ..      LDR      r1,[sp,#0]
        0x00002f92:    4805        .H      LDR      r0,[pc,#20] ; [0x2fa8] = 0x20000076
        0x00002f94:    2208        ."      MOVS     r2,#8
        0x00002f96:    f7fdf8bb    ....    BL       __aeabi_memcpy ; 0x110
        0x00002f9a:    f000f993    ....    BL       SYS_LockReg ; 0x32c4
        0x00002f9e:    b004        ..      ADD      sp,sp,#0x10
        0x00002fa0:    bd80        ..      POP      {r7,pc}
        0x00002fa2:    46c0        .F      MOV      r8,r8
    $d
    __arm_cp.22_0
        0x00002fa4:    0001e810    ....    DCD    124944
    __arm_cp.22_1
        0x00002fa8:    20000076    v..     DCD    536871030
    $t
    ReadMeterOtaCmdList
        0x00002fac:    b580        ..      PUSH     {r7,lr}
        0x00002fae:    b082        ..      SUB      sp,sp,#8
        0x00002fb0:    e7ff        ..      B        0x2fb2 ; ReadMeterOtaCmdList + 6
        0x00002fb2:    a801        ..      ADD      r0,sp,#4
        0x00002fb4:    7800        .x      LDRB     r0,[r0,#0]
        0x00002fb6:    2820         (      CMP      r0,#0x20
        0x00002fb8:    db12        ..      BLT      0x2fe0 ; ReadMeterOtaCmdList + 52
        0x00002fba:    e7ff        ..      B        0x2fbc ; ReadMeterOtaCmdList + 16
        0x00002fbc:    a801        ..      ADD      r0,sp,#4
        0x00002fbe:    9000        ..      STR      r0,[sp,#0]
        0x00002fc0:    7800        .x      LDRB     r0,[r0,#0]
        0x00002fc2:    0080        ..      LSLS     r0,r0,#2
        0x00002fc4:    4907        .I      LDR      r1,[pc,#28] ; [0x2fe4] = 0x1e804
        0x00002fc6:    1840        @.      ADDS     r0,r0,r1
        0x00002fc8:    f7fef902    ....    BL       FMC_Read ; 0x11d0
        0x00002fcc:    9900        ..      LDR      r1,[sp,#0]
        0x00002fce:    780a        .x      LDRB     r2,[r1,#0]
        0x00002fd0:    4905        .I      LDR      r1,[pc,#20] ; [0x2fe8] = 0x2000030c
        0x00002fd2:    5488        .T      STRB     r0,[r1,r2]
        0x00002fd4:    e7ff        ..      B        0x2fd6 ; ReadMeterOtaCmdList + 42
        0x00002fd6:    9801        ..      LDR      r0,[sp,#4]
        0x00002fd8:    1c40        @.      ADDS     r0,r0,#1
        0x00002fda:    a901        ..      ADD      r1,sp,#4
        0x00002fdc:    7008        .p      STRB     r0,[r1,#0]
        0x00002fde:    e7e8        ..      B        0x2fb2 ; ReadMeterOtaCmdList + 6
        0x00002fe0:    b002        ..      ADD      sp,sp,#8
        0x00002fe2:    bd80        ..      POP      {r7,pc}
    $d
    __arm_cp.25_0
        0x00002fe4:    0001e804    ....    DCD    124932
    __arm_cp.25_1
        0x00002fe8:    2000030c    ...     DCD    536871692
    $t
    ReadMyCenterID
        0x00002fec:    4928        (I      LDR      r1,[pc,#160] ; [0x3090] = 0x2000037b
        0x00002fee:    2000        .       MOVS     r0,#0
        0x00002ff0:    7008        .p      STRB     r0,[r1,#0]
        0x00002ff2:    4828        (H      LDR      r0,[pc,#160] ; [0x3094] = 0x50004248
        0x00002ff4:    6800        .h      LDR      r0,[r0,#0]
        0x00002ff6:    2800        .(      CMP      r0,#0
        0x00002ff8:    d006        ..      BEQ      0x3008 ; ReadMyCenterID + 28
        0x00002ffa:    e7ff        ..      B        0x2ffc ; ReadMyCenterID + 16
        0x00002ffc:    4924        $I      LDR      r1,[pc,#144] ; [0x3090] = 0x2000037b
        0x00002ffe:    7808        .x      LDRB     r0,[r1,#0]
        0x00003000:    2201        ."      MOVS     r2,#1
        0x00003002:    4310        .C      ORRS     r0,r0,r2
        0x00003004:    7008        .p      STRB     r0,[r1,#0]
        0x00003006:    e7ff        ..      B        0x3008 ; ReadMyCenterID + 28
        0x00003008:    4823        #H      LDR      r0,[pc,#140] ; [0x3098] = 0x5000424c
        0x0000300a:    6800        .h      LDR      r0,[r0,#0]
        0x0000300c:    2800        .(      CMP      r0,#0
        0x0000300e:    d006        ..      BEQ      0x301e ; ReadMyCenterID + 50
        0x00003010:    e7ff        ..      B        0x3012 ; ReadMyCenterID + 38
        0x00003012:    491f        .I      LDR      r1,[pc,#124] ; [0x3090] = 0x2000037b
        0x00003014:    7808        .x      LDRB     r0,[r1,#0]
        0x00003016:    2202        ."      MOVS     r2,#2
        0x00003018:    4310        .C      ORRS     r0,r0,r2
        0x0000301a:    7008        .p      STRB     r0,[r1,#0]
        0x0000301c:    e7ff        ..      B        0x301e ; ReadMyCenterID + 50
        0x0000301e:    481f        .H      LDR      r0,[pc,#124] ; [0x309c] = 0x50004250
        0x00003020:    6800        .h      LDR      r0,[r0,#0]
        0x00003022:    2800        .(      CMP      r0,#0
        0x00003024:    d006        ..      BEQ      0x3034 ; ReadMyCenterID + 72
        0x00003026:    e7ff        ..      B        0x3028 ; ReadMyCenterID + 60
        0x00003028:    4919        .I      LDR      r1,[pc,#100] ; [0x3090] = 0x2000037b
        0x0000302a:    7808        .x      LDRB     r0,[r1,#0]
        0x0000302c:    2204        ."      MOVS     r2,#4
        0x0000302e:    4310        .C      ORRS     r0,r0,r2
        0x00003030:    7008        .p      STRB     r0,[r1,#0]
        0x00003032:    e7ff        ..      B        0x3034 ; ReadMyCenterID + 72
        0x00003034:    481a        .H      LDR      r0,[pc,#104] ; [0x30a0] = 0x50004254
        0x00003036:    6800        .h      LDR      r0,[r0,#0]
        0x00003038:    2800        .(      CMP      r0,#0
        0x0000303a:    d006        ..      BEQ      0x304a ; ReadMyCenterID + 94
        0x0000303c:    e7ff        ..      B        0x303e ; ReadMyCenterID + 82
        0x0000303e:    4914        .I      LDR      r1,[pc,#80] ; [0x3090] = 0x2000037b
        0x00003040:    7808        .x      LDRB     r0,[r1,#0]
        0x00003042:    2208        ."      MOVS     r2,#8
        0x00003044:    4310        .C      ORRS     r0,r0,r2
        0x00003046:    7008        .p      STRB     r0,[r1,#0]
        0x00003048:    e7ff        ..      B        0x304a ; ReadMyCenterID + 94
        0x0000304a:    4816        .H      LDR      r0,[pc,#88] ; [0x30a4] = 0x50004258
        0x0000304c:    6800        .h      LDR      r0,[r0,#0]
        0x0000304e:    2800        .(      CMP      r0,#0
        0x00003050:    d006        ..      BEQ      0x3060 ; ReadMyCenterID + 116
        0x00003052:    e7ff        ..      B        0x3054 ; ReadMyCenterID + 104
        0x00003054:    490e        .I      LDR      r1,[pc,#56] ; [0x3090] = 0x2000037b
        0x00003056:    7808        .x      LDRB     r0,[r1,#0]
        0x00003058:    2210        ."      MOVS     r2,#0x10
        0x0000305a:    4310        .C      ORRS     r0,r0,r2
        0x0000305c:    7008        .p      STRB     r0,[r1,#0]
        0x0000305e:    e7ff        ..      B        0x3060 ; ReadMyCenterID + 116
        0x00003060:    4811        .H      LDR      r0,[pc,#68] ; [0x30a8] = 0x5000425c
        0x00003062:    6800        .h      LDR      r0,[r0,#0]
        0x00003064:    2800        .(      CMP      r0,#0
        0x00003066:    d006        ..      BEQ      0x3076 ; ReadMyCenterID + 138
        0x00003068:    e7ff        ..      B        0x306a ; ReadMyCenterID + 126
        0x0000306a:    4909        .I      LDR      r1,[pc,#36] ; [0x3090] = 0x2000037b
        0x0000306c:    7808        .x      LDRB     r0,[r1,#0]
        0x0000306e:    2220         "      MOVS     r2,#0x20
        0x00003070:    4310        .C      ORRS     r0,r0,r2
        0x00003072:    7008        .p      STRB     r0,[r1,#0]
        0x00003074:    e7ff        ..      B        0x3076 ; ReadMyCenterID + 138
        0x00003076:    4806        .H      LDR      r0,[pc,#24] ; [0x3090] = 0x2000037b
        0x00003078:    7802        .x      LDRB     r2,[r0,#0]
        0x0000307a:    490c        .I      LDR      r1,[pc,#48] ; [0x30ac] = 0x57c0
        0x0000307c:    5c89        .\      LDRB     r1,[r1,r2]
        0x0000307e:    4a0c        .J      LDR      r2,[pc,#48] ; [0x30b0] = 0x200002b8
        0x00003080:    7011        .p      STRB     r1,[r2,#0]
        0x00003082:    7801        .x      LDRB     r1,[r0,#0]
        0x00003084:    480b        .H      LDR      r0,[pc,#44] ; [0x30b4] = 0x57c9
        0x00003086:    5c40        @\      LDRB     r0,[r0,r1]
        0x00003088:    490b        .I      LDR      r1,[pc,#44] ; [0x30b8] = 0x20000391
        0x0000308a:    7008        .p      STRB     r0,[r1,#0]
        0x0000308c:    4770        pG      BX       lr
        0x0000308e:    46c0        .F      MOV      r8,r8
    $d
    __arm_cp.20_0
        0x00003090:    2000037b    {..     DCD    536871803
    __arm_cp.20_1
        0x00003094:    50004248    HB.P    DCD    1342194248
    __arm_cp.20_2
        0x00003098:    5000424c    LB.P    DCD    1342194252
    __arm_cp.20_3
        0x0000309c:    50004250    PB.P    DCD    1342194256
    __arm_cp.20_4
        0x000030a0:    50004254    TB.P    DCD    1342194260
    __arm_cp.20_5
        0x000030a4:    50004258    XB.P    DCD    1342194264
    __arm_cp.20_6
        0x000030a8:    5000425c    \B.P    DCD    1342194268
    __arm_cp.20_7
        0x000030ac:    000057c0    .W..    DCD    22464
    __arm_cp.20_8
        0x000030b0:    200002b8    ...     DCD    536871608
    __arm_cp.20_9
        0x000030b4:    000057c9    .W..    DCD    22473
    __arm_cp.20_10
        0x000030b8:    20000391    ...     DCD    536871825
    $t
    RecoverSystemMoniter
        0x000030bc:    b580        ..      PUSH     {r7,lr}
        0x000030be:    b082        ..      SUB      sp,sp,#8
        0x000030c0:    480a        .H      LDR      r0,[pc,#40] ; [0x30ec] = 0x200004e1
        0x000030c2:    7800        .x      LDRB     r0,[r0,#0]
        0x000030c4:    07c0        ..      LSLS     r0,r0,#31
        0x000030c6:    2800        .(      CMP      r0,#0
        0x000030c8:    d00e        ..      BEQ      0x30e8 ; RecoverSystemMoniter + 44
        0x000030ca:    e7ff        ..      B        0x30cc ; RecoverSystemMoniter + 16
        0x000030cc:    4907        .I      LDR      r1,[pc,#28] ; [0x30ec] = 0x200004e1
        0x000030ce:    2000        .       MOVS     r0,#0
        0x000030d0:    7008        .p      STRB     r0,[r1,#0]
        0x000030d2:    4907        .I      LDR      r1,[pc,#28] ; [0x30f0] = 0x500042dc
        0x000030d4:    9101        ..      STR      r1,[sp,#4]
        0x000030d6:    6008        .`      STR      r0,[r1,#0]
        0x000030d8:    f000f80c    ....    BL       ResetHostUART ; 0x30f4
        0x000030dc:    f000f824    ..$.    BL       ResetMeterUART ; 0x3128
        0x000030e0:    9901        ..      LDR      r1,[sp,#4]
        0x000030e2:    2001        .       MOVS     r0,#1
        0x000030e4:    6008        .`      STR      r0,[r1,#0]
        0x000030e6:    e7ff        ..      B        0x30e8 ; RecoverSystemMoniter + 44
        0x000030e8:    b002        ..      ADD      sp,sp,#8
        0x000030ea:    bd80        ..      POP      {r7,pc}
    $d
    __arm_cp.4_0
        0x000030ec:    200004e1    ...     DCD    536872161
    __arm_cp.4_1
        0x000030f0:    500042dc    .B.P    DCD    1342194396
    $t
    ResetHostUART
        0x000030f4:    4906        .I      LDR      r1,[pc,#24] ; [0x3110] = 0x200000fd
        0x000030f6:    2000        .       MOVS     r0,#0
        0x000030f8:    7008        .p      STRB     r0,[r1,#0]
        0x000030fa:    4906        .I      LDR      r1,[pc,#24] ; [0x3114] = 0x200000ff
        0x000030fc:    7008        .p      STRB     r0,[r1,#0]
        0x000030fe:    4906        .I      LDR      r1,[pc,#24] ; [0x3118] = 0x200000fe
        0x00003100:    7008        .p      STRB     r0,[r1,#0]
        0x00003102:    4906        .I      LDR      r1,[pc,#24] ; [0x311c] = 0x20000164
        0x00003104:    7008        .p      STRB     r0,[r1,#0]
        0x00003106:    4906        .I      LDR      r1,[pc,#24] ; [0x3120] = 0x20000166
        0x00003108:    7008        .p      STRB     r0,[r1,#0]
        0x0000310a:    4906        .I      LDR      r1,[pc,#24] ; [0x3124] = 0x20000165
        0x0000310c:    7008        .p      STRB     r0,[r1,#0]
        0x0000310e:    4770        pG      BX       lr
    $d
    __arm_cp.5_0
        0x00003110:    200000fd    ...     DCD    536871165
    __arm_cp.5_1
        0x00003114:    200000ff    ...     DCD    536871167
    __arm_cp.5_2
        0x00003118:    200000fe    ...     DCD    536871166
    __arm_cp.5_3
        0x0000311c:    20000164    d..     DCD    536871268
    __arm_cp.5_4
        0x00003120:    20000166    f..     DCD    536871270
    __arm_cp.5_5
        0x00003124:    20000165    e..     DCD    536871269
    $t
    ResetMeterUART
        0x00003128:    4906        .I      LDR      r1,[pc,#24] ; [0x3144] = 0x20000241
        0x0000312a:    2000        .       MOVS     r0,#0
        0x0000312c:    7008        .p      STRB     r0,[r1,#0]
        0x0000312e:    4906        .I      LDR      r1,[pc,#24] ; [0x3148] = 0x20000240
        0x00003130:    7008        .p      STRB     r0,[r1,#0]
        0x00003132:    4906        .I      LDR      r1,[pc,#24] ; [0x314c] = 0x2000023f
        0x00003134:    7008        .p      STRB     r0,[r1,#0]
        0x00003136:    4906        .I      LDR      r1,[pc,#24] ; [0x3150] = 0x200002a8
        0x00003138:    7008        .p      STRB     r0,[r1,#0]
        0x0000313a:    4906        .I      LDR      r1,[pc,#24] ; [0x3154] = 0x200002a7
        0x0000313c:    7008        .p      STRB     r0,[r1,#0]
        0x0000313e:    4906        .I      LDR      r1,[pc,#24] ; [0x3158] = 0x200002a6
        0x00003140:    7008        .p      STRB     r0,[r1,#0]
        0x00003142:    4770        pG      BX       lr
    $d
    __arm_cp.6_0
        0x00003144:    20000241    A..     DCD    536871489
    __arm_cp.6_1
        0x00003148:    20000240    @..     DCD    536871488
    __arm_cp.6_2
        0x0000314c:    2000023f    ?..     DCD    536871487
    __arm_cp.6_3
        0x00003150:    200002a8    ...     DCD    536871592
    __arm_cp.6_4
        0x00003154:    200002a7    ...     DCD    536871591
    __arm_cp.6_5
        0x00003158:    200002a6    ...     DCD    536871590
    $t
    SH_Return
        0x0000315c:    b083        ..      SUB      sp,sp,#0xc
        0x0000315e:    9002        ..      STR      r0,[sp,#8]
        0x00003160:    9101        ..      STR      r1,[sp,#4]
        0x00003162:    9200        ..      STR      r2,[sp,#0]
        0x00003164:    2000        .       MOVS     r0,#0
        0x00003166:    b003        ..      ADD      sp,sp,#0xc
        0x00003168:    4770        pG      BX       lr
        0x0000316a:    0000        ..      MOVS     r0,r0
    SYS_Init
        0x0000316c:    b5b0        ..      PUSH     {r4,r5,r7,lr}
        0x0000316e:    b08a        ..      SUB      sp,sp,#0x28
        0x00003170:    494a        JI      LDR      r1,[pc,#296] ; [0x329c] = 0x50000058
        0x00003172:    6808        .h      LDR      r0,[r1,#0]
        0x00003174:    2201        ."      MOVS     r2,#1
        0x00003176:    9200        ..      STR      r2,[sp,#0]
        0x00003178:    4310        .C      ORRS     r0,r0,r2
        0x0000317a:    220e        ."      MOVS     r2,#0xe
        0x0000317c:    4390        .C      BICS     r0,r0,r2
        0x0000317e:    6008        .`      STR      r0,[r1,#0]
        0x00003180:    6808        .h      LDR      r0,[r1,#0]
        0x00003182:    2210        ."      MOVS     r2,#0x10
        0x00003184:    4310        .C      ORRS     r0,r0,r2
        0x00003186:    22e0        ."      MOVS     r2,#0xe0
        0x00003188:    4390        .C      BICS     r0,r0,r2
        0x0000318a:    6008        .`      STR      r0,[r1,#0]
        0x0000318c:    2006        .       MOVS     r0,#6
        0x0000318e:    f7fdfc4b    ..K.    BL       CLK_EnableXtalRC ; 0xa28
        0x00003192:    2012        .       MOVS     r0,#0x12
        0x00003194:    f7fdfe32    ..2.    BL       CLK_WaitClockReady ; 0xdfc
        0x00003198:    2007        .       MOVS     r0,#7
        0x0000319a:    9002        ..      STR      r0,[sp,#8]
        0x0000319c:    2100        .!      MOVS     r1,#0
        0x0000319e:    9108        ..      STR      r1,[sp,#0x20]
        0x000031a0:    f7fdfd9c    ....    BL       CLK_SetHCLK ; 0xcdc
        0x000031a4:    483e        >H      LDR      r0,[pc,#248] ; [0x32a0] = 0x44aa200
        0x000031a6:    f7fdfd3b    ..;.    BL       CLK_SetCoreClock ; 0xc20
        0x000031aa:    9a00        ..      LDR      r2,[sp,#0]
        0x000031ac:    493d        =I      LDR      r1,[pc,#244] ; [0x32a4] = 0x50000080
        0x000031ae:    6808        .h      LDR      r0,[r1,#0]
        0x000031b0:    4310        .C      ORRS     r0,r0,r2
        0x000031b2:    2302        .#      MOVS     r3,#2
        0x000031b4:    9301        ..      STR      r3,[sp,#4]
        0x000031b6:    4398        .C      BICS     r0,r0,r3
        0x000031b8:    6008        .`      STR      r0,[r1,#0]
        0x000031ba:    6808        .h      LDR      r0,[r1,#0]
        0x000031bc:    0292        ..      LSLS     r2,r2,#10
        0x000031be:    4390        .C      BICS     r0,r0,r2
        0x000031c0:    6008        .`      STR      r0,[r1,#0]
        0x000031c2:    6808        .h      LDR      r0,[r1,#0]
        0x000031c4:    2211        ."      MOVS     r2,#0x11
        0x000031c6:    0113        ..      LSLS     r3,r2,#4
        0x000031c8:    4318        .C      ORRS     r0,r0,r3
        0x000031ca:    2320         #      MOVS     r3,#0x20
        0x000031cc:    4398        .C      BICS     r0,r0,r3
        0x000031ce:    6008        .`      STR      r0,[r1,#0]
        0x000031d0:    6808        .h      LDR      r0,[r1,#0]
        0x000031d2:    0192        ..      LSLS     r2,r2,#6
        0x000031d4:    4310        .C      ORRS     r0,r0,r2
        0x000031d6:    2280        ."      MOVS     r2,#0x80
        0x000031d8:    4390        .C      BICS     r0,r0,r2
        0x000031da:    6008        .`      STR      r0,[r1,#0]
        0x000031dc:    2018        .       MOVS     r0,#0x18
        0x000031de:    f7fdfdff    ....    BL       CLK_SetSysTickClockSrc ; 0xde0
        0x000031e2:    4831        1H      LDR      r0,[pc,#196] ; [0x32a8] = 0x57803d10
        0x000031e4:    9003        ..      STR      r0,[sp,#0xc]
        0x000031e6:    f7fdfaff    ....    BL       CLK_EnableModuleClock ; 0x7e8
        0x000031ea:    4830        0H      LDR      r0,[pc,#192] ; [0x32ac] = 0x57803d11
        0x000031ec:    9004        ..      STR      r0,[sp,#0x10]
        0x000031ee:    f7fdfafb    ....    BL       CLK_EnableModuleClock ; 0x7e8
        0x000031f2:    482f        /H      LDR      r0,[pc,#188] ; [0x32b0] = 0x57803d12
        0x000031f4:    9005        ..      STR      r0,[sp,#0x14]
        0x000031f6:    f7fdfaf7    ....    BL       CLK_EnableModuleClock ; 0x7e8
        0x000031fa:    9801        ..      LDR      r0,[sp,#4]
        0x000031fc:    f7fdfaf4    ....    BL       CLK_EnableModuleClock ; 0x7e8
        0x00003200:    9802        ..      LDR      r0,[sp,#8]
        0x00003202:    f7fdfaf1    ....    BL       CLK_EnableModuleClock ; 0x7e8
        0x00003206:    202b        +       MOVS     r0,#0x2b
        0x00003208:    0640        @.      LSLS     r0,r0,#25
        0x0000320a:    9007        ..      STR      r0,[sp,#0x1c]
        0x0000320c:    f7fdfaec    ....    BL       CLK_EnableModuleClock ; 0x7e8
        0x00003210:    9803        ..      LDR      r0,[sp,#0xc]
        0x00003212:    9a08        ..      LDR      r2,[sp,#0x20]
        0x00003214:    2103        .!      MOVS     r1,#3
        0x00003216:    9109        ..      STR      r1,[sp,#0x24]
        0x00003218:    0609        ..      LSLS     r1,r1,#24
        0x0000321a:    9106        ..      STR      r1,[sp,#0x18]
        0x0000321c:    f7fdfd90    ....    BL       CLK_SetModuleClock ; 0xd40
        0x00003220:    9804        ..      LDR      r0,[sp,#0x10]
        0x00003222:    9906        ..      LDR      r1,[sp,#0x18]
        0x00003224:    9a08        ..      LDR      r2,[sp,#0x20]
        0x00003226:    f7fdfd8b    ....    BL       CLK_SetModuleClock ; 0xd40
        0x0000322a:    9805        ..      LDR      r0,[sp,#0x14]
        0x0000322c:    9906        ..      LDR      r1,[sp,#0x18]
        0x0000322e:    9a08        ..      LDR      r2,[sp,#0x20]
        0x00003230:    f7fdfd86    ....    BL       CLK_SetModuleClock ; 0xd40
        0x00003234:    9807        ..      LDR      r0,[sp,#0x1c]
        0x00003236:    9a08        ..      LDR      r2,[sp,#0x20]
        0x00003238:    9909        ..      LDR      r1,[sp,#0x24]
        0x0000323a:    f7fdfd81    ....    BL       CLK_SetModuleClock ; 0xd40
        0x0000323e:    9a09        ..      LDR      r2,[sp,#0x24]
        0x00003240:    491c        .I      LDR      r1,[pc,#112] ; [0x32b4] = 0x50000048
        0x00003242:    6808        .h      LDR      r0,[r1,#0]
        0x00003244:    4310        .C      ORRS     r0,r0,r2
        0x00003246:    230c        .#      MOVS     r3,#0xc
        0x00003248:    4398        .C      BICS     r0,r0,r3
        0x0000324a:    6008        .`      STR      r0,[r1,#0]
        0x0000324c:    6808        .h      LDR      r0,[r1,#0]
        0x0000324e:    2330        0#      MOVS     r3,#0x30
        0x00003250:    4318        .C      ORRS     r0,r0,r3
        0x00003252:    23c0        .#      MOVS     r3,#0xc0
        0x00003254:    4398        .C      BICS     r0,r0,r3
        0x00003256:    6008        .`      STR      r0,[r1,#0]
        0x00003258:    4917        .I      LDR      r1,[pc,#92] ; [0x32b8] = 0x50000054
        0x0000325a:    6808        .h      LDR      r0,[r1,#0]
        0x0000325c:    230f        .#      MOVS     r3,#0xf
        0x0000325e:    051c        ..      LSLS     r4,r3,#20
        0x00003260:    43a0        .C      BICS     r0,r0,r4
        0x00003262:    0514        ..      LSLS     r4,r2,#20
        0x00003264:    1900        ..      ADDS     r0,r0,r4
        0x00003266:    6008        .`      STR      r0,[r1,#0]
        0x00003268:    6808        .h      LDR      r0,[r1,#0]
        0x0000326a:    041c        ..      LSLS     r4,r3,#16
        0x0000326c:    43a0        .C      BICS     r0,r0,r4
        0x0000326e:    0414        ..      LSLS     r4,r2,#16
        0x00003270:    1900        ..      ADDS     r0,r0,r4
        0x00003272:    6008        .`      STR      r0,[r1,#0]
        0x00003274:    6808        .h      LDR      r0,[r1,#0]
        0x00003276:    4d11        .M      LDR      r5,[pc,#68] ; [0x32bc] = 0xffff0fff
        0x00003278:    4028        (@      ANDS     r0,r0,r5
        0x0000327a:    0314        ..      LSLS     r4,r2,#12
        0x0000327c:    1900        ..      ADDS     r0,r0,r4
        0x0000327e:    6008        .`      STR      r0,[r1,#0]
        0x00003280:    490f        .I      LDR      r1,[pc,#60] ; [0x32c0] = 0x50000040
        0x00003282:    6808        .h      LDR      r0,[r1,#0]
        0x00003284:    4028        (@      ANDS     r0,r0,r5
        0x00003286:    1900        ..      ADDS     r0,r0,r4
        0x00003288:    6008        .`      STR      r0,[r1,#0]
        0x0000328a:    6808        .h      LDR      r0,[r1,#0]
        0x0000328c:    021b        ..      LSLS     r3,r3,#8
        0x0000328e:    4398        .C      BICS     r0,r0,r3
        0x00003290:    0212        ..      LSLS     r2,r2,#8
        0x00003292:    1880        ..      ADDS     r0,r0,r2
        0x00003294:    6008        .`      STR      r0,[r1,#0]
        0x00003296:    b00a        ..      ADD      sp,sp,#0x28
        0x00003298:    bdb0        ..      POP      {r4,r5,r7,pc}
        0x0000329a:    46c0        .F      MOV      r8,r8
    $d
    __arm_cp.12_0
        0x0000329c:    50000058    X..P    DCD    1342177368
    __arm_cp.12_1
        0x000032a0:    044aa200    ..J.    DCD    72000000
    __arm_cp.12_2
        0x000032a4:    50000080    ...P    DCD    1342177408
    __arm_cp.12_3
        0x000032a8:    57803d10    .=.W    DCD    1468022032
    __arm_cp.12_4
        0x000032ac:    57803d11    .=.W    DCD    1468022033
    __arm_cp.12_5
        0x000032b0:    57803d12    .=.W    DCD    1468022034
    __arm_cp.12_6
        0x000032b4:    50000048    H..P    DCD    1342177352
    __arm_cp.12_7
        0x000032b8:    50000054    T..P    DCD    1342177364
    __arm_cp.12_8
        0x000032bc:    ffff0fff    ....    DCD    4294905855
    __arm_cp.12_9
        0x000032c0:    50000040    @..P    DCD    1342177344
    $t
    SYS_LockReg
        0x000032c4:    493a        :I      LDR      r1,[pc,#232] ; [0x33b0] = 0x50000100
        0x000032c6:    2000        .       MOVS     r0,#0
        0x000032c8:    6008        .`      STR      r0,[r1,#0]
        0x000032ca:    4770        pG      BX       lr
    SYS_LockReg
        0x000032cc:    4938        8I      LDR      r1,[pc,#224] ; [0x33b0] = 0x50000100
        0x000032ce:    2000        .       MOVS     r0,#0
        0x000032d0:    6008        .`      STR      r0,[r1,#0]
        0x000032d2:    4770        pG      BX       lr
    SYS_ResetModule
        0x000032d4:    b5b0        ..      PUSH     {r4,r5,r7,lr}
        0x000032d6:    b081        ..      SUB      sp,sp,#4
        0x000032d8:    9000        ..      STR      r0,[sp,#0]
        0x000032da:    9800        ..      LDR      r0,[sp,#0]
        0x000032dc:    4c0a        .L      LDR      r4,[pc,#40] ; [0x3308] = 0xffffff
        0x000032de:    4601        .F      MOV      r1,r0
        0x000032e0:    4021        !@      ANDS     r1,r1,r4
        0x000032e2:    2301        .#      MOVS     r3,#1
        0x000032e4:    461d        .F      MOV      r5,r3
        0x000032e6:    408d        .@      LSLS     r5,r5,r1
        0x000032e8:    0e01        ..      LSRS     r1,r0,#24
        0x000032ea:    4a08        .J      LDR      r2,[pc,#32] ; [0x330c] = 0x50000008
        0x000032ec:    5888        .X      LDR      r0,[r1,r2]
        0x000032ee:    4328        (C      ORRS     r0,r0,r5
        0x000032f0:    5088        .P      STR      r0,[r1,r2]
        0x000032f2:    9800        ..      LDR      r0,[sp,#0]
        0x000032f4:    4601        .F      MOV      r1,r0
        0x000032f6:    4021        !@      ANDS     r1,r1,r4
        0x000032f8:    408b        .@      LSLS     r3,r3,r1
        0x000032fa:    0e01        ..      LSRS     r1,r0,#24
        0x000032fc:    5888        .X      LDR      r0,[r1,r2]
        0x000032fe:    4398        .C      BICS     r0,r0,r3
        0x00003300:    5088        .P      STR      r0,[r1,r2]
        0x00003302:    b001        ..      ADD      sp,sp,#4
        0x00003304:    bdb0        ..      POP      {r4,r5,r7,pc}
        0x00003306:    46c0        .F      MOV      r8,r8
    $d
    __arm_cp.7_0
        0x00003308:    00ffffff    ....    DCD    16777215
    __arm_cp.7_1
        0x0000330c:    50000008    ...P    DCD    1342177288
    $t
    SYS_UnlockReg
        0x00003310:    b081        ..      SUB      sp,sp,#4
        0x00003312:    4826        &H      LDR      r0,[pc,#152] ; [0x33ac] = 0x1518000
        0x00003314:    9000        ..      STR      r0,[sp,#0]
        0x00003316:    e7ff        ..      B        0x3318 ; SYS_UnlockReg + 8
        0x00003318:    4925        %I      LDR      r1,[pc,#148] ; [0x33b0] = 0x50000100
        0x0000331a:    2059        Y       MOVS     r0,#0x59
        0x0000331c:    6008        .`      STR      r0,[r1,#0]
        0x0000331e:    2016        .       MOVS     r0,#0x16
        0x00003320:    6008        .`      STR      r0,[r1,#0]
        0x00003322:    2088        .       MOVS     r0,#0x88
        0x00003324:    6008        .`      STR      r0,[r1,#0]
        0x00003326:    9800        ..      LDR      r0,[sp,#0]
        0x00003328:    1e40        @.      SUBS     r0,r0,#1
        0x0000332a:    9000        ..      STR      r0,[sp,#0]
        0x0000332c:    2800        .(      CMP      r0,#0
        0x0000332e:    d101        ..      BNE      0x3334 ; SYS_UnlockReg + 36
        0x00003330:    e7ff        ..      B        0x3332 ; SYS_UnlockReg + 34
        0x00003332:    e005        ..      B        0x3340 ; SYS_UnlockReg + 48
        0x00003334:    e7ff        ..      B        0x3336 ; SYS_UnlockReg + 38
        0x00003336:    481e        .H      LDR      r0,[pc,#120] ; [0x33b0] = 0x50000100
        0x00003338:    6800        .h      LDR      r0,[r0,#0]
        0x0000333a:    2800        .(      CMP      r0,#0
        0x0000333c:    d0ec        ..      BEQ      0x3318 ; SYS_UnlockReg + 8
        0x0000333e:    e7ff        ..      B        0x3340 ; SYS_UnlockReg + 48
        0x00003340:    b001        ..      ADD      sp,sp,#4
        0x00003342:    4770        pG      BX       lr
    SYS_UnlockReg
        0x00003344:    b081        ..      SUB      sp,sp,#4
        0x00003346:    4819        .H      LDR      r0,[pc,#100] ; [0x33ac] = 0x1518000
        0x00003348:    9000        ..      STR      r0,[sp,#0]
        0x0000334a:    e7ff        ..      B        0x334c ; SYS_UnlockReg + 8
        0x0000334c:    4918        .I      LDR      r1,[pc,#96] ; [0x33b0] = 0x50000100
        0x0000334e:    2059        Y       MOVS     r0,#0x59
        0x00003350:    6008        .`      STR      r0,[r1,#0]
        0x00003352:    2016        .       MOVS     r0,#0x16
        0x00003354:    6008        .`      STR      r0,[r1,#0]
        0x00003356:    2088        .       MOVS     r0,#0x88
        0x00003358:    6008        .`      STR      r0,[r1,#0]
        0x0000335a:    9800        ..      LDR      r0,[sp,#0]
        0x0000335c:    1e40        @.      SUBS     r0,r0,#1
        0x0000335e:    9000        ..      STR      r0,[sp,#0]
        0x00003360:    2800        .(      CMP      r0,#0
        0x00003362:    d101        ..      BNE      0x3368 ; SYS_UnlockReg + 36
        0x00003364:    e7ff        ..      B        0x3366 ; SYS_UnlockReg + 34
        0x00003366:    e005        ..      B        0x3374 ; SYS_UnlockReg + 48
        0x00003368:    e7ff        ..      B        0x336a ; SYS_UnlockReg + 38
        0x0000336a:    4811        .H      LDR      r0,[pc,#68] ; [0x33b0] = 0x50000100
        0x0000336c:    6800        .h      LDR      r0,[r0,#0]
        0x0000336e:    2800        .(      CMP      r0,#0
        0x00003370:    d0ec        ..      BEQ      0x334c ; SYS_UnlockReg + 8
        0x00003372:    e7ff        ..      B        0x3374 ; SYS_UnlockReg + 48
        0x00003374:    b001        ..      ADD      sp,sp,#4
        0x00003376:    4770        pG      BX       lr
    SYS_UnlockReg
        0x00003378:    b081        ..      SUB      sp,sp,#4
        0x0000337a:    480c        .H      LDR      r0,[pc,#48] ; [0x33ac] = 0x1518000
        0x0000337c:    9000        ..      STR      r0,[sp,#0]
        0x0000337e:    e7ff        ..      B        0x3380 ; SYS_UnlockReg + 8
        0x00003380:    490b        .I      LDR      r1,[pc,#44] ; [0x33b0] = 0x50000100
        0x00003382:    2059        Y       MOVS     r0,#0x59
        0x00003384:    6008        .`      STR      r0,[r1,#0]
        0x00003386:    2016        .       MOVS     r0,#0x16
        0x00003388:    6008        .`      STR      r0,[r1,#0]
        0x0000338a:    2088        .       MOVS     r0,#0x88
        0x0000338c:    6008        .`      STR      r0,[r1,#0]
        0x0000338e:    9800        ..      LDR      r0,[sp,#0]
        0x00003390:    1e40        @.      SUBS     r0,r0,#1
        0x00003392:    9000        ..      STR      r0,[sp,#0]
        0x00003394:    2800        .(      CMP      r0,#0
        0x00003396:    d101        ..      BNE      0x339c ; SYS_UnlockReg + 36
        0x00003398:    e7ff        ..      B        0x339a ; SYS_UnlockReg + 34
        0x0000339a:    e005        ..      B        0x33a8 ; SYS_UnlockReg + 48
        0x0000339c:    e7ff        ..      B        0x339e ; SYS_UnlockReg + 38
        0x0000339e:    4804        .H      LDR      r0,[pc,#16] ; [0x33b0] = 0x50000100
        0x000033a0:    6800        .h      LDR      r0,[r0,#0]
        0x000033a2:    2800        .(      CMP      r0,#0
        0x000033a4:    d0ec        ..      BEQ      0x3380 ; SYS_UnlockReg + 8
        0x000033a6:    e7ff        ..      B        0x33a8 ; SYS_UnlockReg + 48
        0x000033a8:    b001        ..      ADD      sp,sp,#4
        0x000033aa:    4770        pG      BX       lr
    $d
    __arm_cp.14_0
        0x000033ac:    01518000    ..Q.    DCD    22118400
    __arm_cp.14_1
        0x000033b0:    50000100    ...P    DCD    1342177536
    $t
    SendChar
        0x000033b4:    b580        ..      PUSH     {r7,lr}
        0x000033b6:    b082        ..      SUB      sp,sp,#8
        0x000033b8:    9001        ..      STR      r0,[sp,#4]
        0x000033ba:    9801        ..      LDR      r0,[sp,#4]
        0x000033bc:    f000f802    ....    BL       SendChar_ToUART ; 0x33c4
        0x000033c0:    b002        ..      ADD      sp,sp,#8
        0x000033c2:    bd80        ..      POP      {r7,pc}
    SendChar_ToUART
        0x000033c4:    b081        ..      SUB      sp,sp,#4
        0x000033c6:    9000        ..      STR      r0,[sp,#0]
        0x000033c8:    4668        hF      MOV      r0,sp
        0x000033ca:    7800        .x      LDRB     r0,[r0,#0]
        0x000033cc:    280a        .(      CMP      r0,#0xa
        0x000033ce:    d10c        ..      BNE      0x33ea ; SendChar_ToUART + 38
        0x000033d0:    e7ff        ..      B        0x33d2 ; SendChar_ToUART + 14
        0x000033d2:    e7ff        ..      B        0x33d4 ; SendChar_ToUART + 16
        0x000033d4:    480b        .H      LDR      r0,[pc,#44] ; [0x3404] = 0x40050018
        0x000033d6:    6800        .h      LDR      r0,[r0,#0]
        0x000033d8:    0200        ..      LSLS     r0,r0,#8
        0x000033da:    2800        .(      CMP      r0,#0
        0x000033dc:    d501        ..      BPL      0x33e2 ; SendChar_ToUART + 30
        0x000033de:    e7ff        ..      B        0x33e0 ; SendChar_ToUART + 28
        0x000033e0:    e7f8        ..      B        0x33d4 ; SendChar_ToUART + 16
        0x000033e2:    4909        .I      LDR      r1,[pc,#36] ; [0x3408] = 0x40050000
        0x000033e4:    200d        .       MOVS     r0,#0xd
        0x000033e6:    6008        .`      STR      r0,[r1,#0]
        0x000033e8:    e7ff        ..      B        0x33ea ; SendChar_ToUART + 38
        0x000033ea:    e7ff        ..      B        0x33ec ; SendChar_ToUART + 40
        0x000033ec:    4805        .H      LDR      r0,[pc,#20] ; [0x3404] = 0x40050018
        0x000033ee:    6800        .h      LDR      r0,[r0,#0]
        0x000033f0:    0200        ..      LSLS     r0,r0,#8
        0x000033f2:    2800        .(      CMP      r0,#0
        0x000033f4:    d501        ..      BPL      0x33fa ; SendChar_ToUART + 54
        0x000033f6:    e7ff        ..      B        0x33f8 ; SendChar_ToUART + 52
        0x000033f8:    e7f8        ..      B        0x33ec ; SendChar_ToUART + 40
        0x000033fa:    9800        ..      LDR      r0,[sp,#0]
        0x000033fc:    4902        .I      LDR      r1,[pc,#8] ; [0x3408] = 0x40050000
        0x000033fe:    6008        .`      STR      r0,[r1,#0]
        0x00003400:    b001        ..      ADD      sp,sp,#4
        0x00003402:    4770        pG      BX       lr
    $d
    __arm_cp.2_0
        0x00003404:    40050018    ...@    DCD    1074069528
    __arm_cp.2_1
        0x00003408:    40050000    ...@    DCD    1074069504
    $t
    SendHost_Ack
        0x0000340c:    b580        ..      PUSH     {r7,lr}
        0x0000340e:    b082        ..      SUB      sp,sp,#8
        0x00003410:    49d7        .I      LDR      r1,[pc,#860] ; [0x3770] = 0x20000172
        0x00003412:    2030        0       MOVS     r0,#0x30
        0x00003414:    7088        .p      STRB     r0,[r1,#2]
        0x00003416:    a901        ..      ADD      r1,sp,#4
        0x00003418:    2004        .       MOVS     r0,#4
        0x0000341a:    7008        .p      STRB     r0,[r1,#0]
        0x0000341c:    f7fdfda6    ....    BL       CalChecksumH ; 0xf6c
        0x00003420:    b002        ..      ADD      sp,sp,#8
        0x00003422:    bd80        ..      POP      {r7,pc}
    SendHost_BmsData
        0x00003424:    b5f0        ..      PUSH     {r4-r7,lr}
        0x00003426:    b08f        ..      SUB      sp,sp,#0x3c
        0x00003428:    48c9        .H      LDR      r0,[pc,#804] ; [0x3750] = 0x2000037b
        0x0000342a:    7800        .x      LDRB     r0,[r0,#0]
        0x0000342c:    49d0        .I      LDR      r1,[pc,#832] ; [0x3770] = 0x20000172
        0x0000342e:    9106        ..      STR      r1,[sp,#0x18]
        0x00003430:    7048        Hp      STRB     r0,[r1,#1]
        0x00003432:    2035        5       MOVS     r0,#0x35
        0x00003434:    7088        .p      STRB     r0,[r1,#2]
        0x00003436:    48a7        .H      LDR      r0,[pc,#668] ; [0x36d4] = 0x20000168
        0x00003438:    7800        .x      LDRB     r0,[r0,#0]
        0x0000343a:    70c8        .p      STRB     r0,[r1,#3]
        0x0000343c:    48a6        .H      LDR      r0,[pc,#664] ; [0x36d8] = 0x20000167
        0x0000343e:    7802        .x      LDRB     r2,[r0,#0]
        0x00003440:    710a        .q      STRB     r2,[r1,#4]
        0x00003442:    7800        .x      LDRB     r0,[r0,#0]
        0x00003444:    1e40        @.      SUBS     r0,r0,#1
        0x00003446:    ab0d        ..      ADD      r3,sp,#0x34
        0x00003448:    9307        ..      STR      r3,[sp,#0x1c]
        0x0000344a:    7018        .p      STRB     r0,[r3,#0]
        0x0000344c:    ac0e        ..      ADD      r4,sp,#0x38
        0x0000344e:    9408        ..      STR      r4,[sp,#0x20]
        0x00003450:    2005        .       MOVS     r0,#5
        0x00003452:    7020         p      STRB     r0,[r4,#0]
        0x00003454:    7818        .x      LDRB     r0,[r3,#0]
        0x00003456:    2248        H"      MOVS     r2,#0x48
        0x00003458:    9209        ..      STR      r2,[sp,#0x24]
        0x0000345a:    4615        .F      MOV      r5,r2
        0x0000345c:    4345        EC      MULS     r5,r0,r5
        0x0000345e:    489f        .H      LDR      r0,[pc,#636] ; [0x36dc] = 0x2000002c
        0x00003460:    900a        ..      STR      r0,[sp,#0x28]
        0x00003462:    5d45        E]      LDRB     r5,[r0,r5]
        0x00003464:    7826        &x      LDRB     r6,[r4,#0]
        0x00003466:    1c77        w.      ADDS     r7,r6,#1
        0x00003468:    7027        'p      STRB     r7,[r4,#0]
        0x0000346a:    558d        .U      STRB     r5,[r1,r6]
        0x0000346c:    781e        .x      LDRB     r6,[r3,#0]
        0x0000346e:    4615        .F      MOV      r5,r2
        0x00003470:    4375        uC      MULS     r5,r6,r5
        0x00003472:    1945        E.      ADDS     r5,r0,r5
        0x00003474:    2641        A&      MOVS     r6,#0x41
        0x00003476:    5dad        .]      LDRB     r5,[r5,r6]
        0x00003478:    7826        &x      LDRB     r6,[r4,#0]
        0x0000347a:    1c77        w.      ADDS     r7,r6,#1
        0x0000347c:    7027        'p      STRB     r7,[r4,#0]
        0x0000347e:    558d        .U      STRB     r5,[r1,r6]
        0x00003480:    781e        .x      LDRB     r6,[r3,#0]
        0x00003482:    4615        .F      MOV      r5,r2
        0x00003484:    4375        uC      MULS     r5,r6,r5
        0x00003486:    1945        E.      ADDS     r5,r0,r5
        0x00003488:    2640        @&      MOVS     r6,#0x40
        0x0000348a:    5dad        .]      LDRB     r5,[r5,r6]
        0x0000348c:    7826        &x      LDRB     r6,[r4,#0]
        0x0000348e:    1c77        w.      ADDS     r7,r6,#1
        0x00003490:    7027        'p      STRB     r7,[r4,#0]
        0x00003492:    558d        .U      STRB     r5,[r1,r6]
        0x00003494:    781e        .x      LDRB     r6,[r3,#0]
        0x00003496:    4615        .F      MOV      r5,r2
        0x00003498:    4375        uC      MULS     r5,r6,r5
        0x0000349a:    1945        E.      ADDS     r5,r0,r5
        0x0000349c:    2642        B&      MOVS     r6,#0x42
        0x0000349e:    5dad        .]      LDRB     r5,[r5,r6]
        0x000034a0:    7826        &x      LDRB     r6,[r4,#0]
        0x000034a2:    1c77        w.      ADDS     r7,r6,#1
        0x000034a4:    7027        'p      STRB     r7,[r4,#0]
        0x000034a6:    558d        .U      STRB     r5,[r1,r6]
        0x000034a8:    781e        .x      LDRB     r6,[r3,#0]
        0x000034aa:    4615        .F      MOV      r5,r2
        0x000034ac:    4375        uC      MULS     r5,r6,r5
        0x000034ae:    1945        E.      ADDS     r5,r0,r5
        0x000034b0:    79ed        .y      LDRB     r5,[r5,#7]
        0x000034b2:    7826        &x      LDRB     r6,[r4,#0]
        0x000034b4:    1c77        w.      ADDS     r7,r6,#1
        0x000034b6:    7027        'p      STRB     r7,[r4,#0]
        0x000034b8:    558d        .U      STRB     r5,[r1,r6]
        0x000034ba:    781e        .x      LDRB     r6,[r3,#0]
        0x000034bc:    4615        .F      MOV      r5,r2
        0x000034be:    4375        uC      MULS     r5,r6,r5
        0x000034c0:    1945        E.      ADDS     r5,r0,r5
        0x000034c2:    88ed        ..      LDRH     r5,[r5,#6]
        0x000034c4:    7826        &x      LDRB     r6,[r4,#0]
        0x000034c6:    1c77        w.      ADDS     r7,r6,#1
        0x000034c8:    7027        'p      STRB     r7,[r4,#0]
        0x000034ca:    558d        .U      STRB     r5,[r1,r6]
        0x000034cc:    781e        .x      LDRB     r6,[r3,#0]
        0x000034ce:    4615        .F      MOV      r5,r2
        0x000034d0:    4375        uC      MULS     r5,r6,r5
        0x000034d2:    1945        E.      ADDS     r5,r0,r5
        0x000034d4:    686d        mh      LDR      r5,[r5,#4]
        0x000034d6:    0a2d        -.      LSRS     r5,r5,#8
        0x000034d8:    7826        &x      LDRB     r6,[r4,#0]
        0x000034da:    1c77        w.      ADDS     r7,r6,#1
        0x000034dc:    7027        'p      STRB     r7,[r4,#0]
        0x000034de:    558d        .U      STRB     r5,[r1,r6]
        0x000034e0:    781b        .x      LDRB     r3,[r3,#0]
        0x000034e2:    435a        ZC      MULS     r2,r3,r2
        0x000034e4:    1880        ..      ADDS     r0,r0,r2
        0x000034e6:    6840        @h      LDR      r0,[r0,#4]
        0x000034e8:    7822        "x      LDRB     r2,[r4,#0]
        0x000034ea:    1c53        S.      ADDS     r3,r2,#1
        0x000034ec:    7023        #p      STRB     r3,[r4,#0]
        0x000034ee:    5488        .T      STRB     r0,[r1,r2]
        0x000034f0:    a90c        ..      ADD      r1,sp,#0x30
        0x000034f2:    2000        .       MOVS     r0,#0
        0x000034f4:    7008        .p      STRB     r0,[r1,#0]
        0x000034f6:    e7ff        ..      B        0x34f8 ; SendHost_BmsData + 212
        0x000034f8:    a80c        ..      ADD      r0,sp,#0x30
        0x000034fa:    7800        .x      LDRB     r0,[r0,#0]
        0x000034fc:    280f        .(      CMP      r0,#0xf
        0x000034fe:    dc23        #.      BGT      0x3548 ; SendHost_BmsData + 292
        0x00003500:    e7ff        ..      B        0x3502 ; SendHost_BmsData + 222
        0x00003502:    ad0d        ..      ADD      r5,sp,#0x34
        0x00003504:    7828        (x      LDRB     r0,[r5,#0]
        0x00003506:    2348        H#      MOVS     r3,#0x48
        0x00003508:    4619        .F      MOV      r1,r3
        0x0000350a:    4341        AC      MULS     r1,r0,r1
        0x0000350c:    4873        sH      LDR      r0,[pc,#460] ; [0x36dc] = 0x2000002c
        0x0000350e:    1841        A.      ADDS     r1,r0,r1
        0x00003510:    aa0c        ..      ADD      r2,sp,#0x30
        0x00003512:    7814        .x      LDRB     r4,[r2,#0]
        0x00003514:    0064        d.      LSLS     r4,r4,#1
        0x00003516:    1909        ..      ADDS     r1,r1,r4
        0x00003518:    7a4e        Nz      LDRB     r6,[r1,#9]
        0x0000351a:    ac0e        ..      ADD      r4,sp,#0x38
        0x0000351c:    7827        'x      LDRB     r7,[r4,#0]
        0x0000351e:    1c79        y.      ADDS     r1,r7,#1
        0x00003520:    7021        !p      STRB     r1,[r4,#0]
        0x00003522:    4993        .I      LDR      r1,[pc,#588] ; [0x3770] = 0x20000172
        0x00003524:    55ce        .U      STRB     r6,[r1,r7]
        0x00003526:    782d        -x      LDRB     r5,[r5,#0]
        0x00003528:    436b        kC      MULS     r3,r5,r3
        0x0000352a:    18c0        ..      ADDS     r0,r0,r3
        0x0000352c:    7812        .x      LDRB     r2,[r2,#0]
        0x0000352e:    0052        R.      LSLS     r2,r2,#1
        0x00003530:    1880        ..      ADDS     r0,r0,r2
        0x00003532:    7a00        .z      LDRB     r0,[r0,#8]
        0x00003534:    7822        "x      LDRB     r2,[r4,#0]
        0x00003536:    1c53        S.      ADDS     r3,r2,#1
        0x00003538:    7023        #p      STRB     r3,[r4,#0]
        0x0000353a:    5488        .T      STRB     r0,[r1,r2]
        0x0000353c:    e7ff        ..      B        0x353e ; SendHost_BmsData + 282
        0x0000353e:    980c        ..      LDR      r0,[sp,#0x30]
        0x00003540:    1c40        @.      ADDS     r0,r0,#1
        0x00003542:    a90c        ..      ADD      r1,sp,#0x30
        0x00003544:    7008        .p      STRB     r0,[r1,#0]
        0x00003546:    e7d7        ..      B        0x34f8 ; SendHost_BmsData + 212
        0x00003548:    ab0d        ..      ADD      r3,sp,#0x34
        0x0000354a:    9301        ..      STR      r3,[sp,#4]
        0x0000354c:    7818        .x      LDRB     r0,[r3,#0]
        0x0000354e:    2248        H"      MOVS     r2,#0x48
        0x00003550:    9202        ..      STR      r2,[sp,#8]
        0x00003552:    4611        .F      MOV      r1,r2
        0x00003554:    4341        AC      MULS     r1,r0,r1
        0x00003556:    4861        aH      LDR      r0,[pc,#388] ; [0x36dc] = 0x2000002c
        0x00003558:    9003        ..      STR      r0,[sp,#0xc]
        0x0000355a:    1841        A.      ADDS     r1,r0,r1
        0x0000355c:    242b        +$      MOVS     r4,#0x2b
        0x0000355e:    5d0d        .]      LDRB     r5,[r1,r4]
        0x00003560:    ac0e        ..      ADD      r4,sp,#0x38
        0x00003562:    9404        ..      STR      r4,[sp,#0x10]
        0x00003564:    7826        &x      LDRB     r6,[r4,#0]
        0x00003566:    1c71        q.      ADDS     r1,r6,#1
        0x00003568:    7021        !p      STRB     r1,[r4,#0]
        0x0000356a:    4981        .I      LDR      r1,[pc,#516] ; [0x3770] = 0x20000172
        0x0000356c:    9105        ..      STR      r1,[sp,#0x14]
        0x0000356e:    558d        .U      STRB     r5,[r1,r6]
        0x00003570:    781e        .x      LDRB     r6,[r3,#0]
        0x00003572:    4615        .F      MOV      r5,r2
        0x00003574:    4375        uC      MULS     r5,r6,r5
        0x00003576:    1945        E.      ADDS     r5,r0,r5
        0x00003578:    8d6d        m.      LDRH     r5,[r5,#0x2a]
        0x0000357a:    7826        &x      LDRB     r6,[r4,#0]
        0x0000357c:    1c77        w.      ADDS     r7,r6,#1
        0x0000357e:    7027        'p      STRB     r7,[r4,#0]
        0x00003580:    558d        .U      STRB     r5,[r1,r6]
        0x00003582:    781e        .x      LDRB     r6,[r3,#0]
        0x00003584:    4615        .F      MOV      r5,r2
        0x00003586:    4375        uC      MULS     r5,r6,r5
        0x00003588:    1945        E.      ADDS     r5,r0,r5
        0x0000358a:    6aad        .j      LDR      r5,[r5,#0x28]
        0x0000358c:    0a2d        -.      LSRS     r5,r5,#8
        0x0000358e:    7826        &x      LDRB     r6,[r4,#0]
        0x00003590:    1c77        w.      ADDS     r7,r6,#1
        0x00003592:    7027        'p      STRB     r7,[r4,#0]
        0x00003594:    558d        .U      STRB     r5,[r1,r6]
        0x00003596:    781e        .x      LDRB     r6,[r3,#0]
        0x00003598:    4615        .F      MOV      r5,r2
        0x0000359a:    4375        uC      MULS     r5,r6,r5
        0x0000359c:    1945        E.      ADDS     r5,r0,r5
        0x0000359e:    6aad        .j      LDR      r5,[r5,#0x28]
        0x000035a0:    7826        &x      LDRB     r6,[r4,#0]
        0x000035a2:    1c77        w.      ADDS     r7,r6,#1
        0x000035a4:    7027        'p      STRB     r7,[r4,#0]
        0x000035a6:    558d        .U      STRB     r5,[r1,r6]
        0x000035a8:    781e        .x      LDRB     r6,[r3,#0]
        0x000035aa:    4615        .F      MOV      r5,r2
        0x000035ac:    4375        uC      MULS     r5,r6,r5
        0x000035ae:    1945        E.      ADDS     r5,r0,r5
        0x000035b0:    262f        /&      MOVS     r6,#0x2f
        0x000035b2:    5dad        .]      LDRB     r5,[r5,r6]
        0x000035b4:    7826        &x      LDRB     r6,[r4,#0]
        0x000035b6:    1c77        w.      ADDS     r7,r6,#1
        0x000035b8:    7027        'p      STRB     r7,[r4,#0]
        0x000035ba:    558d        .U      STRB     r5,[r1,r6]
        0x000035bc:    781e        .x      LDRB     r6,[r3,#0]
        0x000035be:    4615        .F      MOV      r5,r2
        0x000035c0:    4375        uC      MULS     r5,r6,r5
        0x000035c2:    1945        E.      ADDS     r5,r0,r5
        0x000035c4:    8ded        ..      LDRH     r5,[r5,#0x2e]
        0x000035c6:    7826        &x      LDRB     r6,[r4,#0]
        0x000035c8:    1c77        w.      ADDS     r7,r6,#1
        0x000035ca:    7027        'p      STRB     r7,[r4,#0]
        0x000035cc:    558d        .U      STRB     r5,[r1,r6]
        0x000035ce:    781e        .x      LDRB     r6,[r3,#0]
        0x000035d0:    4615        .F      MOV      r5,r2
        0x000035d2:    4375        uC      MULS     r5,r6,r5
        0x000035d4:    1945        E.      ADDS     r5,r0,r5
        0x000035d6:    6aed        .j      LDR      r5,[r5,#0x2c]
        0x000035d8:    0a2d        -.      LSRS     r5,r5,#8
        0x000035da:    7826        &x      LDRB     r6,[r4,#0]
        0x000035dc:    1c77        w.      ADDS     r7,r6,#1
        0x000035de:    7027        'p      STRB     r7,[r4,#0]
        0x000035e0:    558d        .U      STRB     r5,[r1,r6]
        0x000035e2:    781e        .x      LDRB     r6,[r3,#0]
        0x000035e4:    4615        .F      MOV      r5,r2
        0x000035e6:    4375        uC      MULS     r5,r6,r5
        0x000035e8:    1945        E.      ADDS     r5,r0,r5
        0x000035ea:    6aed        .j      LDR      r5,[r5,#0x2c]
        0x000035ec:    7826        &x      LDRB     r6,[r4,#0]
        0x000035ee:    1c77        w.      ADDS     r7,r6,#1
        0x000035f0:    7027        'p      STRB     r7,[r4,#0]
        0x000035f2:    558d        .U      STRB     r5,[r1,r6]
        0x000035f4:    781e        .x      LDRB     r6,[r3,#0]
        0x000035f6:    4615        .F      MOV      r5,r2
        0x000035f8:    4375        uC      MULS     r5,r6,r5
        0x000035fa:    1945        E.      ADDS     r5,r0,r5
        0x000035fc:    2633        3&      MOVS     r6,#0x33
        0x000035fe:    5dad        .]      LDRB     r5,[r5,r6]
        0x00003600:    7826        &x      LDRB     r6,[r4,#0]
        0x00003602:    1c77        w.      ADDS     r7,r6,#1
        0x00003604:    7027        'p      STRB     r7,[r4,#0]
        0x00003606:    558d        .U      STRB     r5,[r1,r6]
        0x00003608:    781e        .x      LDRB     r6,[r3,#0]
        0x0000360a:    4615        .F      MOV      r5,r2
        0x0000360c:    4375        uC      MULS     r5,r6,r5
        0x0000360e:    1945        E.      ADDS     r5,r0,r5
        0x00003610:    8e6d        m.      LDRH     r5,[r5,#0x32]
        0x00003612:    7826        &x      LDRB     r6,[r4,#0]
        0x00003614:    1c77        w.      ADDS     r7,r6,#1
        0x00003616:    7027        'p      STRB     r7,[r4,#0]
        0x00003618:    558d        .U      STRB     r5,[r1,r6]
        0x0000361a:    781e        .x      LDRB     r6,[r3,#0]
        0x0000361c:    4615        .F      MOV      r5,r2
        0x0000361e:    4375        uC      MULS     r5,r6,r5
        0x00003620:    1945        E.      ADDS     r5,r0,r5
        0x00003622:    6b2d        -k      LDR      r5,[r5,#0x30]
        0x00003624:    0a2d        -.      LSRS     r5,r5,#8
        0x00003626:    7826        &x      LDRB     r6,[r4,#0]
        0x00003628:    1c77        w.      ADDS     r7,r6,#1
        0x0000362a:    7027        'p      STRB     r7,[r4,#0]
        0x0000362c:    558d        .U      STRB     r5,[r1,r6]
        0x0000362e:    781b        .x      LDRB     r3,[r3,#0]
        0x00003630:    435a        ZC      MULS     r2,r3,r2
        0x00003632:    1880        ..      ADDS     r0,r0,r2
        0x00003634:    6b00        .k      LDR      r0,[r0,#0x30]
        0x00003636:    7822        "x      LDRB     r2,[r4,#0]
        0x00003638:    1c53        S.      ADDS     r3,r2,#1
        0x0000363a:    7023        #p      STRB     r3,[r4,#0]
        0x0000363c:    5488        .T      STRB     r0,[r1,r2]
        0x0000363e:    a90b        ..      ADD      r1,sp,#0x2c
        0x00003640:    2000        .       MOVS     r0,#0
        0x00003642:    7008        .p      STRB     r0,[r1,#0]
        0x00003644:    e7ff        ..      B        0x3646 ; SendHost_BmsData + 546
        0x00003646:    a80b        ..      ADD      r0,sp,#0x2c
        0x00003648:    7800        .x      LDRB     r0,[r0,#0]
        0x0000364a:    2804        .(      CMP      r0,#4
        0x0000364c:    dc25        %.      BGT      0x369a ; SendHost_BmsData + 630
        0x0000364e:    e7ff        ..      B        0x3650 ; SendHost_BmsData + 556
        0x00003650:    ad0d        ..      ADD      r5,sp,#0x34
        0x00003652:    7828        (x      LDRB     r0,[r5,#0]
        0x00003654:    2348        H#      MOVS     r3,#0x48
        0x00003656:    4619        .F      MOV      r1,r3
        0x00003658:    4341        AC      MULS     r1,r0,r1
        0x0000365a:    4820         H      LDR      r0,[pc,#128] ; [0x36dc] = 0x2000002c
        0x0000365c:    1841        A.      ADDS     r1,r0,r1
        0x0000365e:    aa0b        ..      ADD      r2,sp,#0x2c
        0x00003660:    7814        .x      LDRB     r4,[r2,#0]
        0x00003662:    0064        d.      LSLS     r4,r4,#1
        0x00003664:    1909        ..      ADDS     r1,r1,r4
        0x00003666:    2437        7$      MOVS     r4,#0x37
        0x00003668:    5d0e        .]      LDRB     r6,[r1,r4]
        0x0000366a:    ac0e        ..      ADD      r4,sp,#0x38
        0x0000366c:    7827        'x      LDRB     r7,[r4,#0]
        0x0000366e:    1c79        y.      ADDS     r1,r7,#1
        0x00003670:    7021        !p      STRB     r1,[r4,#0]
        0x00003672:    49f7        .I      LDR      r1,[pc,#988] ; [0x3a50] = 0x20000172
        0x00003674:    55ce        .U      STRB     r6,[r1,r7]
        0x00003676:    782d        -x      LDRB     r5,[r5,#0]
        0x00003678:    436b        kC      MULS     r3,r5,r3
        0x0000367a:    18c0        ..      ADDS     r0,r0,r3
        0x0000367c:    7812        .x      LDRB     r2,[r2,#0]
        0x0000367e:    0052        R.      LSLS     r2,r2,#1
        0x00003680:    1880        ..      ADDS     r0,r0,r2
        0x00003682:    2236        6"      MOVS     r2,#0x36
        0x00003684:    5c80        .\      LDRB     r0,[r0,r2]
        0x00003686:    7822        "x      LDRB     r2,[r4,#0]
        0x00003688:    1c53        S.      ADDS     r3,r2,#1
        0x0000368a:    7023        #p      STRB     r3,[r4,#0]
        0x0000368c:    5488        .T      STRB     r0,[r1,r2]
        0x0000368e:    e7ff        ..      B        0x3690 ; SendHost_BmsData + 620
        0x00003690:    980b        ..      LDR      r0,[sp,#0x2c]
        0x00003692:    1c40        @.      ADDS     r0,r0,#1
        0x00003694:    a90b        ..      ADD      r1,sp,#0x2c
        0x00003696:    7008        .p      STRB     r0,[r1,#0]
        0x00003698:    e7d5        ..      B        0x3646 ; SendHost_BmsData + 546
        0x0000369a:    ab0d        ..      ADD      r3,sp,#0x34
        0x0000369c:    7818        .x      LDRB     r0,[r3,#0]
        0x0000369e:    2248        H"      MOVS     r2,#0x48
        0x000036a0:    4611        .F      MOV      r1,r2
        0x000036a2:    4341        AC      MULS     r1,r0,r1
        0x000036a4:    480d        .H      LDR      r0,[pc,#52] ; [0x36dc] = 0x2000002c
        0x000036a6:    1841        A.      ADDS     r1,r0,r1
        0x000036a8:    2435        5$      MOVS     r4,#0x35
        0x000036aa:    5d0d        .]      LDRB     r5,[r1,r4]
        0x000036ac:    ac0e        ..      ADD      r4,sp,#0x38
        0x000036ae:    7826        &x      LDRB     r6,[r4,#0]
        0x000036b0:    1c71        q.      ADDS     r1,r6,#1
        0x000036b2:    7021        !p      STRB     r1,[r4,#0]
        0x000036b4:    49e6        .I      LDR      r1,[pc,#920] ; [0x3a50] = 0x20000172
        0x000036b6:    558d        .U      STRB     r5,[r1,r6]
        0x000036b8:    781b        .x      LDRB     r3,[r3,#0]
        0x000036ba:    435a        ZC      MULS     r2,r3,r2
        0x000036bc:    1880        ..      ADDS     r0,r0,r2
        0x000036be:    2234        4"      MOVS     r2,#0x34
        0x000036c0:    5c80        .\      LDRB     r0,[r0,r2]
        0x000036c2:    7822        "x      LDRB     r2,[r4,#0]
        0x000036c4:    1c53        S.      ADDS     r3,r2,#1
        0x000036c6:    7023        #p      STRB     r3,[r4,#0]
        0x000036c8:    5488        .T      STRB     r0,[r1,r2]
        0x000036ca:    f7fdfc4f    ..O.    BL       CalChecksumH ; 0xf6c
        0x000036ce:    b00f        ..      ADD      sp,sp,#0x3c
        0x000036d0:    bdf0        ..      POP      {r4-r7,pc}
        0x000036d2:    46c0        .F      MOV      r8,r8
    $d
    __arm_cp.14_2
        0x000036d4:    20000168    h..     DCD    536871272
    __arm_cp.14_3
        0x000036d8:    20000167    g..     DCD    536871271
    __arm_cp.14_4
        0x000036dc:    2000002c    ,..     DCD    536870956
    $t
    SendHost_CenterFWinfo
        0x000036e0:    b580        ..      PUSH     {r7,lr}
        0x000036e2:    b084        ..      SUB      sp,sp,#0x10
        0x000036e4:    48ed        .H      LDR      r0,[pc,#948] ; [0x3a9c] = 0x20000075
        0x000036e6:    7801        .x      LDRB     r1,[r0,#0]
        0x000036e8:    48ed        .H      LDR      r0,[pc,#948] ; [0x3aa0] = 0x20000172
        0x000036ea:    9002        ..      STR      r0,[sp,#8]
        0x000036ec:    7081        .p      STRB     r1,[r0,#2]
        0x000036ee:    1d00        ..      ADDS     r0,r0,#4
        0x000036f0:    490a        .I      LDR      r1,[pc,#40] ; [0x371c] = 0x200004ec
        0x000036f2:    2210        ."      MOVS     r2,#0x10
        0x000036f4:    f7fcfd0c    ....    BL       __aeabi_memcpy ; 0x110
        0x000036f8:    9802        ..      LDR      r0,[sp,#8]
        0x000036fa:    3014        .0      ADDS     r0,r0,#0x14
        0x000036fc:    4915        .I      LDR      r1,[pc,#84] ; [0x3754] = 0x20000508
        0x000036fe:    2220         "      MOVS     r2,#0x20
        0x00003700:    9201        ..      STR      r2,[sp,#4]
        0x00003702:    f7fcfd05    ....    BL       __aeabi_memcpy ; 0x110
        0x00003706:    9a01        ..      LDR      r2,[sp,#4]
        0x00003708:    9802        ..      LDR      r0,[sp,#8]
        0x0000370a:    3034        40      ADDS     r0,r0,#0x34
        0x0000370c:    4904        .I      LDR      r1,[pc,#16] ; [0x3720] = 0x20000528
        0x0000370e:    f7fcfcff    ....    BL       __aeabi_memcpy ; 0x110
        0x00003712:    f7fdfc2b    ..+.    BL       CalChecksumH ; 0xf6c
        0x00003716:    b004        ..      ADD      sp,sp,#0x10
        0x00003718:    bd80        ..      POP      {r7,pc}
        0x0000371a:    46c0        .F      MOV      r8,r8
    $d
    __arm_cp.18_2
        0x0000371c:    200004ec    ...     DCD    536872172
    __arm_cp.18_4
        0x00003720:    20000528    (..     DCD    536872232
    $t
    SendHost_CenterUpdateSuccsess
        0x00003724:    b580        ..      PUSH     {r7,lr}
        0x00003726:    48c9        .H      LDR      r0,[pc,#804] ; [0x3a4c] = 0x2000037b
        0x00003728:    7801        .x      LDRB     r1,[r0,#0]
        0x0000372a:    48dd        .H      LDR      r0,[pc,#884] ; [0x3aa0] = 0x20000172
        0x0000372c:    7041        Ap      STRB     r1,[r0,#1]
        0x0000372e:    21ee        .!      MOVS     r1,#0xee
        0x00003730:    7101        .q      STRB     r1,[r0,#4]
        0x00003732:    21ff        .!      MOVS     r1,#0xff
        0x00003734:    7141        Aq      STRB     r1,[r0,#5]
        0x00003736:    215a        Z!      MOVS     r1,#0x5a
        0x00003738:    7181        .q      STRB     r1,[r0,#6]
        0x0000373a:    21a5        .!      MOVS     r1,#0xa5
        0x0000373c:    71c1        .q      STRB     r1,[r0,#7]
        0x0000373e:    3008        .0      ADDS     r0,r0,#8
        0x00003740:    4904        .I      LDR      r1,[pc,#16] ; [0x3754] = 0x20000508
        0x00003742:    2210        ."      MOVS     r2,#0x10
        0x00003744:    f7fcfce4    ....    BL       __aeabi_memcpy ; 0x110
        0x00003748:    f7fdfc10    ....    BL       CalChecksumH ; 0xf6c
        0x0000374c:    bd80        ..      POP      {r7,pc}
        0x0000374e:    46c0        .F      MOV      r8,r8
    $d
    __arm_cp.24_0
        0x00003750:    2000037b    {..     DCD    536871803
    __arm_cp.24_2
        0x00003754:    20000508    ...     DCD    536872200
    $t
    SendHost_FirstReset_Ack
        0x00003758:    b580        ..      PUSH     {r7,lr}
        0x0000375a:    b082        ..      SUB      sp,sp,#8
        0x0000375c:    49fb        .I      LDR      r1,[pc,#1004] ; [0x3b4c] = 0x20000172
        0x0000375e:    2033        3       MOVS     r0,#0x33
        0x00003760:    7088        .p      STRB     r0,[r1,#2]
        0x00003762:    a901        ..      ADD      r1,sp,#4
        0x00003764:    2004        .       MOVS     r0,#4
        0x00003766:    7008        .p      STRB     r0,[r1,#0]
        0x00003768:    f7fdfc00    ....    BL       CalChecksumH ; 0xf6c
        0x0000376c:    b002        ..      ADD      sp,sp,#8
        0x0000376e:    bd80        ..      POP      {r7,pc}
    $d
    __arm_cp.2_0
        0x00003770:    20000172    r..     DCD    536871282
    $t
    SendHost_InvData
        0x00003774:    b5f0        ..      PUSH     {r4-r7,lr}
        0x00003776:    b085        ..      SUB      sp,sp,#0x14
        0x00003778:    48f3        .H      LDR      r0,[pc,#972] ; [0x3b48] = 0x2000037b
        0x0000377a:    7800        .x      LDRB     r0,[r0,#0]
        0x0000377c:    49f3        .I      LDR      r1,[pc,#972] ; [0x3b4c] = 0x20000172
        0x0000377e:    7048        Hp      STRB     r0,[r1,#1]
        0x00003780:    2035        5       MOVS     r0,#0x35
        0x00003782:    7088        .p      STRB     r0,[r1,#2]
        0x00003784:    48f2        .H      LDR      r0,[pc,#968] ; [0x3b50] = 0x20000168
        0x00003786:    7800        .x      LDRB     r0,[r0,#0]
        0x00003788:    70c8        .p      STRB     r0,[r1,#3]
        0x0000378a:    48f2        .H      LDR      r0,[pc,#968] ; [0x3b54] = 0x20000167
        0x0000378c:    7802        .x      LDRB     r2,[r0,#0]
        0x0000378e:    710a        .q      STRB     r2,[r1,#4]
        0x00003790:    7800        .x      LDRB     r0,[r0,#0]
        0x00003792:    1e40        @.      SUBS     r0,r0,#1
        0x00003794:    ad03        ..      ADD      r5,sp,#0xc
        0x00003796:    7028        (p      STRB     r0,[r5,#0]
        0x00003798:    ac04        ..      ADD      r4,sp,#0x10
        0x0000379a:    2005        .       MOVS     r0,#5
        0x0000379c:    7020         p      STRB     r0,[r4,#0]
        0x0000379e:    7828        (x      LDRB     r0,[r5,#0]
        0x000037a0:    0082        ..      LSLS     r2,r0,#2
        0x000037a2:    48ac        .H      LDR      r0,[pc,#688] ; [0x3a54] = 0x200001d7
        0x000037a4:    9001        ..      STR      r0,[sp,#4]
        0x000037a6:    5c80        .\      LDRB     r0,[r0,r2]
        0x000037a8:    7822        "x      LDRB     r2,[r4,#0]
        0x000037aa:    1c53        S.      ADDS     r3,r2,#1
        0x000037ac:    7023        #p      STRB     r3,[r4,#0]
        0x000037ae:    5488        .T      STRB     r0,[r1,r2]
        0x000037b0:    7828        (x      LDRB     r0,[r5,#0]
        0x000037b2:    0080        ..      LSLS     r0,r0,#2
        0x000037b4:    4ba8        .K      LDR      r3,[pc,#672] ; [0x3a58] = 0x2000007e
        0x000037b6:    5c18        .\      LDRB     r0,[r3,r0]
        0x000037b8:    2201        ."      MOVS     r2,#1
        0x000037ba:    4010        .@      ANDS     r0,r0,r2
        0x000037bc:    7826        &x      LDRB     r6,[r4,#0]
        0x000037be:    1c77        w.      ADDS     r7,r6,#1
        0x000037c0:    7027        'p      STRB     r7,[r4,#0]
        0x000037c2:    5588        .U      STRB     r0,[r1,r6]
        0x000037c4:    7828        (x      LDRB     r0,[r5,#0]
        0x000037c6:    0080        ..      LSLS     r0,r0,#2
        0x000037c8:    1818        ..      ADDS     r0,r3,r0
        0x000037ca:    7840        @x      LDRB     r0,[r0,#1]
        0x000037cc:    4010        .@      ANDS     r0,r0,r2
        0x000037ce:    7826        &x      LDRB     r6,[r4,#0]
        0x000037d0:    1c77        w.      ADDS     r7,r6,#1
        0x000037d2:    7027        'p      STRB     r7,[r4,#0]
        0x000037d4:    5588        .U      STRB     r0,[r1,r6]
        0x000037d6:    7828        (x      LDRB     r0,[r5,#0]
        0x000037d8:    0080        ..      LSLS     r0,r0,#2
        0x000037da:    1818        ..      ADDS     r0,r3,r0
        0x000037dc:    7886        .x      LDRB     r6,[r0,#2]
        0x000037de:    4016        .@      ANDS     r6,r6,r2
        0x000037e0:    7827        'x      LDRB     r7,[r4,#0]
        0x000037e2:    1c78        x.      ADDS     r0,r7,#1
        0x000037e4:    7020         p      STRB     r0,[r4,#0]
        0x000037e6:    9801        ..      LDR      r0,[sp,#4]
        0x000037e8:    55ce        .U      STRB     r6,[r1,r7]
        0x000037ea:    782e        .x      LDRB     r6,[r5,#0]
        0x000037ec:    00b6        ..      LSLS     r6,r6,#2
        0x000037ee:    199b        ..      ADDS     r3,r3,r6
        0x000037f0:    78db        .x      LDRB     r3,[r3,#3]
        0x000037f2:    4013        .@      ANDS     r3,r3,r2
        0x000037f4:    7826        &x      LDRB     r6,[r4,#0]
        0x000037f6:    1c77        w.      ADDS     r7,r6,#1
        0x000037f8:    7027        'p      STRB     r7,[r4,#0]
        0x000037fa:    558b        .U      STRB     r3,[r1,r6]
        0x000037fc:    782b        +x      LDRB     r3,[r5,#0]
        0x000037fe:    009b        ..      LSLS     r3,r3,#2
        0x00003800:    18c3        ..      ADDS     r3,r0,r3
        0x00003802:    785b        [x      LDRB     r3,[r3,#1]
        0x00003804:    4013        .@      ANDS     r3,r3,r2
        0x00003806:    7826        &x      LDRB     r6,[r4,#0]
        0x00003808:    1c77        w.      ADDS     r7,r6,#1
        0x0000380a:    7027        'p      STRB     r7,[r4,#0]
        0x0000380c:    558b        .U      STRB     r3,[r1,r6]
        0x0000380e:    782b        +x      LDRB     r3,[r5,#0]
        0x00003810:    009b        ..      LSLS     r3,r3,#2
        0x00003812:    18c3        ..      ADDS     r3,r0,r3
        0x00003814:    789b        .x      LDRB     r3,[r3,#2]
        0x00003816:    4013        .@      ANDS     r3,r3,r2
        0x00003818:    7826        &x      LDRB     r6,[r4,#0]
        0x0000381a:    1c77        w.      ADDS     r7,r6,#1
        0x0000381c:    7027        'p      STRB     r7,[r4,#0]
        0x0000381e:    558b        .U      STRB     r3,[r1,r6]
        0x00003820:    782b        +x      LDRB     r3,[r5,#0]
        0x00003822:    009b        ..      LSLS     r3,r3,#2
        0x00003824:    18c0        ..      ADDS     r0,r0,r3
        0x00003826:    78c0        .x      LDRB     r0,[r0,#3]
        0x00003828:    4010        .@      ANDS     r0,r0,r2
        0x0000382a:    7823        #x      LDRB     r3,[r4,#0]
        0x0000382c:    1c5e        ^.      ADDS     r6,r3,#1
        0x0000382e:    7026        &p      STRB     r6,[r4,#0]
        0x00003830:    54c8        .T      STRB     r0,[r1,r3]
        0x00003832:    7828        (x      LDRB     r0,[r5,#0]
        0x00003834:    2318        .#      MOVS     r3,#0x18
        0x00003836:    461e        .F      MOV      r6,r3
        0x00003838:    4346        FC      MULS     r6,r0,r6
        0x0000383a:    4888        .H      LDR      r0,[pc,#544] ; [0x3a5c] = 0x20000010
        0x0000383c:    9002        ..      STR      r0,[sp,#8]
        0x0000383e:    5d86        .]      LDRB     r6,[r0,r6]
        0x00003840:    4016        .@      ANDS     r6,r6,r2
        0x00003842:    7827        'x      LDRB     r7,[r4,#0]
        0x00003844:    1c78        x.      ADDS     r0,r7,#1
        0x00003846:    7020         p      STRB     r0,[r4,#0]
        0x00003848:    9802        ..      LDR      r0,[sp,#8]
        0x0000384a:    55ce        .U      STRB     r6,[r1,r7]
        0x0000384c:    782f        /x      LDRB     r7,[r5,#0]
        0x0000384e:    461e        .F      MOV      r6,r3
        0x00003850:    437e        ~C      MULS     r6,r7,r6
        0x00003852:    1980        ..      ADDS     r0,r0,r6
        0x00003854:    7846        Fx      LDRB     r6,[r0,#1]
        0x00003856:    4016        .@      ANDS     r6,r6,r2
        0x00003858:    7827        'x      LDRB     r7,[r4,#0]
        0x0000385a:    1c78        x.      ADDS     r0,r7,#1
        0x0000385c:    7020         p      STRB     r0,[r4,#0]
        0x0000385e:    9802        ..      LDR      r0,[sp,#8]
        0x00003860:    55ce        .U      STRB     r6,[r1,r7]
        0x00003862:    782f        /x      LDRB     r7,[r5,#0]
        0x00003864:    461e        .F      MOV      r6,r3
        0x00003866:    437e        ~C      MULS     r6,r7,r6
        0x00003868:    1980        ..      ADDS     r0,r0,r6
        0x0000386a:    7886        .x      LDRB     r6,[r0,#2]
        0x0000386c:    4016        .@      ANDS     r6,r6,r2
        0x0000386e:    7827        'x      LDRB     r7,[r4,#0]
        0x00003870:    1c78        x.      ADDS     r0,r7,#1
        0x00003872:    7020         p      STRB     r0,[r4,#0]
        0x00003874:    9802        ..      LDR      r0,[sp,#8]
        0x00003876:    55ce        .U      STRB     r6,[r1,r7]
        0x00003878:    782f        /x      LDRB     r7,[r5,#0]
        0x0000387a:    461e        .F      MOV      r6,r3
        0x0000387c:    437e        ~C      MULS     r6,r7,r6
        0x0000387e:    1980        ..      ADDS     r0,r0,r6
        0x00003880:    78c6        .x      LDRB     r6,[r0,#3]
        0x00003882:    4016        .@      ANDS     r6,r6,r2
        0x00003884:    7827        'x      LDRB     r7,[r4,#0]
        0x00003886:    1c78        x.      ADDS     r0,r7,#1
        0x00003888:    7020         p      STRB     r0,[r4,#0]
        0x0000388a:    9802        ..      LDR      r0,[sp,#8]
        0x0000388c:    55ce        .U      STRB     r6,[r1,r7]
        0x0000388e:    782f        /x      LDRB     r7,[r5,#0]
        0x00003890:    461e        .F      MOV      r6,r3
        0x00003892:    437e        ~C      MULS     r6,r7,r6
        0x00003894:    1980        ..      ADDS     r0,r0,r6
        0x00003896:    7906        .y      LDRB     r6,[r0,#4]
        0x00003898:    4016        .@      ANDS     r6,r6,r2
        0x0000389a:    7827        'x      LDRB     r7,[r4,#0]
        0x0000389c:    1c78        x.      ADDS     r0,r7,#1
        0x0000389e:    7020         p      STRB     r0,[r4,#0]
        0x000038a0:    9802        ..      LDR      r0,[sp,#8]
        0x000038a2:    55ce        .U      STRB     r6,[r1,r7]
        0x000038a4:    782f        /x      LDRB     r7,[r5,#0]
        0x000038a6:    461e        .F      MOV      r6,r3
        0x000038a8:    437e        ~C      MULS     r6,r7,r6
        0x000038aa:    1980        ..      ADDS     r0,r0,r6
        0x000038ac:    7946        Fy      LDRB     r6,[r0,#5]
        0x000038ae:    4016        .@      ANDS     r6,r6,r2
        0x000038b0:    7827        'x      LDRB     r7,[r4,#0]
        0x000038b2:    1c78        x.      ADDS     r0,r7,#1
        0x000038b4:    7020         p      STRB     r0,[r4,#0]
        0x000038b6:    9802        ..      LDR      r0,[sp,#8]
        0x000038b8:    55ce        .U      STRB     r6,[r1,r7]
        0x000038ba:    782f        /x      LDRB     r7,[r5,#0]
        0x000038bc:    461e        .F      MOV      r6,r3
        0x000038be:    437e        ~C      MULS     r6,r7,r6
        0x000038c0:    1980        ..      ADDS     r0,r0,r6
        0x000038c2:    7986        .y      LDRB     r6,[r0,#6]
        0x000038c4:    4016        .@      ANDS     r6,r6,r2
        0x000038c6:    7827        'x      LDRB     r7,[r4,#0]
        0x000038c8:    1c78        x.      ADDS     r0,r7,#1
        0x000038ca:    7020         p      STRB     r0,[r4,#0]
        0x000038cc:    9802        ..      LDR      r0,[sp,#8]
        0x000038ce:    55ce        .U      STRB     r6,[r1,r7]
        0x000038d0:    782f        /x      LDRB     r7,[r5,#0]
        0x000038d2:    461e        .F      MOV      r6,r3
        0x000038d4:    437e        ~C      MULS     r6,r7,r6
        0x000038d6:    1980        ..      ADDS     r0,r0,r6
        0x000038d8:    79c6        .y      LDRB     r6,[r0,#7]
        0x000038da:    4016        .@      ANDS     r6,r6,r2
        0x000038dc:    7827        'x      LDRB     r7,[r4,#0]
        0x000038de:    1c78        x.      ADDS     r0,r7,#1
        0x000038e0:    7020         p      STRB     r0,[r4,#0]
        0x000038e2:    9802        ..      LDR      r0,[sp,#8]
        0x000038e4:    55ce        .U      STRB     r6,[r1,r7]
        0x000038e6:    782f        /x      LDRB     r7,[r5,#0]
        0x000038e8:    461e        .F      MOV      r6,r3
        0x000038ea:    437e        ~C      MULS     r6,r7,r6
        0x000038ec:    1980        ..      ADDS     r0,r0,r6
        0x000038ee:    7a06        .z      LDRB     r6,[r0,#8]
        0x000038f0:    4016        .@      ANDS     r6,r6,r2
        0x000038f2:    7827        'x      LDRB     r7,[r4,#0]
        0x000038f4:    1c78        x.      ADDS     r0,r7,#1
        0x000038f6:    7020         p      STRB     r0,[r4,#0]
        0x000038f8:    9802        ..      LDR      r0,[sp,#8]
        0x000038fa:    55ce        .U      STRB     r6,[r1,r7]
        0x000038fc:    782f        /x      LDRB     r7,[r5,#0]
        0x000038fe:    461e        .F      MOV      r6,r3
        0x00003900:    437e        ~C      MULS     r6,r7,r6
        0x00003902:    1980        ..      ADDS     r0,r0,r6
        0x00003904:    7a46        Fz      LDRB     r6,[r0,#9]
        0x00003906:    4016        .@      ANDS     r6,r6,r2
        0x00003908:    7827        'x      LDRB     r7,[r4,#0]
        0x0000390a:    1c78        x.      ADDS     r0,r7,#1
        0x0000390c:    7020         p      STRB     r0,[r4,#0]
        0x0000390e:    9802        ..      LDR      r0,[sp,#8]
        0x00003910:    55ce        .U      STRB     r6,[r1,r7]
        0x00003912:    782f        /x      LDRB     r7,[r5,#0]
        0x00003914:    461e        .F      MOV      r6,r3
        0x00003916:    437e        ~C      MULS     r6,r7,r6
        0x00003918:    1980        ..      ADDS     r0,r0,r6
        0x0000391a:    7a86        .z      LDRB     r6,[r0,#0xa]
        0x0000391c:    4016        .@      ANDS     r6,r6,r2
        0x0000391e:    7827        'x      LDRB     r7,[r4,#0]
        0x00003920:    1c78        x.      ADDS     r0,r7,#1
        0x00003922:    7020         p      STRB     r0,[r4,#0]
        0x00003924:    9802        ..      LDR      r0,[sp,#8]
        0x00003926:    55ce        .U      STRB     r6,[r1,r7]
        0x00003928:    782f        /x      LDRB     r7,[r5,#0]
        0x0000392a:    461e        .F      MOV      r6,r3
        0x0000392c:    437e        ~C      MULS     r6,r7,r6
        0x0000392e:    1980        ..      ADDS     r0,r0,r6
        0x00003930:    7ac6        .z      LDRB     r6,[r0,#0xb]
        0x00003932:    4016        .@      ANDS     r6,r6,r2
        0x00003934:    7827        'x      LDRB     r7,[r4,#0]
        0x00003936:    1c78        x.      ADDS     r0,r7,#1
        0x00003938:    7020         p      STRB     r0,[r4,#0]
        0x0000393a:    9802        ..      LDR      r0,[sp,#8]
        0x0000393c:    55ce        .U      STRB     r6,[r1,r7]
        0x0000393e:    782f        /x      LDRB     r7,[r5,#0]
        0x00003940:    461e        .F      MOV      r6,r3
        0x00003942:    437e        ~C      MULS     r6,r7,r6
        0x00003944:    1980        ..      ADDS     r0,r0,r6
        0x00003946:    7b06        .{      LDRB     r6,[r0,#0xc]
        0x00003948:    4016        .@      ANDS     r6,r6,r2
        0x0000394a:    7827        'x      LDRB     r7,[r4,#0]
        0x0000394c:    1c78        x.      ADDS     r0,r7,#1
        0x0000394e:    7020         p      STRB     r0,[r4,#0]
        0x00003950:    9802        ..      LDR      r0,[sp,#8]
        0x00003952:    55ce        .U      STRB     r6,[r1,r7]
        0x00003954:    782f        /x      LDRB     r7,[r5,#0]
        0x00003956:    461e        .F      MOV      r6,r3
        0x00003958:    437e        ~C      MULS     r6,r7,r6
        0x0000395a:    1980        ..      ADDS     r0,r0,r6
        0x0000395c:    7b46        F{      LDRB     r6,[r0,#0xd]
        0x0000395e:    4016        .@      ANDS     r6,r6,r2
        0x00003960:    7827        'x      LDRB     r7,[r4,#0]
        0x00003962:    1c78        x.      ADDS     r0,r7,#1
        0x00003964:    7020         p      STRB     r0,[r4,#0]
        0x00003966:    9802        ..      LDR      r0,[sp,#8]
        0x00003968:    55ce        .U      STRB     r6,[r1,r7]
        0x0000396a:    782f        /x      LDRB     r7,[r5,#0]
        0x0000396c:    461e        .F      MOV      r6,r3
        0x0000396e:    437e        ~C      MULS     r6,r7,r6
        0x00003970:    1980        ..      ADDS     r0,r0,r6
        0x00003972:    7b86        .{      LDRB     r6,[r0,#0xe]
        0x00003974:    4016        .@      ANDS     r6,r6,r2
        0x00003976:    7827        'x      LDRB     r7,[r4,#0]
        0x00003978:    1c78        x.      ADDS     r0,r7,#1
        0x0000397a:    7020         p      STRB     r0,[r4,#0]
        0x0000397c:    9802        ..      LDR      r0,[sp,#8]
        0x0000397e:    55ce        .U      STRB     r6,[r1,r7]
        0x00003980:    782f        /x      LDRB     r7,[r5,#0]
        0x00003982:    461e        .F      MOV      r6,r3
        0x00003984:    437e        ~C      MULS     r6,r7,r6
        0x00003986:    1980        ..      ADDS     r0,r0,r6
        0x00003988:    7bc6        .{      LDRB     r6,[r0,#0xf]
        0x0000398a:    4016        .@      ANDS     r6,r6,r2
        0x0000398c:    7827        'x      LDRB     r7,[r4,#0]
        0x0000398e:    1c78        x.      ADDS     r0,r7,#1
        0x00003990:    7020         p      STRB     r0,[r4,#0]
        0x00003992:    9802        ..      LDR      r0,[sp,#8]
        0x00003994:    55ce        .U      STRB     r6,[r1,r7]
        0x00003996:    782f        /x      LDRB     r7,[r5,#0]
        0x00003998:    461e        .F      MOV      r6,r3
        0x0000399a:    437e        ~C      MULS     r6,r7,r6
        0x0000399c:    1980        ..      ADDS     r0,r0,r6
        0x0000399e:    7c06        .|      LDRB     r6,[r0,#0x10]
        0x000039a0:    4016        .@      ANDS     r6,r6,r2
        0x000039a2:    7827        'x      LDRB     r7,[r4,#0]
        0x000039a4:    1c78        x.      ADDS     r0,r7,#1
        0x000039a6:    7020         p      STRB     r0,[r4,#0]
        0x000039a8:    9802        ..      LDR      r0,[sp,#8]
        0x000039aa:    55ce        .U      STRB     r6,[r1,r7]
        0x000039ac:    782f        /x      LDRB     r7,[r5,#0]
        0x000039ae:    461e        .F      MOV      r6,r3
        0x000039b0:    437e        ~C      MULS     r6,r7,r6
        0x000039b2:    1980        ..      ADDS     r0,r0,r6
        0x000039b4:    7c46        F|      LDRB     r6,[r0,#0x11]
        0x000039b6:    4016        .@      ANDS     r6,r6,r2
        0x000039b8:    7827        'x      LDRB     r7,[r4,#0]
        0x000039ba:    1c78        x.      ADDS     r0,r7,#1
        0x000039bc:    7020         p      STRB     r0,[r4,#0]
        0x000039be:    9802        ..      LDR      r0,[sp,#8]
        0x000039c0:    55ce        .U      STRB     r6,[r1,r7]
        0x000039c2:    782f        /x      LDRB     r7,[r5,#0]
        0x000039c4:    461e        .F      MOV      r6,r3
        0x000039c6:    437e        ~C      MULS     r6,r7,r6
        0x000039c8:    1980        ..      ADDS     r0,r0,r6
        0x000039ca:    7c86        .|      LDRB     r6,[r0,#0x12]
        0x000039cc:    4016        .@      ANDS     r6,r6,r2
        0x000039ce:    7827        'x      LDRB     r7,[r4,#0]
        0x000039d0:    1c78        x.      ADDS     r0,r7,#1
        0x000039d2:    7020         p      STRB     r0,[r4,#0]
        0x000039d4:    9802        ..      LDR      r0,[sp,#8]
        0x000039d6:    55ce        .U      STRB     r6,[r1,r7]
        0x000039d8:    782f        /x      LDRB     r7,[r5,#0]
        0x000039da:    461e        .F      MOV      r6,r3
        0x000039dc:    437e        ~C      MULS     r6,r7,r6
        0x000039de:    1980        ..      ADDS     r0,r0,r6
        0x000039e0:    7cc6        .|      LDRB     r6,[r0,#0x13]
        0x000039e2:    4016        .@      ANDS     r6,r6,r2
        0x000039e4:    7827        'x      LDRB     r7,[r4,#0]
        0x000039e6:    1c78        x.      ADDS     r0,r7,#1
        0x000039e8:    7020         p      STRB     r0,[r4,#0]
        0x000039ea:    9802        ..      LDR      r0,[sp,#8]
        0x000039ec:    55ce        .U      STRB     r6,[r1,r7]
        0x000039ee:    782f        /x      LDRB     r7,[r5,#0]
        0x000039f0:    461e        .F      MOV      r6,r3
        0x000039f2:    437e        ~C      MULS     r6,r7,r6
        0x000039f4:    1980        ..      ADDS     r0,r0,r6
        0x000039f6:    7d06        .}      LDRB     r6,[r0,#0x14]
        0x000039f8:    4016        .@      ANDS     r6,r6,r2
        0x000039fa:    7827        'x      LDRB     r7,[r4,#0]
        0x000039fc:    1c78        x.      ADDS     r0,r7,#1
        0x000039fe:    7020         p      STRB     r0,[r4,#0]
        0x00003a00:    9802        ..      LDR      r0,[sp,#8]
        0x00003a02:    55ce        .U      STRB     r6,[r1,r7]
        0x00003a04:    782f        /x      LDRB     r7,[r5,#0]
        0x00003a06:    461e        .F      MOV      r6,r3
        0x00003a08:    437e        ~C      MULS     r6,r7,r6
        0x00003a0a:    1980        ..      ADDS     r0,r0,r6
        0x00003a0c:    7d46        F}      LDRB     r6,[r0,#0x15]
        0x00003a0e:    4016        .@      ANDS     r6,r6,r2
        0x00003a10:    7827        'x      LDRB     r7,[r4,#0]
        0x00003a12:    1c78        x.      ADDS     r0,r7,#1
        0x00003a14:    7020         p      STRB     r0,[r4,#0]
        0x00003a16:    9802        ..      LDR      r0,[sp,#8]
        0x00003a18:    55ce        .U      STRB     r6,[r1,r7]
        0x00003a1a:    782f        /x      LDRB     r7,[r5,#0]
        0x00003a1c:    461e        .F      MOV      r6,r3
        0x00003a1e:    437e        ~C      MULS     r6,r7,r6
        0x00003a20:    1980        ..      ADDS     r0,r0,r6
        0x00003a22:    7d86        .}      LDRB     r6,[r0,#0x16]
        0x00003a24:    4016        .@      ANDS     r6,r6,r2
        0x00003a26:    7827        'x      LDRB     r7,[r4,#0]
        0x00003a28:    1c78        x.      ADDS     r0,r7,#1
        0x00003a2a:    7020         p      STRB     r0,[r4,#0]
        0x00003a2c:    9802        ..      LDR      r0,[sp,#8]
        0x00003a2e:    55ce        .U      STRB     r6,[r1,r7]
        0x00003a30:    782d        -x      LDRB     r5,[r5,#0]
        0x00003a32:    436b        kC      MULS     r3,r5,r3
        0x00003a34:    18c0        ..      ADDS     r0,r0,r3
        0x00003a36:    7dc0        .}      LDRB     r0,[r0,#0x17]
        0x00003a38:    4010        .@      ANDS     r0,r0,r2
        0x00003a3a:    7822        "x      LDRB     r2,[r4,#0]
        0x00003a3c:    1c53        S.      ADDS     r3,r2,#1
        0x00003a3e:    7023        #p      STRB     r3,[r4,#0]
        0x00003a40:    5488        .T      STRB     r0,[r1,r2]
        0x00003a42:    f7fdfa93    ....    BL       CalChecksumH ; 0xf6c
        0x00003a46:    b005        ..      ADD      sp,sp,#0x14
        0x00003a48:    bdf0        ..      POP      {r4-r7,pc}
        0x00003a4a:    46c0        .F      MOV      r8,r8
    $d
    __arm_cp.16_0
        0x00003a4c:    2000037b    {..     DCD    536871803
    __arm_cp.16_1
        0x00003a50:    20000172    r..     DCD    536871282
    __arm_cp.16_4
        0x00003a54:    200001d7    ...     DCD    536871383
    __arm_cp.16_5
        0x00003a58:    2000007e    ~..     DCD    536871038
    __arm_cp.16_6
        0x00003a5c:    20000010    ...     DCD    536870928
    $t
    SendHost_MeterFWInfo
        0x00003a60:    b580        ..      PUSH     {r7,lr}
        0x00003a62:    b084        ..      SUB      sp,sp,#0x10
        0x00003a64:    480d        .H      LDR      r0,[pc,#52] ; [0x3a9c] = 0x20000075
        0x00003a66:    7801        .x      LDRB     r1,[r0,#0]
        0x00003a68:    487a        zH      LDR      r0,[pc,#488] ; [0x3c54] = 0x20000172
        0x00003a6a:    9002        ..      STR      r0,[sp,#8]
        0x00003a6c:    7081        .p      STRB     r1,[r0,#2]
        0x00003a6e:    1d00        ..      ADDS     r0,r0,#4
        0x00003a70:    490c        .I      LDR      r1,[pc,#48] ; [0x3aa4] = 0x200002fc
        0x00003a72:    2210        ."      MOVS     r2,#0x10
        0x00003a74:    f7fcfb4c    ..L.    BL       __aeabi_memcpy ; 0x110
        0x00003a78:    9802        ..      LDR      r0,[sp,#8]
        0x00003a7a:    3014        .0      ADDS     r0,r0,#0x14
        0x00003a7c:    490a        .I      LDR      r1,[pc,#40] ; [0x3aa8] = 0x200002bc
        0x00003a7e:    2220         "      MOVS     r2,#0x20
        0x00003a80:    9201        ..      STR      r2,[sp,#4]
        0x00003a82:    f7fcfb45    ..E.    BL       __aeabi_memcpy ; 0x110
        0x00003a86:    9a01        ..      LDR      r2,[sp,#4]
        0x00003a88:    9802        ..      LDR      r0,[sp,#8]
        0x00003a8a:    3034        40      ADDS     r0,r0,#0x34
        0x00003a8c:    4907        .I      LDR      r1,[pc,#28] ; [0x3aac] = 0x200002dc
        0x00003a8e:    f7fcfb3f    ..?.    BL       __aeabi_memcpy ; 0x110
        0x00003a92:    f7fdfa6b    ..k.    BL       CalChecksumH ; 0xf6c
        0x00003a96:    b004        ..      ADD      sp,sp,#0x10
        0x00003a98:    bd80        ..      POP      {r7,pc}
        0x00003a9a:    46c0        .F      MOV      r8,r8
    $d
    __arm_cp.22_0
        0x00003a9c:    20000075    u..     DCD    536871029
    __arm_cp.22_1
        0x00003aa0:    20000172    r..     DCD    536871282
    __arm_cp.22_2
        0x00003aa4:    200002fc    ...     DCD    536871676
    __arm_cp.22_3
        0x00003aa8:    200002bc    ...     DCD    536871612
    __arm_cp.22_4
        0x00003aac:    200002dc    ...     DCD    536871644
    $t
    SendHost_PowerData
        0x00003ab0:    b570        p.      PUSH     {r4-r6,lr}
        0x00003ab2:    b082        ..      SUB      sp,sp,#8
        0x00003ab4:    4866        fH      LDR      r0,[pc,#408] ; [0x3c50] = 0x2000037b
        0x00003ab6:    7800        .x      LDRB     r0,[r0,#0]
        0x00003ab8:    4966        fI      LDR      r1,[pc,#408] ; [0x3c54] = 0x20000172
        0x00003aba:    7048        Hp      STRB     r0,[r1,#1]
        0x00003abc:    2032        2       MOVS     r0,#0x32
        0x00003abe:    7088        .p      STRB     r0,[r1,#2]
        0x00003ac0:    4865        eH      LDR      r0,[pc,#404] ; [0x3c58] = 0x20000168
        0x00003ac2:    7800        .x      LDRB     r0,[r0,#0]
        0x00003ac4:    70c8        .p      STRB     r0,[r1,#3]
        0x00003ac6:    4865        eH      LDR      r0,[pc,#404] ; [0x3c5c] = 0x20000167
        0x00003ac8:    7802        .x      LDRB     r2,[r0,#0]
        0x00003aca:    710a        .q      STRB     r2,[r1,#4]
        0x00003acc:    7800        .x      LDRB     r0,[r0,#0]
        0x00003ace:    1e40        @.      SUBS     r0,r0,#1
        0x00003ad0:    466a        jF      MOV      r2,sp
        0x00003ad2:    7010        .p      STRB     r0,[r2,#0]
        0x00003ad4:    ac01        ..      ADD      r4,sp,#4
        0x00003ad6:    2005        .       MOVS     r0,#5
        0x00003ad8:    7020         p      STRB     r0,[r4,#0]
        0x00003ada:    7810        .x      LDRB     r0,[r2,#0]
        0x00003adc:    00c3        ..      LSLS     r3,r0,#3
        0x00003ade:    481e        .H      LDR      r0,[pc,#120] ; [0x3b58] = 0x200002ac
        0x00003ae0:    5cc3        .\      LDRB     r3,[r0,r3]
        0x00003ae2:    7825        %x      LDRB     r5,[r4,#0]
        0x00003ae4:    1c6e        n.      ADDS     r6,r5,#1
        0x00003ae6:    7026        &p      STRB     r6,[r4,#0]
        0x00003ae8:    554b        KU      STRB     r3,[r1,r5]
        0x00003aea:    7813        .x      LDRB     r3,[r2,#0]
        0x00003aec:    00db        ..      LSLS     r3,r3,#3
        0x00003aee:    18c3        ..      ADDS     r3,r0,r3
        0x00003af0:    785b        [x      LDRB     r3,[r3,#1]
        0x00003af2:    7825        %x      LDRB     r5,[r4,#0]
        0x00003af4:    1c6e        n.      ADDS     r6,r5,#1
        0x00003af6:    7026        &p      STRB     r6,[r4,#0]
        0x00003af8:    554b        KU      STRB     r3,[r1,r5]
        0x00003afa:    7813        .x      LDRB     r3,[r2,#0]
        0x00003afc:    00db        ..      LSLS     r3,r3,#3
        0x00003afe:    18c3        ..      ADDS     r3,r0,r3
        0x00003b00:    685b        [h      LDR      r3,[r3,#4]
        0x00003b02:    0e1b        ..      LSRS     r3,r3,#24
        0x00003b04:    7825        %x      LDRB     r5,[r4,#0]
        0x00003b06:    1c6e        n.      ADDS     r6,r5,#1
        0x00003b08:    7026        &p      STRB     r6,[r4,#0]
        0x00003b0a:    554b        KU      STRB     r3,[r1,r5]
        0x00003b0c:    7813        .x      LDRB     r3,[r2,#0]
        0x00003b0e:    00db        ..      LSLS     r3,r3,#3
        0x00003b10:    18c3        ..      ADDS     r3,r0,r3
        0x00003b12:    685b        [h      LDR      r3,[r3,#4]
        0x00003b14:    0c1b        ..      LSRS     r3,r3,#16
        0x00003b16:    7825        %x      LDRB     r5,[r4,#0]
        0x00003b18:    1c6e        n.      ADDS     r6,r5,#1
        0x00003b1a:    7026        &p      STRB     r6,[r4,#0]
        0x00003b1c:    554b        KU      STRB     r3,[r1,r5]
        0x00003b1e:    7813        .x      LDRB     r3,[r2,#0]
        0x00003b20:    00db        ..      LSLS     r3,r3,#3
        0x00003b22:    18c3        ..      ADDS     r3,r0,r3
        0x00003b24:    685b        [h      LDR      r3,[r3,#4]
        0x00003b26:    0a1b        ..      LSRS     r3,r3,#8
        0x00003b28:    7825        %x      LDRB     r5,[r4,#0]
        0x00003b2a:    1c6e        n.      ADDS     r6,r5,#1
        0x00003b2c:    7026        &p      STRB     r6,[r4,#0]
        0x00003b2e:    554b        KU      STRB     r3,[r1,r5]
        0x00003b30:    7812        .x      LDRB     r2,[r2,#0]
        0x00003b32:    00d2        ..      LSLS     r2,r2,#3
        0x00003b34:    1880        ..      ADDS     r0,r0,r2
        0x00003b36:    6840        @h      LDR      r0,[r0,#4]
        0x00003b38:    7822        "x      LDRB     r2,[r4,#0]
        0x00003b3a:    1c53        S.      ADDS     r3,r2,#1
        0x00003b3c:    7023        #p      STRB     r3,[r4,#0]
        0x00003b3e:    5488        .T      STRB     r0,[r1,r2]
        0x00003b40:    f7fdfa14    ....    BL       CalChecksumH ; 0xf6c
        0x00003b44:    b002        ..      ADD      sp,sp,#8
        0x00003b46:    bd70        p.      POP      {r4-r6,pc}
    $d
    __arm_cp.13_0
        0x00003b48:    2000037b    {..     DCD    536871803
    __arm_cp.13_1
        0x00003b4c:    20000172    r..     DCD    536871282
    __arm_cp.13_2
        0x00003b50:    20000168    h..     DCD    536871272
    __arm_cp.13_3
        0x00003b54:    20000167    g..     DCD    536871271
    __arm_cp.13_4
        0x00003b58:    200002ac    ...     DCD    536871596
    $t
    SendHost_SystemInformation
        0x00003b5c:    b5b0        ..      PUSH     {r4,r5,r7,lr}
        0x00003b5e:    b082        ..      SUB      sp,sp,#8
        0x00003b60:    493c        <I      LDR      r1,[pc,#240] ; [0x3c54] = 0x20000172
        0x00003b62:    2031        1       MOVS     r0,#0x31
        0x00003b64:    7088        .p      STRB     r0,[r1,#2]
        0x00003b66:    4819        .H      LDR      r0,[pc,#100] ; [0x3bcc] = 0x20000084
        0x00003b68:    78c2        .x      LDRB     r2,[r0,#3]
        0x00003b6a:    70ca        .p      STRB     r2,[r1,#3]
        0x00003b6c:    8842        B.      LDRH     r2,[r0,#2]
        0x00003b6e:    710a        .q      STRB     r2,[r1,#4]
        0x00003b70:    6802        .h      LDR      r2,[r0,#0]
        0x00003b72:    0a12        ..      LSRS     r2,r2,#8
        0x00003b74:    714a        Jq      STRB     r2,[r1,#5]
        0x00003b76:    6802        .h      LDR      r2,[r0,#0]
        0x00003b78:    718a        .q      STRB     r2,[r1,#6]
        0x00003b7a:    ac01        ..      ADD      r4,sp,#4
        0x00003b7c:    2207        ."      MOVS     r2,#7
        0x00003b7e:    7022        "p      STRB     r2,[r4,#0]
        0x00003b80:    78c2        .x      LDRB     r2,[r0,#3]
        0x00003b82:    7823        #x      LDRB     r3,[r4,#0]
        0x00003b84:    1c5d        ].      ADDS     r5,r3,#1
        0x00003b86:    7025        %p      STRB     r5,[r4,#0]
        0x00003b88:    54ca        .T      STRB     r2,[r1,r3]
        0x00003b8a:    8842        B.      LDRH     r2,[r0,#2]
        0x00003b8c:    7823        #x      LDRB     r3,[r4,#0]
        0x00003b8e:    1c5d        ].      ADDS     r5,r3,#1
        0x00003b90:    7025        %p      STRB     r5,[r4,#0]
        0x00003b92:    54ca        .T      STRB     r2,[r1,r3]
        0x00003b94:    6802        .h      LDR      r2,[r0,#0]
        0x00003b96:    0a12        ..      LSRS     r2,r2,#8
        0x00003b98:    7823        #x      LDRB     r3,[r4,#0]
        0x00003b9a:    1c5d        ].      ADDS     r5,r3,#1
        0x00003b9c:    7025        %p      STRB     r5,[r4,#0]
        0x00003b9e:    54ca        .T      STRB     r2,[r1,r3]
        0x00003ba0:    6800        .h      LDR      r0,[r0,#0]
        0x00003ba2:    7822        "x      LDRB     r2,[r4,#0]
        0x00003ba4:    1c53        S.      ADDS     r3,r2,#1
        0x00003ba6:    7023        #p      STRB     r3,[r4,#0]
        0x00003ba8:    5488        .T      STRB     r0,[r1,r2]
        0x00003baa:    4809        .H      LDR      r0,[pc,#36] ; [0x3bd0] = 0x200002b4
        0x00003bac:    6800        .h      LDR      r0,[r0,#0]
        0x00003bae:    7822        "x      LDRB     r2,[r4,#0]
        0x00003bb0:    1c53        S.      ADDS     r3,r2,#1
        0x00003bb2:    7023        #p      STRB     r3,[r4,#0]
        0x00003bb4:    5488        .T      STRB     r0,[r1,r2]
        0x00003bb6:    48bc        .H      LDR      r0,[pc,#752] ; [0x3ea8] = 0x2000037e
        0x00003bb8:    7800        .x      LDRB     r0,[r0,#0]
        0x00003bba:    7822        "x      LDRB     r2,[r4,#0]
        0x00003bbc:    1c53        S.      ADDS     r3,r2,#1
        0x00003bbe:    7023        #p      STRB     r3,[r4,#0]
        0x00003bc0:    5488        .T      STRB     r0,[r1,r2]
        0x00003bc2:    f7fdf9d3    ....    BL       CalChecksumH ; 0xf6c
        0x00003bc6:    b002        ..      ADD      sp,sp,#8
        0x00003bc8:    bdb0        ..      POP      {r4,r5,r7,pc}
        0x00003bca:    46c0        .F      MOV      r8,r8
    $d
    __arm_cp.11_1
        0x00003bcc:    20000084    ...     DCD    536871044
    __arm_cp.11_2
        0x00003bd0:    200002b4    ...     DCD    536871604
    $t
    SendHost_WMData
        0x00003bd4:    b570        p.      PUSH     {r4-r6,lr}
        0x00003bd6:    b082        ..      SUB      sp,sp,#8
        0x00003bd8:    481d        .H      LDR      r0,[pc,#116] ; [0x3c50] = 0x2000037b
        0x00003bda:    7800        .x      LDRB     r0,[r0,#0]
        0x00003bdc:    491d        .I      LDR      r1,[pc,#116] ; [0x3c54] = 0x20000172
        0x00003bde:    7048        Hp      STRB     r0,[r1,#1]
        0x00003be0:    2036        6       MOVS     r0,#0x36
        0x00003be2:    7088        .p      STRB     r0,[r1,#2]
        0x00003be4:    481c        .H      LDR      r0,[pc,#112] ; [0x3c58] = 0x20000168
        0x00003be6:    7800        .x      LDRB     r0,[r0,#0]
        0x00003be8:    70c8        .p      STRB     r0,[r1,#3]
        0x00003bea:    481c        .H      LDR      r0,[pc,#112] ; [0x3c5c] = 0x20000167
        0x00003bec:    7802        .x      LDRB     r2,[r0,#0]
        0x00003bee:    710a        .q      STRB     r2,[r1,#4]
        0x00003bf0:    7800        .x      LDRB     r0,[r0,#0]
        0x00003bf2:    1e40        @.      SUBS     r0,r0,#1
        0x00003bf4:    466a        jF      MOV      r2,sp
        0x00003bf6:    7010        .p      STRB     r0,[r2,#0]
        0x00003bf8:    ac01        ..      ADD      r4,sp,#4
        0x00003bfa:    2005        .       MOVS     r0,#5
        0x00003bfc:    7020         p      STRB     r0,[r4,#0]
        0x00003bfe:    7810        .x      LDRB     r0,[r2,#0]
        0x00003c00:    00c3        ..      LSLS     r3,r0,#3
        0x00003c02:    4817        .H      LDR      r0,[pc,#92] ; [0x3c60] = 0x2000047c
        0x00003c04:    5cc3        .\      LDRB     r3,[r0,r3]
        0x00003c06:    7825        %x      LDRB     r5,[r4,#0]
        0x00003c08:    1c6e        n.      ADDS     r6,r5,#1
        0x00003c0a:    7026        &p      STRB     r6,[r4,#0]
        0x00003c0c:    554b        KU      STRB     r3,[r1,r5]
        0x00003c0e:    7813        .x      LDRB     r3,[r2,#0]
        0x00003c10:    00db        ..      LSLS     r3,r3,#3
        0x00003c12:    18c3        ..      ADDS     r3,r0,r3
        0x00003c14:    785b        [x      LDRB     r3,[r3,#1]
        0x00003c16:    7825        %x      LDRB     r5,[r4,#0]
        0x00003c18:    1c6e        n.      ADDS     r6,r5,#1
        0x00003c1a:    7026        &p      STRB     r6,[r4,#0]
        0x00003c1c:    554b        KU      STRB     r3,[r1,r5]
        0x00003c1e:    7812        .x      LDRB     r2,[r2,#0]
        0x00003c20:    00d2        ..      LSLS     r2,r2,#3
        0x00003c22:    1880        ..      ADDS     r0,r0,r2
        0x00003c24:    79c0        .y      LDRB     r0,[r0,#7]
        0x00003c26:    7822        "x      LDRB     r2,[r4,#0]
        0x00003c28:    1c53        S.      ADDS     r3,r2,#1
        0x00003c2a:    7023        #p      STRB     r3,[r4,#0]
        0x00003c2c:    5488        .T      STRB     r0,[r1,r2]
        0x00003c2e:    7822        "x      LDRB     r2,[r4,#0]
        0x00003c30:    1c50        P.      ADDS     r0,r2,#1
        0x00003c32:    7020         p      STRB     r0,[r4,#0]
        0x00003c34:    2000        .       MOVS     r0,#0
        0x00003c36:    5488        .T      STRB     r0,[r1,r2]
        0x00003c38:    7822        "x      LDRB     r2,[r4,#0]
        0x00003c3a:    1c53        S.      ADDS     r3,r2,#1
        0x00003c3c:    7023        #p      STRB     r3,[r4,#0]
        0x00003c3e:    5488        .T      STRB     r0,[r1,r2]
        0x00003c40:    7822        "x      LDRB     r2,[r4,#0]
        0x00003c42:    1c53        S.      ADDS     r3,r2,#1
        0x00003c44:    7023        #p      STRB     r3,[r4,#0]
        0x00003c46:    5488        .T      STRB     r0,[r1,r2]
        0x00003c48:    f7fdf990    ....    BL       CalChecksumH ; 0xf6c
        0x00003c4c:    b002        ..      ADD      sp,sp,#8
        0x00003c4e:    bd70        p.      POP      {r4-r6,pc}
    $d
    __arm_cp.15_0
        0x00003c50:    2000037b    {..     DCD    536871803
    __arm_cp.15_1
        0x00003c54:    20000172    r..     DCD    536871282
    __arm_cp.15_2
        0x00003c58:    20000168    h..     DCD    536871272
    __arm_cp.15_3
        0x00003c5c:    20000167    g..     DCD    536871271
    __arm_cp.15_4
        0x00003c60:    2000047c    |..     DCD    536872060
    $t
    SendMeterBootloader_CmdEraseAPROM
        0x00003c64:    b580        ..      PUSH     {r7,lr}
        0x00003c66:    b082        ..      SUB      sp,sp,#8
        0x00003c68:    488f        .H      LDR      r0,[pc,#572] ; [0x3ea8] = 0x2000037e
        0x00003c6a:    7801        .x      LDRB     r1,[r0,#0]
        0x00003c6c:    489b        .H      LDR      r0,[pc,#620] ; [0x3edc] = 0x20000316
        0x00003c6e:    7041        Ap      STRB     r1,[r0,#1]
        0x00003c70:    21a0        .!      MOVS     r1,#0xa0
        0x00003c72:    7081        .p      STRB     r1,[r0,#2]
        0x00003c74:    493f        ?I      LDR      r1,[pc,#252] ; [0x3d74] = 0x200004fc
        0x00003c76:    7809        .x      LDRB     r1,[r1,#0]
        0x00003c78:    70c1        .p      STRB     r1,[r0,#3]
        0x00003c7a:    4a21        !J      LDR      r2,[pc,#132] ; [0x3d00] = 0x20000548
        0x00003c7c:    9201        ..      STR      r2,[sp,#4]
        0x00003c7e:    215c        \!      MOVS     r1,#0x5c
        0x00003c80:    6011        .`      STR      r1,[r2,#0]
        0x00003c82:    4921        !I      LDR      r1,[pc,#132] ; [0x3d08] = 0x20000394
        0x00003c84:    9100        ..      STR      r1,[sp,#0]
        0x00003c86:    6809        .h      LDR      r1,[r1,#0]
        0x00003c88:    6812        .h      LDR      r2,[r2,#0]
        0x00003c8a:    188a        ..      ADDS     r2,r1,r2
        0x00003c8c:    1d03        ..      ADDS     r3,r0,#4
        0x00003c8e:    2000        .       MOVS     r0,#0
        0x00003c90:    f7fdfa32    ..2.    BL       FMC_Proc ; 0x10f8
        0x00003c94:    9a00        ..      LDR      r2,[sp,#0]
        0x00003c96:    9801        ..      LDR      r0,[sp,#4]
        0x00003c98:    6803        .h      LDR      r3,[r0,#0]
        0x00003c9a:    6811        .h      LDR      r1,[r2,#0]
        0x00003c9c:    18c9        ..      ADDS     r1,r1,r3
        0x00003c9e:    6011        .`      STR      r1,[r2,#0]
        0x00003ca0:    6802        .h      LDR      r2,[r0,#0]
        0x00003ca2:    4918        .I      LDR      r1,[pc,#96] ; [0x3d04] = 0x20000478
        0x00003ca4:    6808        .h      LDR      r0,[r1,#0]
        0x00003ca6:    1a80        ..      SUBS     r0,r0,r2
        0x00003ca8:    6008        .`      STR      r0,[r1,#0]
        0x00003caa:    f7fdf991    ....    BL       CalChecksumM ; 0xfd0
        0x00003cae:    b002        ..      ADD      sp,sp,#8
        0x00003cb0:    bd80        ..      POP      {r7,pc}
        0x00003cb2:    46c0        .F      MOV      r8,r8
    SendMeterBootloader_CmdUpdateAPROM
        0x00003cb4:    b580        ..      PUSH     {r7,lr}
        0x00003cb6:    487c        |H      LDR      r0,[pc,#496] ; [0x3ea8] = 0x2000037e
        0x00003cb8:    7800        .x      LDRB     r0,[r0,#0]
        0x00003cba:    4988        .I      LDR      r1,[pc,#544] ; [0x3edc] = 0x20000316
        0x00003cbc:    7048        Hp      STRB     r0,[r1,#1]
        0x00003cbe:    2000        .       MOVS     r0,#0
        0x00003cc0:    7088        .p      STRB     r0,[r1,#2]
        0x00003cc2:    482c        ,H      LDR      r0,[pc,#176] ; [0x3d74] = 0x200004fc
        0x00003cc4:    7800        .x      LDRB     r0,[r0,#0]
        0x00003cc6:    70c8        .p      STRB     r0,[r1,#3]
        0x00003cc8:    490d        .I      LDR      r1,[pc,#52] ; [0x3d00] = 0x20000548
        0x00003cca:    205c        \       MOVS     r0,#0x5c
        0x00003ccc:    6008        .`      STR      r0,[r1,#0]
        0x00003cce:    480d        .H      LDR      r0,[pc,#52] ; [0x3d04] = 0x20000478
        0x00003cd0:    6800        .h      LDR      r0,[r0,#0]
        0x00003cd2:    6809        .h      LDR      r1,[r1,#0]
        0x00003cd4:    4288        .B      CMP      r0,r1
        0x00003cd6:    d205        ..      BCS      0x3ce4 ; SendMeterBootloader_CmdUpdateAPROM + 48
        0x00003cd8:    e7ff        ..      B        0x3cda ; SendMeterBootloader_CmdUpdateAPROM + 38
        0x00003cda:    480a        .H      LDR      r0,[pc,#40] ; [0x3d04] = 0x20000478
        0x00003cdc:    6800        .h      LDR      r0,[r0,#0]
        0x00003cde:    4908        .I      LDR      r1,[pc,#32] ; [0x3d00] = 0x20000548
        0x00003ce0:    6008        .`      STR      r0,[r1,#0]
        0x00003ce2:    e7ff        ..      B        0x3ce4 ; SendMeterBootloader_CmdUpdateAPROM + 48
        0x00003ce4:    4808        .H      LDR      r0,[pc,#32] ; [0x3d08] = 0x20000394
        0x00003ce6:    6801        .h      LDR      r1,[r0,#0]
        0x00003ce8:    4805        .H      LDR      r0,[pc,#20] ; [0x3d00] = 0x20000548
        0x00003cea:    6800        .h      LDR      r0,[r0,#0]
        0x00003cec:    180a        ..      ADDS     r2,r1,r0
        0x00003cee:    487b        {H      LDR      r0,[pc,#492] ; [0x3edc] = 0x20000316
        0x00003cf0:    1d03        ..      ADDS     r3,r0,#4
        0x00003cf2:    2000        .       MOVS     r0,#0
        0x00003cf4:    f7fdfa00    ....    BL       FMC_Proc ; 0x10f8
        0x00003cf8:    f7fdf96a    ..j.    BL       CalChecksumM ; 0xfd0
        0x00003cfc:    bd80        ..      POP      {r7,pc}
        0x00003cfe:    46c0        .F      MOV      r8,r8
    $d
    __arm_cp.12_3
        0x00003d00:    20000548    H..     DCD    536872264
    __arm_cp.12_4
        0x00003d04:    20000478    x..     DCD    536872056
    __arm_cp.12_5
        0x00003d08:    20000394    ...     DCD    536871828
    $t
    SendMeterBootloader_ConnectCmd
        0x00003d0c:    b580        ..      PUSH     {r7,lr}
        0x00003d0e:    4866        fH      LDR      r0,[pc,#408] ; [0x3ea8] = 0x2000037e
        0x00003d10:    7800        .x      LDRB     r0,[r0,#0]
        0x00003d12:    4972        rI      LDR      r1,[pc,#456] ; [0x3edc] = 0x20000316
        0x00003d14:    7048        Hp      STRB     r0,[r1,#1]
        0x00003d16:    20ae        .       MOVS     r0,#0xae
        0x00003d18:    7088        .p      STRB     r0,[r1,#2]
        0x00003d1a:    2000        .       MOVS     r0,#0
        0x00003d1c:    70c8        .p      STRB     r0,[r1,#3]
        0x00003d1e:    f000f82d    ..-.    BL       SendMeterRTC ; 0x3d7c
        0x00003d22:    f7fdf955    ..U.    BL       CalChecksumM ; 0xfd0
        0x00003d26:    bd80        ..      POP      {r7,pc}
    SendMeterBootloader_UpdateMetadata
        0x00003d28:    b580        ..      PUSH     {r7,lr}
        0x00003d2a:    485f        _H      LDR      r0,[pc,#380] ; [0x3ea8] = 0x2000037e
        0x00003d2c:    7800        .x      LDRB     r0,[r0,#0]
        0x00003d2e:    496b        kI      LDR      r1,[pc,#428] ; [0x3edc] = 0x20000316
        0x00003d30:    7048        Hp      STRB     r0,[r1,#1]
        0x00003d32:    20a5        .       MOVS     r0,#0xa5
        0x00003d34:    7088        .p      STRB     r0,[r1,#2]
        0x00003d36:    480f        .H      LDR      r0,[pc,#60] ; [0x3d74] = 0x200004fc
        0x00003d38:    7800        .x      LDRB     r0,[r0,#0]
        0x00003d3a:    70c8        .p      STRB     r0,[r1,#3]
        0x00003d3c:    480e        .H      LDR      r0,[pc,#56] ; [0x3d78] = 0x20000528
        0x00003d3e:    7ac2        .z      LDRB     r2,[r0,#0xb]
        0x00003d40:    710a        .q      STRB     r2,[r1,#4]
        0x00003d42:    7a82        .z      LDRB     r2,[r0,#0xa]
        0x00003d44:    714a        Jq      STRB     r2,[r1,#5]
        0x00003d46:    7a42        Bz      LDRB     r2,[r0,#9]
        0x00003d48:    718a        .q      STRB     r2,[r1,#6]
        0x00003d4a:    7a02        .z      LDRB     r2,[r0,#8]
        0x00003d4c:    71ca        .q      STRB     r2,[r1,#7]
        0x00003d4e:    79c2        .y      LDRB     r2,[r0,#7]
        0x00003d50:    720a        .r      STRB     r2,[r1,#8]
        0x00003d52:    7982        .y      LDRB     r2,[r0,#6]
        0x00003d54:    724a        Jr      STRB     r2,[r1,#9]
        0x00003d56:    7942        By      LDRB     r2,[r0,#5]
        0x00003d58:    728a        .r      STRB     r2,[r1,#0xa]
        0x00003d5a:    7902        .y      LDRB     r2,[r0,#4]
        0x00003d5c:    72ca        .r      STRB     r2,[r1,#0xb]
        0x00003d5e:    7cc2        .|      LDRB     r2,[r0,#0x13]
        0x00003d60:    730a        .s      STRB     r2,[r1,#0xc]
        0x00003d62:    7c82        .|      LDRB     r2,[r0,#0x12]
        0x00003d64:    734a        Js      STRB     r2,[r1,#0xd]
        0x00003d66:    7c42        B|      LDRB     r2,[r0,#0x11]
        0x00003d68:    738a        .s      STRB     r2,[r1,#0xe]
        0x00003d6a:    7c00        .|      LDRB     r0,[r0,#0x10]
        0x00003d6c:    73c8        .s      STRB     r0,[r1,#0xf]
        0x00003d6e:    f7fdf92f    ../.    BL       CalChecksumM ; 0xfd0
        0x00003d72:    bd80        ..      POP      {r7,pc}
    $d
    __arm_cp.10_2
        0x00003d74:    200004fc    ...     DCD    536872188
    __arm_cp.10_3
        0x00003d78:    20000528    (..     DCD    536872232
    $t
    SendMeterRTC
        0x00003d7c:    b081        ..      SUB      sp,sp,#4
        0x00003d7e:    4669        iF      MOV      r1,sp
        0x00003d80:    2000        .       MOVS     r0,#0
        0x00003d82:    7008        .p      STRB     r0,[r1,#0]
        0x00003d84:    e7ff        ..      B        0x3d86 ; SendMeterRTC + 10
        0x00003d86:    4668        hF      MOV      r0,sp
        0x00003d88:    7800        .x      LDRB     r0,[r0,#0]
        0x00003d8a:    2807        .(      CMP      r0,#7
        0x00003d8c:    dc0e        ..      BGT      0x3dac ; SendMeterRTC + 48
        0x00003d8e:    e7ff        ..      B        0x3d90 ; SendMeterRTC + 20
        0x00003d90:    4668        hF      MOV      r0,sp
        0x00003d92:    7801        .x      LDRB     r1,[r0,#0]
        0x00003d94:    48d5        .H      LDR      r0,[pc,#852] ; [0x40ec] = 0x20000076
        0x00003d96:    5c40        @\      LDRB     r0,[r0,r1]
        0x00003d98:    4a50        PJ      LDR      r2,[pc,#320] ; [0x3edc] = 0x20000316
        0x00003d9a:    1889        ..      ADDS     r1,r1,r2
        0x00003d9c:    225a        Z"      MOVS     r2,#0x5a
        0x00003d9e:    5488        .T      STRB     r0,[r1,r2]
        0x00003da0:    e7ff        ..      B        0x3da2 ; SendMeterRTC + 38
        0x00003da2:    9800        ..      LDR      r0,[sp,#0]
        0x00003da4:    1c40        @.      ADDS     r0,r0,#1
        0x00003da6:    4669        iF      MOV      r1,sp
        0x00003da8:    7008        .p      STRB     r0,[r1,#0]
        0x00003daa:    e7ec        ..      B        0x3d86 ; SendMeterRTC + 10
        0x00003dac:    b001        ..      ADD      sp,sp,#4
        0x00003dae:    4770        pG      BX       lr
    SendMeter_AliveToken
        0x00003db0:    b580        ..      PUSH     {r7,lr}
        0x00003db2:    483d        =H      LDR      r0,[pc,#244] ; [0x3ea8] = 0x2000037e
        0x00003db4:    7800        .x      LDRB     r0,[r0,#0]
        0x00003db6:    4949        II      LDR      r1,[pc,#292] ; [0x3edc] = 0x20000316
        0x00003db8:    7048        Hp      STRB     r0,[r1,#1]
        0x00003dba:    2010        .       MOVS     r0,#0x10
        0x00003dbc:    7088        .p      STRB     r0,[r1,#2]
        0x00003dbe:    482c        ,H      LDR      r0,[pc,#176] ; [0x3e70] = 0x2000037f
        0x00003dc0:    7800        .x      LDRB     r0,[r0,#0]
        0x00003dc2:    70c8        .p      STRB     r0,[r1,#3]
        0x00003dc4:    f7ffffda    ....    BL       SendMeterRTC ; 0x3d7c
        0x00003dc8:    f7fdf902    ....    BL       CalChecksumM ; 0xfd0
        0x00003dcc:    bd80        ..      POP      {r7,pc}
        0x00003dce:    46c0        .F      MOV      r8,r8
    SendMeter_GetBmsData
        0x00003dd0:    b580        ..      PUSH     {r7,lr}
        0x00003dd2:    4a35        5J      LDR      r2,[pc,#212] ; [0x3ea8] = 0x2000037e
        0x00003dd4:    7810        .x      LDRB     r0,[r2,#0]
        0x00003dd6:    4941        AI      LDR      r1,[pc,#260] ; [0x3edc] = 0x20000316
        0x00003dd8:    7048        Hp      STRB     r0,[r1,#1]
        0x00003dda:    2012        .       MOVS     r0,#0x12
        0x00003ddc:    7088        .p      STRB     r0,[r1,#2]
        0x00003dde:    4808        .H      LDR      r0,[pc,#32] ; [0x3e00] = 0x2000037c
        0x00003de0:    7803        .x      LDRB     r3,[r0,#0]
        0x00003de2:    70cb        .p      STRB     r3,[r1,#3]
        0x00003de4:    7813        .x      LDRB     r3,[r2,#0]
        0x00003de6:    4a07        .J      LDR      r2,[pc,#28] ; [0x3e04] = 0x20000028
        0x00003de8:    18d2        ..      ADDS     r2,r2,r3
        0x00003dea:    7800        .x      LDRB     r0,[r0,#0]
        0x00003dec:    1880        ..      ADDS     r0,r0,r2
        0x00003dee:    1e40        @.      SUBS     r0,r0,#1
        0x00003df0:    7800        .x      LDRB     r0,[r0,#0]
        0x00003df2:    7108        .q      STRB     r0,[r1,#4]
        0x00003df4:    f7ffffc2    ....    BL       SendMeterRTC ; 0x3d7c
        0x00003df8:    f7fdf8ea    ....    BL       CalChecksumM ; 0xfd0
        0x00003dfc:    bd80        ..      POP      {r7,pc}
        0x00003dfe:    46c0        .F      MOV      r8,r8
    $d
    __arm_cp.5_2
        0x00003e00:    2000037c    |..     DCD    536871804
    __arm_cp.5_3
        0x00003e04:    20000028    (..     DCD    536870952
    $t
    SendMeter_GetInvData
        0x00003e08:    b580        ..      PUSH     {r7,lr}
        0x00003e0a:    4a27        'J      LDR      r2,[pc,#156] ; [0x3ea8] = 0x2000037e
        0x00003e0c:    7810        .x      LDRB     r0,[r2,#0]
        0x00003e0e:    4933        3I      LDR      r1,[pc,#204] ; [0x3edc] = 0x20000316
        0x00003e10:    7048        Hp      STRB     r0,[r1,#1]
        0x00003e12:    2014        .       MOVS     r0,#0x14
        0x00003e14:    7088        .p      STRB     r0,[r1,#2]
        0x00003e16:    4808        .H      LDR      r0,[pc,#32] ; [0x3e38] = 0x2000037d
        0x00003e18:    7803        .x      LDRB     r3,[r0,#0]
        0x00003e1a:    70cb        .p      STRB     r3,[r1,#3]
        0x00003e1c:    7813        .x      LDRB     r3,[r2,#0]
        0x00003e1e:    4a07        .J      LDR      r2,[pc,#28] ; [0x3e3c] = 0x200001d6
        0x00003e20:    18d2        ..      ADDS     r2,r2,r3
        0x00003e22:    7800        .x      LDRB     r0,[r0,#0]
        0x00003e24:    1880        ..      ADDS     r0,r0,r2
        0x00003e26:    1e40        @.      SUBS     r0,r0,#1
        0x00003e28:    7800        .x      LDRB     r0,[r0,#0]
        0x00003e2a:    7108        .q      STRB     r0,[r1,#4]
        0x00003e2c:    f7ffffa6    ....    BL       SendMeterRTC ; 0x3d7c
        0x00003e30:    f7fdf8ce    ....    BL       CalChecksumM ; 0xfd0
        0x00003e34:    bd80        ..      POP      {r7,pc}
        0x00003e36:    46c0        .F      MOV      r8,r8
    $d
    __arm_cp.7_2
        0x00003e38:    2000037d    }..     DCD    536871805
    __arm_cp.7_3
        0x00003e3c:    200001d6    ...     DCD    536871382
    $t
    SendMeter_GetPowerData
        0x00003e40:    b580        ..      PUSH     {r7,lr}
        0x00003e42:    4a19        .J      LDR      r2,[pc,#100] ; [0x3ea8] = 0x2000037e
        0x00003e44:    7810        .x      LDRB     r0,[r2,#0]
        0x00003e46:    4925        %I      LDR      r1,[pc,#148] ; [0x3edc] = 0x20000316
        0x00003e48:    7048        Hp      STRB     r0,[r1,#1]
        0x00003e4a:    2011        .       MOVS     r0,#0x11
        0x00003e4c:    7088        .p      STRB     r0,[r1,#2]
        0x00003e4e:    4808        .H      LDR      r0,[pc,#32] ; [0x3e70] = 0x2000037f
        0x00003e50:    7803        .x      LDRB     r3,[r0,#0]
        0x00003e52:    70cb        .p      STRB     r3,[r1,#3]
        0x00003e54:    7813        .x      LDRB     r3,[r2,#0]
        0x00003e56:    4a07        .J      LDR      r2,[pc,#28] ; [0x3e74] = 0x20000383
        0x00003e58:    18d2        ..      ADDS     r2,r2,r3
        0x00003e5a:    7800        .x      LDRB     r0,[r0,#0]
        0x00003e5c:    1880        ..      ADDS     r0,r0,r2
        0x00003e5e:    1e40        @.      SUBS     r0,r0,#1
        0x00003e60:    7800        .x      LDRB     r0,[r0,#0]
        0x00003e62:    7108        .q      STRB     r0,[r1,#4]
        0x00003e64:    f7ffff8a    ....    BL       SendMeterRTC ; 0x3d7c
        0x00003e68:    f7fdf8b2    ....    BL       CalChecksumM ; 0xfd0
        0x00003e6c:    bd80        ..      POP      {r7,pc}
        0x00003e6e:    46c0        .F      MOV      r8,r8
    $d
    __arm_cp.4_2
        0x00003e70:    2000037f    ...     DCD    536871807
    __arm_cp.4_3
        0x00003e74:    20000383    ...     DCD    536871811
    $t
    SendMeter_GetWMData
        0x00003e78:    b580        ..      PUSH     {r7,lr}
        0x00003e7a:    4a0b        .J      LDR      r2,[pc,#44] ; [0x3ea8] = 0x2000037e
        0x00003e7c:    7810        .x      LDRB     r0,[r2,#0]
        0x00003e7e:    4917        .I      LDR      r1,[pc,#92] ; [0x3edc] = 0x20000316
        0x00003e80:    7048        Hp      STRB     r0,[r1,#1]
        0x00003e82:    2013        .       MOVS     r0,#0x13
        0x00003e84:    7088        .p      STRB     r0,[r1,#2]
        0x00003e86:    4809        .H      LDR      r0,[pc,#36] ; [0x3eac] = 0x20000380
        0x00003e88:    7803        .x      LDRB     r3,[r0,#0]
        0x00003e8a:    70cb        .p      STRB     r3,[r1,#3]
        0x00003e8c:    7813        .x      LDRB     r3,[r2,#0]
        0x00003e8e:    4a08        .J      LDR      r2,[pc,#32] ; [0x3eb0] = 0x20000488
        0x00003e90:    18d2        ..      ADDS     r2,r2,r3
        0x00003e92:    7800        .x      LDRB     r0,[r0,#0]
        0x00003e94:    1880        ..      ADDS     r0,r0,r2
        0x00003e96:    1e40        @.      SUBS     r0,r0,#1
        0x00003e98:    7800        .x      LDRB     r0,[r0,#0]
        0x00003e9a:    7108        .q      STRB     r0,[r1,#4]
        0x00003e9c:    f7ffff6e    ..n.    BL       SendMeterRTC ; 0x3d7c
        0x00003ea0:    f7fdf896    ....    BL       CalChecksumM ; 0xfd0
        0x00003ea4:    bd80        ..      POP      {r7,pc}
        0x00003ea6:    46c0        .F      MOV      r8,r8
    $d
    __arm_cp.6_0
        0x00003ea8:    2000037e    ~..     DCD    536871806
    __arm_cp.6_2
        0x00003eac:    20000380    ...     DCD    536871808
    __arm_cp.6_3
        0x00003eb0:    20000488    ...     DCD    536872072
    $t
    SendMeter_MeterOTACmd
        0x00003eb4:    b580        ..      PUSH     {r7,lr}
        0x00003eb6:    b082        ..      SUB      sp,sp,#8
        0x00003eb8:    a901        ..      ADD      r1,sp,#4
        0x00003eba:    7008        .p      STRB     r0,[r1,#0]
        0x00003ebc:    4806        .H      LDR      r0,[pc,#24] ; [0x3ed8] = 0x20000381
        0x00003ebe:    7800        .x      LDRB     r0,[r0,#0]
        0x00003ec0:    4906        .I      LDR      r1,[pc,#24] ; [0x3edc] = 0x20000316
        0x00003ec2:    7048        Hp      STRB     r0,[r1,#1]
        0x00003ec4:    2020                MOVS     r0,#0x20
        0x00003ec6:    7088        .p      STRB     r0,[r1,#2]
        0x00003ec8:    9801        ..      LDR      r0,[sp,#4]
        0x00003eca:    70c8        .p      STRB     r0,[r1,#3]
        0x00003ecc:    f7ffff56    ..V.    BL       SendMeterRTC ; 0x3d7c
        0x00003ed0:    f7fdf87e    ..~.    BL       CalChecksumM ; 0xfd0
        0x00003ed4:    b002        ..      ADD      sp,sp,#8
        0x00003ed6:    bd80        ..      POP      {r7,pc}
    $d
    __arm_cp.8_0
        0x00003ed8:    20000381    ...     DCD    536871809
    __arm_cp.8_1
        0x00003edc:    20000316    ...     DCD    536871702
    $t
    SoftI2cMasterInit
        0x00003ee0:    4a09        .J      LDR      r2,[pc,#36] ; [0x3f08] = 0x50004140
        0x00003ee2:    6810        .h      LDR      r0,[r2,#0]
        0x00003ee4:    2140        @!      MOVS     r1,#0x40
        0x00003ee6:    4308        .C      ORRS     r0,r0,r1
        0x00003ee8:    2180        .!      MOVS     r1,#0x80
        0x00003eea:    4388        .C      BICS     r0,r0,r1
        0x00003eec:    6010        .`      STR      r0,[r2,#0]
        0x00003eee:    4907        .I      LDR      r1,[pc,#28] ; [0x3f0c] = 0x5000434c
        0x00003ef0:    2001        .       MOVS     r0,#1
        0x00003ef2:    6008        .`      STR      r0,[r1,#0]
        0x00003ef4:    6811        .h      LDR      r1,[r2,#0]
        0x00003ef6:    2303        .#      MOVS     r3,#3
        0x00003ef8:    021b        ..      LSLS     r3,r3,#8
        0x00003efa:    4399        .C      BICS     r1,r1,r3
        0x00003efc:    0203        ..      LSLS     r3,r0,#8
        0x00003efe:    18c9        ..      ADDS     r1,r1,r3
        0x00003f00:    6011        .`      STR      r1,[r2,#0]
        0x00003f02:    4903        .I      LDR      r1,[pc,#12] ; [0x3f10] = 0x50004350
        0x00003f04:    6008        .`      STR      r0,[r1,#0]
        0x00003f06:    4770        pG      BX       lr
    $d
    __arm_cp.1_0
        0x00003f08:    50004140    @A.P    DCD    1342193984
    __arm_cp.1_1
        0x00003f0c:    5000434c    LC.P    DCD    1342194508
    __arm_cp.1_2
        0x00003f10:    50004350    PC.P    DCD    1342194512
    $t
    SysTick_Config
        0x00003f14:    b580        ..      PUSH     {r7,lr}
        0x00003f16:    b084        ..      SUB      sp,sp,#0x10
        0x00003f18:    9002        ..      STR      r0,[sp,#8]
        0x00003f1a:    9802        ..      LDR      r0,[sp,#8]
        0x00003f1c:    1e40        @.      SUBS     r0,r0,#1
        0x00003f1e:    0e00        ..      LSRS     r0,r0,#24
        0x00003f20:    2800        .(      CMP      r0,#0
        0x00003f22:    d003        ..      BEQ      0x3f2c ; SysTick_Config + 24
        0x00003f24:    e7ff        ..      B        0x3f26 ; SysTick_Config + 18
        0x00003f26:    2001        .       MOVS     r0,#1
        0x00003f28:    9003        ..      STR      r0,[sp,#0xc]
        0x00003f2a:    e011        ..      B        0x3f50 ; SysTick_Config + 60
        0x00003f2c:    9802        ..      LDR      r0,[sp,#8]
        0x00003f2e:    1e40        @.      SUBS     r0,r0,#1
        0x00003f30:    4909        .I      LDR      r1,[pc,#36] ; [0x3f58] = 0xe000e014
        0x00003f32:    6008        .`      STR      r0,[r1,#0]
        0x00003f34:    2000        .       MOVS     r0,#0
        0x00003f36:    9001        ..      STR      r0,[sp,#4]
        0x00003f38:    43c0        .C      MVNS     r0,r0
        0x00003f3a:    2103        .!      MOVS     r1,#3
        0x00003f3c:    f7feff46    ..F.    BL       NVIC_SetPriority ; 0x2dcc
        0x00003f40:    9801        ..      LDR      r0,[sp,#4]
        0x00003f42:    4906        .I      LDR      r1,[pc,#24] ; [0x3f5c] = 0xe000e018
        0x00003f44:    6008        .`      STR      r0,[r1,#0]
        0x00003f46:    4a06        .J      LDR      r2,[pc,#24] ; [0x3f60] = 0xe000e010
        0x00003f48:    2107        .!      MOVS     r1,#7
        0x00003f4a:    6011        .`      STR      r1,[r2,#0]
        0x00003f4c:    9003        ..      STR      r0,[sp,#0xc]
        0x00003f4e:    e7ff        ..      B        0x3f50 ; SysTick_Config + 60
        0x00003f50:    9803        ..      LDR      r0,[sp,#0xc]
        0x00003f52:    b004        ..      ADD      sp,sp,#0x10
        0x00003f54:    bd80        ..      POP      {r7,pc}
        0x00003f56:    46c0        .F      MOV      r8,r8
    $d
    __arm_cp.21_0
        0x00003f58:    e000e014    ....    DCD    3758153748
    __arm_cp.21_1
        0x00003f5c:    e000e018    ....    DCD    3758153752
    __arm_cp.21_2
        0x00003f60:    e000e010    ....    DCD    3758153744
    $t
    SysTick_Handler
        0x00003f64:    b580        ..      PUSH     {r7,lr}
        0x00003f66:    4951        QI      LDR      r1,[pc,#324] ; [0x40ac] = 0x2000037a
        0x00003f68:    7808        .x      LDRB     r0,[r1,#0]
        0x00003f6a:    1c40        @.      ADDS     r0,r0,#1
        0x00003f6c:    7008        .p      STRB     r0,[r1,#0]
        0x00003f6e:    4950        PI      LDR      r1,[pc,#320] ; [0x40b0] = 0x200003a5
        0x00003f70:    7808        .x      LDRB     r0,[r1,#0]
        0x00003f72:    1c40        @.      ADDS     r0,r0,#1
        0x00003f74:    7008        .p      STRB     r0,[r1,#0]
        0x00003f76:    494f        OI      LDR      r1,[pc,#316] ; [0x40b4] = 0x200003a8
        0x00003f78:    7808        .x      LDRB     r0,[r1,#0]
        0x00003f7a:    1c40        @.      ADDS     r0,r0,#1
        0x00003f7c:    7008        .p      STRB     r0,[r1,#0]
        0x00003f7e:    494e        NI      LDR      r1,[pc,#312] ; [0x40b8] = 0x20000504
        0x00003f80:    7808        .x      LDRB     r0,[r1,#0]
        0x00003f82:    1c40        @.      ADDS     r0,r0,#1
        0x00003f84:    7008        .p      STRB     r0,[r1,#0]
        0x00003f86:    494d        MI      LDR      r1,[pc,#308] ; [0x40bc] = 0x2000039c
        0x00003f88:    7808        .x      LDRB     r0,[r1,#0]
        0x00003f8a:    1c40        @.      ADDS     r0,r0,#1
        0x00003f8c:    7008        .p      STRB     r0,[r1,#0]
        0x00003f8e:    494c        LI      LDR      r1,[pc,#304] ; [0x40c0] = 0x20000550
        0x00003f90:    6808        .h      LDR      r0,[r1,#0]
        0x00003f92:    1c40        @.      ADDS     r0,r0,#1
        0x00003f94:    6008        .`      STR      r0,[r1,#0]
        0x00003f96:    484b        KH      LDR      r0,[pc,#300] ; [0x40c4] = 0x2000054c
        0x00003f98:    7800        .x      LDRB     r0,[r0,#0]
        0x00003f9a:    2801        .(      CMP      r0,#1
        0x00003f9c:    d105        ..      BNE      0x3faa ; SysTick_Handler + 70
        0x00003f9e:    e7ff        ..      B        0x3fa0 ; SysTick_Handler + 60
        0x00003fa0:    4949        II      LDR      r1,[pc,#292] ; [0x40c8] = 0x2000054d
        0x00003fa2:    7808        .x      LDRB     r0,[r1,#0]
        0x00003fa4:    1c40        @.      ADDS     r0,r0,#1
        0x00003fa6:    7008        .p      STRB     r0,[r1,#0]
        0x00003fa8:    e7ff        ..      B        0x3faa ; SysTick_Handler + 70
        0x00003faa:    4842        BH      LDR      r0,[pc,#264] ; [0x40b4] = 0x200003a8
        0x00003fac:    7800        .x      LDRB     r0,[r0,#0]
        0x00003fae:    280a        .(      CMP      r0,#0xa
        0x00003fb0:    db08        ..      BLT      0x3fc4 ; SysTick_Handler + 96
        0x00003fb2:    e7ff        ..      B        0x3fb4 ; SysTick_Handler + 80
        0x00003fb4:    493f        ?I      LDR      r1,[pc,#252] ; [0x40b4] = 0x200003a8
        0x00003fb6:    2000        .       MOVS     r0,#0
        0x00003fb8:    7008        .p      STRB     r0,[r1,#0]
        0x00003fba:    4944        DI      LDR      r1,[pc,#272] ; [0x40cc] = 0x200003a0
        0x00003fbc:    7808        .x      LDRB     r0,[r1,#0]
        0x00003fbe:    1c40        @.      ADDS     r0,r0,#1
        0x00003fc0:    7008        .p      STRB     r0,[r1,#0]
        0x00003fc2:    e7ff        ..      B        0x3fc4 ; SysTick_Handler + 96
        0x00003fc4:    4842        BH      LDR      r0,[pc,#264] ; [0x40d0] = 0x2000039a
        0x00003fc6:    8801        ..      LDRH     r1,[r0,#0]
        0x00003fc8:    1c49        I.      ADDS     r1,r1,#1
        0x00003fca:    8001        ..      STRH     r1,[r0,#0]
        0x00003fcc:    8800        ..      LDRH     r0,[r0,#0]
        0x00003fce:    21ff        .!      MOVS     r1,#0xff
        0x00003fd0:    31f6        .1      ADDS     r1,r1,#0xf6
        0x00003fd2:    4288        .B      CMP      r0,r1
        0x00003fd4:    db06        ..      BLT      0x3fe4 ; SysTick_Handler + 128
        0x00003fd6:    e7ff        ..      B        0x3fd8 ; SysTick_Handler + 116
        0x00003fd8:    493e        >I      LDR      r1,[pc,#248] ; [0x40d4] = 0x200004e1
        0x00003fda:    2001        .       MOVS     r0,#1
        0x00003fdc:    7008        .p      STRB     r0,[r1,#0]
        0x00003fde:    f7fff86d    ..m.    BL       RecoverSystemMoniter ; 0x30bc
        0x00003fe2:    e7ff        ..      B        0x3fe4 ; SysTick_Handler + 128
        0x00003fe4:    483c        <H      LDR      r0,[pc,#240] ; [0x40d8] = 0x200000fd
        0x00003fe6:    7800        .x      LDRB     r0,[r0,#0]
        0x00003fe8:    2801        .(      CMP      r0,#1
        0x00003fea:    db0f        ..      BLT      0x400c ; SysTick_Handler + 168
        0x00003fec:    e7ff        ..      B        0x3fee ; SysTick_Handler + 138
        0x00003fee:    483b        ;H      LDR      r0,[pc,#236] ; [0x40dc] = 0x200003a2
        0x00003ff0:    7801        .x      LDRB     r1,[r0,#0]
        0x00003ff2:    1c49        I.      ADDS     r1,r1,#1
        0x00003ff4:    7001        .p      STRB     r1,[r0,#0]
        0x00003ff6:    7800        .x      LDRB     r0,[r0,#0]
        0x00003ff8:    2865        e(      CMP      r0,#0x65
        0x00003ffa:    db06        ..      BLT      0x400a ; SysTick_Handler + 166
        0x00003ffc:    e7ff        ..      B        0x3ffe ; SysTick_Handler + 154
        0x00003ffe:    4937        7I      LDR      r1,[pc,#220] ; [0x40dc] = 0x200003a2
        0x00004000:    2000        .       MOVS     r0,#0
        0x00004002:    7008        .p      STRB     r0,[r1,#0]
        0x00004004:    f7fff876    ..v.    BL       ResetHostUART ; 0x30f4
        0x00004008:    e7ff        ..      B        0x400a ; SysTick_Handler + 166
        0x0000400a:    e7ff        ..      B        0x400c ; SysTick_Handler + 168
        0x0000400c:    48bc        .H      LDR      r0,[pc,#752] ; [0x4300] = 0x2000023f
        0x0000400e:    7800        .x      LDRB     r0,[r0,#0]
        0x00004010:    2801        .(      CMP      r0,#1
        0x00004012:    db0f        ..      BLT      0x4034 ; SysTick_Handler + 208
        0x00004014:    e7ff        ..      B        0x4016 ; SysTick_Handler + 178
        0x00004016:    4832        2H      LDR      r0,[pc,#200] ; [0x40e0] = 0x200003a4
        0x00004018:    7801        .x      LDRB     r1,[r0,#0]
        0x0000401a:    1c49        I.      ADDS     r1,r1,#1
        0x0000401c:    7001        .p      STRB     r1,[r0,#0]
        0x0000401e:    7800        .x      LDRB     r0,[r0,#0]
        0x00004020:    2865        e(      CMP      r0,#0x65
        0x00004022:    db06        ..      BLT      0x4032 ; SysTick_Handler + 206
        0x00004024:    e7ff        ..      B        0x4026 ; SysTick_Handler + 194
        0x00004026:    492e        .I      LDR      r1,[pc,#184] ; [0x40e0] = 0x200003a4
        0x00004028:    2000        .       MOVS     r0,#0
        0x0000402a:    7008        .p      STRB     r0,[r1,#0]
        0x0000402c:    f7fff87c    ..|.    BL       ResetMeterUART ; 0x3128
        0x00004030:    e7ff        ..      B        0x4032 ; SysTick_Handler + 206
        0x00004032:    e7ff        ..      B        0x4034 ; SysTick_Handler + 208
        0x00004034:    492b        +I      LDR      r1,[pc,#172] ; [0x40e4] = 0x200003a6
        0x00004036:    8808        ..      LDRH     r0,[r1,#0]
        0x00004038:    1c40        @.      ADDS     r0,r0,#1
        0x0000403a:    8008        ..      STRH     r0,[r1,#0]
        0x0000403c:    482a        *H      LDR      r0,[pc,#168] ; [0x40e8] = 0x200003a9
        0x0000403e:    7801        .x      LDRB     r1,[r0,#0]
        0x00004040:    1c49        I.      ADDS     r1,r1,#1
        0x00004042:    7001        .p      STRB     r1,[r0,#0]
        0x00004044:    4a1e        .J      LDR      r2,[pc,#120] ; [0x40c0] = 0x20000550
        0x00004046:    6811        .h      LDR      r1,[r2,#0]
        0x00004048:    1c49        I.      ADDS     r1,r1,#1
        0x0000404a:    6011        .`      STR      r1,[r2,#0]
        0x0000404c:    7800        .x      LDRB     r0,[r0,#0]
        0x0000404e:    2864        d(      CMP      r0,#0x64
        0x00004050:    db2b        +.      BLT      0x40aa ; SysTick_Handler + 326
        0x00004052:    e7ff        ..      B        0x4054 ; SysTick_Handler + 240
        0x00004054:    4924        $I      LDR      r1,[pc,#144] ; [0x40e8] = 0x200003a9
        0x00004056:    2000        .       MOVS     r0,#0
        0x00004058:    7008        .p      STRB     r0,[r1,#0]
        0x0000405a:    4824        $H      LDR      r0,[pc,#144] ; [0x40ec] = 0x20000076
        0x0000405c:    7981        .y      LDRB     r1,[r0,#6]
        0x0000405e:    1c49        I.      ADDS     r1,r1,#1
        0x00004060:    7181        .q      STRB     r1,[r0,#6]
        0x00004062:    7980        .y      LDRB     r0,[r0,#6]
        0x00004064:    283c        <(      CMP      r0,#0x3c
        0x00004066:    db1f        ..      BLT      0x40a8 ; SysTick_Handler + 324
        0x00004068:    e7ff        ..      B        0x406a ; SysTick_Handler + 262
        0x0000406a:    4820         H      LDR      r0,[pc,#128] ; [0x40ec] = 0x20000076
        0x0000406c:    2100        .!      MOVS     r1,#0
        0x0000406e:    7181        .q      STRB     r1,[r0,#6]
        0x00004070:    7941        Ay      LDRB     r1,[r0,#5]
        0x00004072:    1c49        I.      ADDS     r1,r1,#1
        0x00004074:    7141        Aq      STRB     r1,[r0,#5]
        0x00004076:    7940        @y      LDRB     r0,[r0,#5]
        0x00004078:    283c        <(      CMP      r0,#0x3c
        0x0000407a:    db14        ..      BLT      0x40a6 ; SysTick_Handler + 322
        0x0000407c:    e7ff        ..      B        0x407e ; SysTick_Handler + 282
        0x0000407e:    481b        .H      LDR      r0,[pc,#108] ; [0x40ec] = 0x20000076
        0x00004080:    2100        .!      MOVS     r1,#0
        0x00004082:    7141        Aq      STRB     r1,[r0,#5]
        0x00004084:    7901        .y      LDRB     r1,[r0,#4]
        0x00004086:    1c49        I.      ADDS     r1,r1,#1
        0x00004088:    7101        .q      STRB     r1,[r0,#4]
        0x0000408a:    7900        .y      LDRB     r0,[r0,#4]
        0x0000408c:    2818        .(      CMP      r0,#0x18
        0x0000408e:    db09        ..      BLT      0x40a4 ; SysTick_Handler + 320
        0x00004090:    e7ff        ..      B        0x4092 ; SysTick_Handler + 302
        0x00004092:    4916        .I      LDR      r1,[pc,#88] ; [0x40ec] = 0x20000076
        0x00004094:    2000        .       MOVS     r0,#0
        0x00004096:    7108        .q      STRB     r0,[r1,#4]
        0x00004098:    4915        .I      LDR      r1,[pc,#84] ; [0x40f0] = 0x200004e2
        0x0000409a:    7808        .x      LDRB     r0,[r1,#0]
        0x0000409c:    2202        ."      MOVS     r2,#2
        0x0000409e:    4310        .C      ORRS     r0,r0,r2
        0x000040a0:    7008        .p      STRB     r0,[r1,#0]
        0x000040a2:    e7ff        ..      B        0x40a4 ; SysTick_Handler + 320
        0x000040a4:    e7ff        ..      B        0x40a6 ; SysTick_Handler + 322
        0x000040a6:    e7ff        ..      B        0x40a8 ; SysTick_Handler + 324
        0x000040a8:    e7ff        ..      B        0x40aa ; SysTick_Handler + 326
        0x000040aa:    bd80        ..      POP      {r7,pc}
    $d
    __arm_cp.3_0
        0x000040ac:    2000037a    z..     DCD    536871802
    __arm_cp.3_1
        0x000040b0:    200003a5    ...     DCD    536871845
    __arm_cp.3_2
        0x000040b4:    200003a8    ...     DCD    536871848
    __arm_cp.3_3
        0x000040b8:    20000504    ...     DCD    536872196
    __arm_cp.3_4
        0x000040bc:    2000039c    ...     DCD    536871836
    __arm_cp.3_5
        0x000040c0:    20000550    P..     DCD    536872272
    __arm_cp.3_6
        0x000040c4:    2000054c    L..     DCD    536872268
    __arm_cp.3_7
        0x000040c8:    2000054d    M..     DCD    536872269
    __arm_cp.3_8
        0x000040cc:    200003a0    ...     DCD    536871840
    __arm_cp.3_9
        0x000040d0:    2000039a    ...     DCD    536871834
    __arm_cp.3_10
        0x000040d4:    200004e1    ...     DCD    536872161
    __arm_cp.3_11
        0x000040d8:    200000fd    ...     DCD    536871165
    __arm_cp.3_12
        0x000040dc:    200003a2    ...     DCD    536871842
    __arm_cp.3_14
        0x000040e0:    200003a4    ...     DCD    536871844
    __arm_cp.3_15
        0x000040e4:    200003a6    ...     DCD    536871846
    __arm_cp.3_16
        0x000040e8:    200003a9    ...     DCD    536871849
    __arm_cp.3_17
        0x000040ec:    20000076    v..     DCD    536871030
    __arm_cp.3_18
        0x000040f0:    200004e2    ...     DCD    536872162
    $t
    SystemCoreClockUpdate
        0x000040f4:    b580        ..      PUSH     {r7,lr}
        0x000040f6:    b084        ..      SUB      sp,sp,#0x10
        0x000040f8:    4816        .H      LDR      r0,[pc,#88] ; [0x4154] = 0x50000210
        0x000040fa:    6800        .h      LDR      r0,[r0,#0]
        0x000040fc:    2107        .!      MOVS     r1,#7
        0x000040fe:    4008        .@      ANDS     r0,r0,r1
        0x00004100:    9002        ..      STR      r0,[sp,#8]
        0x00004102:    f7fcfc9d    ....    BL       CLK_GetPLLClockFreq ; 0xa40
        0x00004106:    4914        .I      LDR      r1,[pc,#80] ; [0x4158] = 0x20000004
        0x00004108:    6008        .`      STR      r0,[r1,#0]
        0x0000410a:    9802        ..      LDR      r0,[sp,#8]
        0x0000410c:    2802        .(      CMP      r0,#2
        0x0000410e:    d006        ..      BEQ      0x411e ; SystemCoreClockUpdate + 42
        0x00004110:    e7ff        ..      B        0x4112 ; SystemCoreClockUpdate + 30
        0x00004112:    9802        ..      LDR      r0,[sp,#8]
        0x00004114:    0081        ..      LSLS     r1,r0,#2
        0x00004116:    4811        .H      LDR      r0,[pc,#68] ; [0x415c] = 0x57d4
        0x00004118:    5840        @X      LDR      r0,[r0,r1]
        0x0000411a:    9003        ..      STR      r0,[sp,#0xc]
        0x0000411c:    e003        ..      B        0x4126 ; SystemCoreClockUpdate + 50
        0x0000411e:    480e        .H      LDR      r0,[pc,#56] ; [0x4158] = 0x20000004
        0x00004120:    6800        .h      LDR      r0,[r0,#0]
        0x00004122:    9003        ..      STR      r0,[sp,#0xc]
        0x00004124:    e7ff        ..      B        0x4126 ; SystemCoreClockUpdate + 50
        0x00004126:    48b6        .H      LDR      r0,[pc,#728] ; [0x4400] = 0x50000218
        0x00004128:    6800        .h      LDR      r0,[r0,#0]
        0x0000412a:    210f        .!      MOVS     r1,#0xf
        0x0000412c:    4008        .@      ANDS     r0,r0,r1
        0x0000412e:    1c40        @.      ADDS     r0,r0,#1
        0x00004130:    9001        ..      STR      r0,[sp,#4]
        0x00004132:    9803        ..      LDR      r0,[sp,#0xc]
        0x00004134:    9901        ..      LDR      r1,[sp,#4]
        0x00004136:    f7fbfffd    ....    BL       __aeabi_uidiv ; 0x134
        0x0000413a:    4601        .F      MOV      r1,r0
        0x0000413c:    4808        .H      LDR      r0,[pc,#32] ; [0x4160] = 0x20000008
        0x0000413e:    6001        .`      STR      r1,[r0,#0]
        0x00004140:    6800        .h      LDR      r0,[r0,#0]
        0x00004142:    4908        .I      LDR      r1,[pc,#32] ; [0x4164] = 0x7a120
        0x00004144:    1840        @.      ADDS     r0,r0,r1
        0x00004146:    4908        .I      LDR      r1,[pc,#32] ; [0x4168] = 0xf4240
        0x00004148:    f7fbfff4    ....    BL       __aeabi_uidiv ; 0x134
        0x0000414c:    4907        .I      LDR      r1,[pc,#28] ; [0x416c] = 0x20000000
        0x0000414e:    6008        .`      STR      r0,[r1,#0]
        0x00004150:    b004        ..      ADD      sp,sp,#0x10
        0x00004152:    bd80        ..      POP      {r7,pc}
    $d
    __arm_cp.0_0
        0x00004154:    50000210    ...P    DCD    1342177808
    __arm_cp.0_1
        0x00004158:    20000004    ...     DCD    536870916
    __arm_cp.0_2
        0x0000415c:    000057d4    .W..    DCD    22484
    __arm_cp.0_4
        0x00004160:    20000008    ...     DCD    536870920
    __arm_cp.0_5
        0x00004164:    0007a120     ...    DCD    500000
    __arm_cp.0_6
        0x00004168:    000f4240    @B..    DCD    1000000
    __arm_cp.0_7
        0x0000416c:    20000000    ...     DCD    536870912
    $t
    UART02_IRQHandler
        0x00004170:    b580        ..      PUSH     {r7,lr}
        0x00004172:    b084        ..      SUB      sp,sp,#0x10
        0x00004174:    485b        [H      LDR      r0,[pc,#364] ; [0x42e4] = 0x4005001c
        0x00004176:    6800        .h      LDR      r0,[r0,#0]
        0x00004178:    9003        ..      STR      r0,[sp,#0xc]
        0x0000417a:    a803        ..      ADD      r0,sp,#0xc
        0x0000417c:    7840        @x      LDRB     r0,[r0,#1]
        0x0000417e:    07c0        ..      LSLS     r0,r0,#31
        0x00004180:    2800        .(      CMP      r0,#0
        0x00004182:    d072        r.      BEQ      0x426a ; UART02_IRQHandler + 250
        0x00004184:    e7ff        ..      B        0x4186 ; UART02_IRQHandler + 22
        0x00004186:    e7ff        ..      B        0x4188 ; UART02_IRQHandler + 24
        0x00004188:    4856        VH      LDR      r0,[pc,#344] ; [0x42e4] = 0x4005001c
        0x0000418a:    6800        .h      LDR      r0,[r0,#0]
        0x0000418c:    07c0        ..      LSLS     r0,r0,#31
        0x0000418e:    2800        .(      CMP      r0,#0
        0x00004190:    d06a        j.      BEQ      0x4268 ; UART02_IRQHandler + 248
        0x00004192:    e7ff        ..      B        0x4194 ; UART02_IRQHandler + 36
        0x00004194:    489f        .H      LDR      r0,[pc,#636] ; [0x4414] = 0x40050000
        0x00004196:    6800        .h      LDR      r0,[r0,#0]
        0x00004198:    a902        ..      ADD      r1,sp,#8
        0x0000419a:    7008        .p      STRB     r0,[r1,#0]
        0x0000419c:    9902        ..      LDR      r1,[sp,#8]
        0x0000419e:    4856        VH      LDR      r0,[pc,#344] ; [0x42f8] = 0x20000241
        0x000041a0:    7803        .x      LDRB     r3,[r0,#0]
        0x000041a2:    4a56        VJ      LDR      r2,[pc,#344] ; [0x42fc] = 0x200001db
        0x000041a4:    54d1        .T      STRB     r1,[r2,r3]
        0x000041a6:    7801        .x      LDRB     r1,[r0,#0]
        0x000041a8:    1c49        I.      ADDS     r1,r1,#1
        0x000041aa:    7001        .p      STRB     r1,[r0,#0]
        0x000041ac:    4a54        TJ      LDR      r2,[pc,#336] ; [0x4300] = 0x2000023f
        0x000041ae:    7811        .x      LDRB     r1,[r2,#0]
        0x000041b0:    1c49        I.      ADDS     r1,r1,#1
        0x000041b2:    7011        .p      STRB     r1,[r2,#0]
        0x000041b4:    7800        .x      LDRB     r0,[r0,#0]
        0x000041b6:    2864        d(      CMP      r0,#0x64
        0x000041b8:    db04        ..      BLT      0x41c4 ; UART02_IRQHandler + 84
        0x000041ba:    e7ff        ..      B        0x41bc ; UART02_IRQHandler + 76
        0x000041bc:    494e        NI      LDR      r1,[pc,#312] ; [0x42f8] = 0x20000241
        0x000041be:    2000        .       MOVS     r0,#0
        0x000041c0:    7008        .p      STRB     r0,[r1,#0]
        0x000041c2:    e7ff        ..      B        0x41c4 ; UART02_IRQHandler + 84
        0x000041c4:    484d        MH      LDR      r0,[pc,#308] ; [0x42fc] = 0x200001db
        0x000041c6:    7800        .x      LDRB     r0,[r0,#0]
        0x000041c8:    2855        U(      CMP      r0,#0x55
        0x000041ca:    d008        ..      BEQ      0x41de ; UART02_IRQHandler + 110
        0x000041cc:    e7ff        ..      B        0x41ce ; UART02_IRQHandler + 94
        0x000041ce:    494a        JI      LDR      r1,[pc,#296] ; [0x42f8] = 0x20000241
        0x000041d0:    2000        .       MOVS     r0,#0
        0x000041d2:    7008        .p      STRB     r0,[r1,#0]
        0x000041d4:    494a        JI      LDR      r1,[pc,#296] ; [0x4300] = 0x2000023f
        0x000041d6:    7008        .p      STRB     r0,[r1,#0]
        0x000041d8:    494a        JI      LDR      r1,[pc,#296] ; [0x4304] = 0x20000240
        0x000041da:    7008        .p      STRB     r0,[r1,#0]
        0x000041dc:    e7ff        ..      B        0x41de ; UART02_IRQHandler + 110
        0x000041de:    4848        HH      LDR      r0,[pc,#288] ; [0x4300] = 0x2000023f
        0x000041e0:    7800        .x      LDRB     r0,[r0,#0]
        0x000041e2:    2864        d(      CMP      r0,#0x64
        0x000041e4:    db3f        ?.      BLT      0x4266 ; UART02_IRQHandler + 246
        0x000041e6:    e7ff        ..      B        0x41e8 ; UART02_IRQHandler + 120
        0x000041e8:    4844        DH      LDR      r0,[pc,#272] ; [0x42fc] = 0x200001db
        0x000041ea:    2163        c!      MOVS     r1,#0x63
        0x000041ec:    5c40        @\      LDRB     r0,[r0,r1]
        0x000041ee:    280a        .(      CMP      r0,#0xa
        0x000041f0:    d008        ..      BEQ      0x4204 ; UART02_IRQHandler + 148
        0x000041f2:    e7ff        ..      B        0x41f4 ; UART02_IRQHandler + 132
        0x000041f4:    4940        @I      LDR      r1,[pc,#256] ; [0x42f8] = 0x20000241
        0x000041f6:    2000        .       MOVS     r0,#0
        0x000041f8:    7008        .p      STRB     r0,[r1,#0]
        0x000041fa:    4941        AI      LDR      r1,[pc,#260] ; [0x4300] = 0x2000023f
        0x000041fc:    7008        .p      STRB     r0,[r1,#0]
        0x000041fe:    4941        AI      LDR      r1,[pc,#260] ; [0x4304] = 0x20000240
        0x00004200:    7008        .p      STRB     r0,[r1,#0]
        0x00004202:    e06c        l.      B        0x42de ; UART02_IRQHandler + 366
        0x00004204:    a901        ..      ADD      r1,sp,#4
        0x00004206:    2000        .       MOVS     r0,#0
        0x00004208:    7008        .p      STRB     r0,[r1,#0]
        0x0000420a:    e7ff        ..      B        0x420c ; UART02_IRQHandler + 156
        0x0000420c:    a801        ..      ADD      r0,sp,#4
        0x0000420e:    7800        .x      LDRB     r0,[r0,#0]
        0x00004210:    2863        c(      CMP      r0,#0x63
        0x00004212:    dc1d        ..      BGT      0x4250 ; UART02_IRQHandler + 224
        0x00004214:    e7ff        ..      B        0x4216 ; UART02_IRQHandler + 166
        0x00004216:    483b        ;H      LDR      r0,[pc,#236] ; [0x4304] = 0x20000240
        0x00004218:    7802        .x      LDRB     r2,[r0,#0]
        0x0000421a:    4938        8I      LDR      r1,[pc,#224] ; [0x42fc] = 0x200001db
        0x0000421c:    5c89        .\      LDRB     r1,[r1,r2]
        0x0000421e:    aa01        ..      ADD      r2,sp,#4
        0x00004220:    7813        .x      LDRB     r3,[r2,#0]
        0x00004222:    4a3a        :J      LDR      r2,[pc,#232] ; [0x430c] = 0x2000040e
        0x00004224:    54d1        .T      STRB     r1,[r2,r3]
        0x00004226:    4a36        6J      LDR      r2,[pc,#216] ; [0x4300] = 0x2000023f
        0x00004228:    7811        .x      LDRB     r1,[r2,#0]
        0x0000422a:    1e49        I.      SUBS     r1,r1,#1
        0x0000422c:    7011        .p      STRB     r1,[r2,#0]
        0x0000422e:    7801        .x      LDRB     r1,[r0,#0]
        0x00004230:    1c49        I.      ADDS     r1,r1,#1
        0x00004232:    7001        .p      STRB     r1,[r0,#0]
        0x00004234:    7800        .x      LDRB     r0,[r0,#0]
        0x00004236:    2864        d(      CMP      r0,#0x64
        0x00004238:    db04        ..      BLT      0x4244 ; UART02_IRQHandler + 212
        0x0000423a:    e7ff        ..      B        0x423c ; UART02_IRQHandler + 204
        0x0000423c:    4931        1I      LDR      r1,[pc,#196] ; [0x4304] = 0x20000240
        0x0000423e:    2000        .       MOVS     r0,#0
        0x00004240:    7008        .p      STRB     r0,[r1,#0]
        0x00004242:    e7ff        ..      B        0x4244 ; UART02_IRQHandler + 212
        0x00004244:    e7ff        ..      B        0x4246 ; UART02_IRQHandler + 214
        0x00004246:    9801        ..      LDR      r0,[sp,#4]
        0x00004248:    1c40        @.      ADDS     r0,r0,#1
        0x0000424a:    a901        ..      ADD      r1,sp,#4
        0x0000424c:    7008        .p      STRB     r0,[r1,#0]
        0x0000424e:    e7dd        ..      B        0x420c ; UART02_IRQHandler + 156
        0x00004250:    4929        )I      LDR      r1,[pc,#164] ; [0x42f8] = 0x20000241
        0x00004252:    2000        .       MOVS     r0,#0
        0x00004254:    7008        .p      STRB     r0,[r1,#0]
        0x00004256:    492a        *I      LDR      r1,[pc,#168] ; [0x4300] = 0x2000023f
        0x00004258:    7008        .p      STRB     r0,[r1,#0]
        0x0000425a:    492a        *I      LDR      r1,[pc,#168] ; [0x4304] = 0x20000240
        0x0000425c:    7008        .p      STRB     r0,[r1,#0]
        0x0000425e:    492a        *I      LDR      r1,[pc,#168] ; [0x4308] = 0x20000315
        0x00004260:    2001        .       MOVS     r0,#1
        0x00004262:    7008        .p      STRB     r0,[r1,#0]
        0x00004264:    e7ff        ..      B        0x4266 ; UART02_IRQHandler + 246
        0x00004266:    e78f        ..      B        0x4188 ; UART02_IRQHandler + 24
        0x00004268:    e7ff        ..      B        0x426a ; UART02_IRQHandler + 250
        0x0000426a:    481e        .H      LDR      r0,[pc,#120] ; [0x42e4] = 0x4005001c
        0x0000426c:    6800        .h      LDR      r0,[r0,#0]
        0x0000426e:    9003        ..      STR      r0,[sp,#0xc]
        0x00004270:    a803        ..      ADD      r0,sp,#0xc
        0x00004272:    7840        @x      LDRB     r0,[r0,#1]
        0x00004274:    0780        ..      LSLS     r0,r0,#30
        0x00004276:    2800        .(      CMP      r0,#0
        0x00004278:    d531        1.      BPL      0x42de ; UART02_IRQHandler + 366
        0x0000427a:    e7ff        ..      B        0x427c ; UART02_IRQHandler + 268
        0x0000427c:    481a        .H      LDR      r0,[pc,#104] ; [0x42e8] = 0x200002a6
        0x0000427e:    7800        .x      LDRB     r0,[r0,#0]
        0x00004280:    2801        .(      CMP      r0,#1
        0x00004282:    db21        !.      BLT      0x42c8 ; UART02_IRQHandler + 344
        0x00004284:    e7ff        ..      B        0x4286 ; UART02_IRQHandler + 278
        0x00004286:    e7ff        ..      B        0x4288 ; UART02_IRQHandler + 280
        0x00004288:    4818        .H      LDR      r0,[pc,#96] ; [0x42ec] = 0x40050018
        0x0000428a:    6800        .h      LDR      r0,[r0,#0]
        0x0000428c:    2101        .!      MOVS     r1,#1
        0x0000428e:    05c9        ..      LSLS     r1,r1,#23
        0x00004290:    4008        .@      ANDS     r0,r0,r1
        0x00004292:    0dc0        ..      LSRS     r0,r0,#23
        0x00004294:    2800        .(      CMP      r0,#0
        0x00004296:    d001        ..      BEQ      0x429c ; UART02_IRQHandler + 300
        0x00004298:    e7ff        ..      B        0x429a ; UART02_IRQHandler + 298
        0x0000429a:    e7f5        ..      B        0x4288 ; UART02_IRQHandler + 280
        0x0000429c:    4814        .H      LDR      r0,[pc,#80] ; [0x42f0] = 0x200002a7
        0x0000429e:    7802        .x      LDRB     r2,[r0,#0]
        0x000042a0:    4914        .I      LDR      r1,[pc,#80] ; [0x42f4] = 0x20000242
        0x000042a2:    5c89        .\      LDRB     r1,[r1,r2]
        0x000042a4:    4a5b        [J      LDR      r2,[pc,#364] ; [0x4414] = 0x40050000
        0x000042a6:    6011        .`      STR      r1,[r2,#0]
        0x000042a8:    4a0f        .J      LDR      r2,[pc,#60] ; [0x42e8] = 0x200002a6
        0x000042aa:    7811        .x      LDRB     r1,[r2,#0]
        0x000042ac:    1e49        I.      SUBS     r1,r1,#1
        0x000042ae:    7011        .p      STRB     r1,[r2,#0]
        0x000042b0:    7801        .x      LDRB     r1,[r0,#0]
        0x000042b2:    1c49        I.      ADDS     r1,r1,#1
        0x000042b4:    7001        .p      STRB     r1,[r0,#0]
        0x000042b6:    7800        .x      LDRB     r0,[r0,#0]
        0x000042b8:    2864        d(      CMP      r0,#0x64
        0x000042ba:    db04        ..      BLT      0x42c6 ; UART02_IRQHandler + 342
        0x000042bc:    e7ff        ..      B        0x42be ; UART02_IRQHandler + 334
        0x000042be:    490c        .I      LDR      r1,[pc,#48] ; [0x42f0] = 0x200002a7
        0x000042c0:    2000        .       MOVS     r0,#0
        0x000042c2:    7008        .p      STRB     r0,[r1,#0]
        0x000042c4:    e7ff        ..      B        0x42c6 ; UART02_IRQHandler + 342
        0x000042c6:    e009        ..      B        0x42dc ; UART02_IRQHandler + 364
        0x000042c8:    4852        RH      LDR      r0,[pc,#328] ; [0x4414] = 0x40050000
        0x000042ca:    9000        ..      STR      r0,[sp,#0]
        0x000042cc:    2102        .!      MOVS     r1,#2
        0x000042ce:    f000fa17    ....    BL       UART_DisableInt ; 0x4700
        0x000042d2:    9800        ..      LDR      r0,[sp,#0]
        0x000042d4:    2101        .!      MOVS     r1,#1
        0x000042d6:    f000fa35    ..5.    BL       UART_EnableInt ; 0x4744
        0x000042da:    e7ff        ..      B        0x42dc ; UART02_IRQHandler + 364
        0x000042dc:    e7ff        ..      B        0x42de ; UART02_IRQHandler + 366
        0x000042de:    b004        ..      ADD      sp,sp,#0x10
        0x000042e0:    bd80        ..      POP      {r7,pc}
        0x000042e2:    46c0        .F      MOV      r8,r8
    $d
    __arm_cp.7_0
        0x000042e4:    4005001c    ...@    DCD    1074069532
    __arm_cp.7_1
        0x000042e8:    200002a6    ...     DCD    536871590
    __arm_cp.7_3
        0x000042ec:    40050018    ...@    DCD    1074069528
    __arm_cp.7_4
        0x000042f0:    200002a7    ...     DCD    536871591
    __arm_cp.7_5
        0x000042f4:    20000242    B..     DCD    536871490
    __arm_cp.7_6
        0x000042f8:    20000241    A..     DCD    536871489
    __arm_cp.7_7
        0x000042fc:    200001db    ...     DCD    536871387
    __arm_cp.7_8
        0x00004300:    2000023f    ?..     DCD    536871487
    __arm_cp.7_9
        0x00004304:    20000240    @..     DCD    536871488
    __arm_cp.7_10
        0x00004308:    20000315    ...     DCD    536871701
    __arm_cp.7_11
        0x0000430c:    2000040e    ...     DCD    536871950
    $t
    UART0_Init
        0x00004310:    b510        ..      PUSH     {r4,lr}
        0x00004312:    b08a        ..      SUB      sp,sp,#0x28
        0x00004314:    48ed        .H      LDR      r0,[pc,#948] ; [0x46cc] = 0x1518000
        0x00004316:    9007        ..      STR      r0,[sp,#0x1c]
        0x00004318:    2000        .       MOVS     r0,#0
        0x0000431a:    9001        ..      STR      r0,[sp,#4]
        0x0000431c:    9005        ..      STR      r0,[sp,#0x14]
        0x0000431e:    49ec        .I      LDR      r1,[pc,#944] ; [0x46d0] = 0xb71b00
        0x00004320:    9104        ..      STR      r1,[sp,#0x10]
        0x00004322:    2101        .!      MOVS     r1,#1
        0x00004324:    03c9        ..      LSLS     r1,r1,#15
        0x00004326:    9106        ..      STR      r1,[sp,#0x18]
        0x00004328:    9003        ..      STR      r0,[sp,#0xc]
        0x0000432a:    20e1        .       MOVS     r0,#0xe1
        0x0000432c:    0200        ..      LSLS     r0,r0,#8
        0x0000432e:    9002        ..      STR      r0,[sp,#8]
        0x00004330:    4832        2H      LDR      r0,[pc,#200] ; [0x43fc] = 0x4000010
        0x00004332:    f7feffcf    ....    BL       SYS_ResetModule ; 0x32d4
        0x00004336:    9a01        ..      LDR      r2,[sp,#4]
        0x00004338:    48e7        .H      LDR      r0,[pc,#924] ; [0x46d8] = 0x50000214
        0x0000433a:    6800        .h      LDR      r0,[r0,#0]
        0x0000433c:    2103        .!      MOVS     r1,#3
        0x0000433e:    060b        ..      LSLS     r3,r1,#24
        0x00004340:    4018        .@      ANDS     r0,r0,r3
        0x00004342:    0e03        ..      LSRS     r3,r0,#24
        0x00004344:    a809        ..      ADD      r0,sp,#0x24
        0x00004346:    7003        .p      STRB     r3,[r0,#0]
        0x00004348:    4be4        .K      LDR      r3,[pc,#912] ; [0x46dc] = 0x50000218
        0x0000434a:    681b        .h      LDR      r3,[r3,#0]
        0x0000434c:    240f        .$      MOVS     r4,#0xf
        0x0000434e:    0224        $.      LSLS     r4,r4,#8
        0x00004350:    4023        #@      ANDS     r3,r3,r4
        0x00004352:    0a1b        ..      LSRS     r3,r3,#8
        0x00004354:    ac08        ..      ADD      r4,sp,#0x20
        0x00004356:    7023        #p      STRB     r3,[r4,#0]
        0x00004358:    4b2a        *K      LDR      r3,[pc,#168] ; [0x4404] = 0x40050030
        0x0000435a:    601a        .`      STR      r2,[r3,#0]
        0x0000435c:    4a2a        *J      LDR      r2,[pc,#168] ; [0x4408] = 0x4005000c
        0x0000435e:    6011        .`      STR      r1,[r2,#0]
        0x00004360:    4a2a        *J      LDR      r2,[pc,#168] ; [0x440c] = 0x40050008
        0x00004362:    6811        .h      LDR      r1,[r2,#0]
        0x00004364:    4be4        .K      LDR      r3,[pc,#912] ; [0x46f8] = 0xfff0ff0f
        0x00004366:    4019        .@      ANDS     r1,r1,r3
        0x00004368:    6011        .`      STR      r1,[r2,#0]
        0x0000436a:    7800        .x      LDRB     r0,[r0,#0]
        0x0000436c:    2801        .(      CMP      r0,#1
        0x0000436e:    d108        ..      BNE      0x4382 ; UART0_Init + 114
        0x00004370:    e7ff        ..      B        0x4372 ; UART0_Init + 98
        0x00004372:    f7fcfbb1    ....    BL       CLK_GetPLLClockFreq ; 0xad8
        0x00004376:    a909        ..      ADD      r1,sp,#0x24
        0x00004378:    7809        .x      LDRB     r1,[r1,#0]
        0x0000437a:    008a        ..      LSLS     r2,r1,#2
        0x0000437c:    a904        ..      ADD      r1,sp,#0x10
        0x0000437e:    5088        .P      STR      r0,[r1,r2]
        0x00004380:    e7ff        ..      B        0x4382 ; UART0_Init + 114
        0x00004382:    9802        ..      LDR      r0,[sp,#8]
        0x00004384:    2800        .(      CMP      r0,#0
        0x00004386:    d032        2.      BEQ      0x43ee ; UART0_Init + 222
        0x00004388:    e7ff        ..      B        0x438a ; UART0_Init + 122
        0x0000438a:    a809        ..      ADD      r0,sp,#0x24
        0x0000438c:    7800        .x      LDRB     r0,[r0,#0]
        0x0000438e:    0081        ..      LSLS     r1,r0,#2
        0x00004390:    a804        ..      ADD      r0,sp,#0x10
        0x00004392:    5840        @X      LDR      r0,[r0,r1]
        0x00004394:    a908        ..      ADD      r1,sp,#0x20
        0x00004396:    7809        .x      LDRB     r1,[r1,#0]
        0x00004398:    1c49        I.      ADDS     r1,r1,#1
        0x0000439a:    f7fbfecb    ....    BL       __aeabi_uidiv ; 0x134
        0x0000439e:    9902        ..      LDR      r1,[sp,#8]
        0x000043a0:    084a        J.      LSRS     r2,r1,#1
        0x000043a2:    1880        ..      ADDS     r0,r0,r2
        0x000043a4:    f7fbfec6    ....    BL       __aeabi_uidiv ; 0x134
        0x000043a8:    1e80        ..      SUBS     r0,r0,#2
        0x000043aa:    9003        ..      STR      r0,[sp,#0xc]
        0x000043ac:    a803        ..      ADD      r0,sp,#0xc
        0x000043ae:    8840        @.      LDRH     r0,[r0,#2]
        0x000043b0:    2800        .(      CMP      r0,#0
        0x000043b2:    d014        ..      BEQ      0x43de ; UART0_Init + 206
        0x000043b4:    e7ff        ..      B        0x43b6 ; UART0_Init + 166
        0x000043b6:    a809        ..      ADD      r0,sp,#0x24
        0x000043b8:    7800        .x      LDRB     r0,[r0,#0]
        0x000043ba:    0081        ..      LSLS     r1,r0,#2
        0x000043bc:    a804        ..      ADD      r0,sp,#0x10
        0x000043be:    5840        @X      LDR      r0,[r0,r1]
        0x000043c0:    a908        ..      ADD      r1,sp,#0x20
        0x000043c2:    7809        .x      LDRB     r1,[r1,#0]
        0x000043c4:    1c49        I.      ADDS     r1,r1,#1
        0x000043c6:    f7fbfeb5    ....    BL       __aeabi_uidiv ; 0x134
        0x000043ca:    9902        ..      LDR      r1,[sp,#8]
        0x000043cc:    00ca        ..      LSLS     r2,r1,#3
        0x000043ce:    1880        ..      ADDS     r0,r0,r2
        0x000043d0:    f7fbfeb0    ....    BL       __aeabi_uidiv ; 0x134
        0x000043d4:    0900        ..      LSRS     r0,r0,#4
        0x000043d6:    1e80        ..      SUBS     r0,r0,#2
        0x000043d8:    490d        .I      LDR      r1,[pc,#52] ; [0x4410] = 0x40050024
        0x000043da:    6008        .`      STR      r0,[r1,#0]
        0x000043dc:    e006        ..      B        0x43ec ; UART0_Init + 220
        0x000043de:    9803        ..      LDR      r0,[sp,#0xc]
        0x000043e0:    2103        .!      MOVS     r1,#3
        0x000043e2:    0709        ..      LSLS     r1,r1,#28
        0x000043e4:    4308        .C      ORRS     r0,r0,r1
        0x000043e6:    490a        .I      LDR      r1,[pc,#40] ; [0x4410] = 0x40050024
        0x000043e8:    6008        .`      STR      r0,[r1,#0]
        0x000043ea:    e7ff        ..      B        0x43ec ; UART0_Init + 220
        0x000043ec:    e7ff        ..      B        0x43ee ; UART0_Init + 222
        0x000043ee:    48e6        .H      LDR      r0,[pc,#920] ; [0x4788] = 0x40050000
        0x000043f0:    2101        .!      MOVS     r1,#1
        0x000043f2:    f000f9a7    ....    BL       UART_EnableInt ; 0x4744
        0x000043f6:    b00a        ..      ADD      sp,sp,#0x28
        0x000043f8:    bd10        ..      POP      {r4,pc}
        0x000043fa:    46c0        .F      MOV      r8,r8
    $d
    __arm_cp.9_2
        0x000043fc:    04000010    ....    DCD    67108880
    __arm_cp.9_4
        0x00004400:    50000218    ...P    DCD    1342177816
    __arm_cp.9_5
        0x00004404:    40050030    0..@    DCD    1074069552
    __arm_cp.9_6
        0x00004408:    4005000c    ...@    DCD    1074069516
    __arm_cp.9_7
        0x0000440c:    40050008    ...@    DCD    1074069512
    __arm_cp.9_9
        0x00004410:    40050024    $..@    DCD    1074069540
    __arm_cp.9_10
        0x00004414:    40050000    ...@    DCD    1074069504
    $t
    UART1_IRQHandler
        0x00004418:    b580        ..      PUSH     {r7,lr}
        0x0000441a:    b086        ..      SUB      sp,sp,#0x18
        0x0000441c:    485e        ^H      LDR      r0,[pc,#376] ; [0x4598] = 0x4015001c
        0x0000441e:    6800        .h      LDR      r0,[r0,#0]
        0x00004420:    9005        ..      STR      r0,[sp,#0x14]
        0x00004422:    a805        ..      ADD      r0,sp,#0x14
        0x00004424:    7840        @x      LDRB     r0,[r0,#1]
        0x00004426:    07c0        ..      LSLS     r0,r0,#31
        0x00004428:    2800        .(      CMP      r0,#0
        0x0000442a:    d072        r.      BEQ      0x4512 ; UART1_IRQHandler + 250
        0x0000442c:    e7ff        ..      B        0x442e ; UART1_IRQHandler + 22
        0x0000442e:    e7ff        ..      B        0x4430 ; UART1_IRQHandler + 24
        0x00004430:    4859        YH      LDR      r0,[pc,#356] ; [0x4598] = 0x4015001c
        0x00004432:    6800        .h      LDR      r0,[r0,#0]
        0x00004434:    07c0        ..      LSLS     r0,r0,#31
        0x00004436:    2800        .(      CMP      r0,#0
        0x00004438:    d06a        j.      BEQ      0x4510 ; UART1_IRQHandler + 248
        0x0000443a:    e7ff        ..      B        0x443c ; UART1_IRQHandler + 36
        0x0000443c:    48d3        .H      LDR      r0,[pc,#844] ; [0x478c] = 0x40150000
        0x0000443e:    6800        .h      LDR      r0,[r0,#0]
        0x00004440:    a904        ..      ADD      r1,sp,#0x10
        0x00004442:    7008        .p      STRB     r0,[r1,#0]
        0x00004444:    9904        ..      LDR      r1,[sp,#0x10]
        0x00004446:    485b        [H      LDR      r0,[pc,#364] ; [0x45b4] = 0x200000ff
        0x00004448:    7803        .x      LDRB     r3,[r0,#0]
        0x0000444a:    4a5b        [J      LDR      r2,[pc,#364] ; [0x45b8] = 0x20000099
        0x0000444c:    54d1        .T      STRB     r1,[r2,r3]
        0x0000444e:    7801        .x      LDRB     r1,[r0,#0]
        0x00004450:    1c49        I.      ADDS     r1,r1,#1
        0x00004452:    7001        .p      STRB     r1,[r0,#0]
        0x00004454:    4a59        YJ      LDR      r2,[pc,#356] ; [0x45bc] = 0x200000fd
        0x00004456:    7811        .x      LDRB     r1,[r2,#0]
        0x00004458:    1c49        I.      ADDS     r1,r1,#1
        0x0000445a:    7011        .p      STRB     r1,[r2,#0]
        0x0000445c:    7800        .x      LDRB     r0,[r0,#0]
        0x0000445e:    2864        d(      CMP      r0,#0x64
        0x00004460:    db04        ..      BLT      0x446c ; UART1_IRQHandler + 84
        0x00004462:    e7ff        ..      B        0x4464 ; UART1_IRQHandler + 76
        0x00004464:    4953        SI      LDR      r1,[pc,#332] ; [0x45b4] = 0x200000ff
        0x00004466:    2000        .       MOVS     r0,#0
        0x00004468:    7008        .p      STRB     r0,[r1,#0]
        0x0000446a:    e7ff        ..      B        0x446c ; UART1_IRQHandler + 84
        0x0000446c:    4852        RH      LDR      r0,[pc,#328] ; [0x45b8] = 0x20000099
        0x0000446e:    7800        .x      LDRB     r0,[r0,#0]
        0x00004470:    2855        U(      CMP      r0,#0x55
        0x00004472:    d008        ..      BEQ      0x4486 ; UART1_IRQHandler + 110
        0x00004474:    e7ff        ..      B        0x4476 ; UART1_IRQHandler + 94
        0x00004476:    494f        OI      LDR      r1,[pc,#316] ; [0x45b4] = 0x200000ff
        0x00004478:    2000        .       MOVS     r0,#0
        0x0000447a:    7008        .p      STRB     r0,[r1,#0]
        0x0000447c:    494f        OI      LDR      r1,[pc,#316] ; [0x45bc] = 0x200000fd
        0x0000447e:    7008        .p      STRB     r0,[r1,#0]
        0x00004480:    494f        OI      LDR      r1,[pc,#316] ; [0x45c0] = 0x200000fe
        0x00004482:    7008        .p      STRB     r0,[r1,#0]
        0x00004484:    e7ff        ..      B        0x4486 ; UART1_IRQHandler + 110
        0x00004486:    484d        MH      LDR      r0,[pc,#308] ; [0x45bc] = 0x200000fd
        0x00004488:    7800        .x      LDRB     r0,[r0,#0]
        0x0000448a:    2864        d(      CMP      r0,#0x64
        0x0000448c:    db3f        ?.      BLT      0x450e ; UART1_IRQHandler + 246
        0x0000448e:    e7ff        ..      B        0x4490 ; UART1_IRQHandler + 120
        0x00004490:    4849        IH      LDR      r0,[pc,#292] ; [0x45b8] = 0x20000099
        0x00004492:    2163        c!      MOVS     r1,#0x63
        0x00004494:    5c40        @\      LDRB     r0,[r0,r1]
        0x00004496:    280a        .(      CMP      r0,#0xa
        0x00004498:    d008        ..      BEQ      0x44ac ; UART1_IRQHandler + 148
        0x0000449a:    e7ff        ..      B        0x449c ; UART1_IRQHandler + 132
        0x0000449c:    4945        EI      LDR      r1,[pc,#276] ; [0x45b4] = 0x200000ff
        0x0000449e:    2000        .       MOVS     r0,#0
        0x000044a0:    7008        .p      STRB     r0,[r1,#0]
        0x000044a2:    4946        FI      LDR      r1,[pc,#280] ; [0x45bc] = 0x200000fd
        0x000044a4:    7008        .p      STRB     r0,[r1,#0]
        0x000044a6:    4946        FI      LDR      r1,[pc,#280] ; [0x45c0] = 0x200000fe
        0x000044a8:    7008        .p      STRB     r0,[r1,#0]
        0x000044aa:    e073        s.      B        0x4594 ; UART1_IRQHandler + 380
        0x000044ac:    a903        ..      ADD      r1,sp,#0xc
        0x000044ae:    2000        .       MOVS     r0,#0
        0x000044b0:    7008        .p      STRB     r0,[r1,#0]
        0x000044b2:    e7ff        ..      B        0x44b4 ; UART1_IRQHandler + 156
        0x000044b4:    a803        ..      ADD      r0,sp,#0xc
        0x000044b6:    7800        .x      LDRB     r0,[r0,#0]
        0x000044b8:    2863        c(      CMP      r0,#0x63
        0x000044ba:    dc1d        ..      BGT      0x44f8 ; UART1_IRQHandler + 224
        0x000044bc:    e7ff        ..      B        0x44be ; UART1_IRQHandler + 166
        0x000044be:    4840        @H      LDR      r0,[pc,#256] ; [0x45c0] = 0x200000fe
        0x000044c0:    7802        .x      LDRB     r2,[r0,#0]
        0x000044c2:    493d        =I      LDR      r1,[pc,#244] ; [0x45b8] = 0x20000099
        0x000044c4:    5c89        .\      LDRB     r1,[r1,r2]
        0x000044c6:    aa03        ..      ADD      r2,sp,#0xc
        0x000044c8:    7813        .x      LDRB     r3,[r2,#0]
        0x000044ca:    4a3f        ?J      LDR      r2,[pc,#252] ; [0x45c8] = 0x200003aa
        0x000044cc:    54d1        .T      STRB     r1,[r2,r3]
        0x000044ce:    4a3b        ;J      LDR      r2,[pc,#236] ; [0x45bc] = 0x200000fd
        0x000044d0:    7811        .x      LDRB     r1,[r2,#0]
        0x000044d2:    1e49        I.      SUBS     r1,r1,#1
        0x000044d4:    7011        .p      STRB     r1,[r2,#0]
        0x000044d6:    7801        .x      LDRB     r1,[r0,#0]
        0x000044d8:    1c49        I.      ADDS     r1,r1,#1
        0x000044da:    7001        .p      STRB     r1,[r0,#0]
        0x000044dc:    7800        .x      LDRB     r0,[r0,#0]
        0x000044de:    2864        d(      CMP      r0,#0x64
        0x000044e0:    db04        ..      BLT      0x44ec ; UART1_IRQHandler + 212
        0x000044e2:    e7ff        ..      B        0x44e4 ; UART1_IRQHandler + 204
        0x000044e4:    4936        6I      LDR      r1,[pc,#216] ; [0x45c0] = 0x200000fe
        0x000044e6:    2000        .       MOVS     r0,#0
        0x000044e8:    7008        .p      STRB     r0,[r1,#0]
        0x000044ea:    e7ff        ..      B        0x44ec ; UART1_IRQHandler + 212
        0x000044ec:    e7ff        ..      B        0x44ee ; UART1_IRQHandler + 214
        0x000044ee:    9803        ..      LDR      r0,[sp,#0xc]
        0x000044f0:    1c40        @.      ADDS     r0,r0,#1
        0x000044f2:    a903        ..      ADD      r1,sp,#0xc
        0x000044f4:    7008        .p      STRB     r0,[r1,#0]
        0x000044f6:    e7dd        ..      B        0x44b4 ; UART1_IRQHandler + 156
        0x000044f8:    492e        .I      LDR      r1,[pc,#184] ; [0x45b4] = 0x200000ff
        0x000044fa:    2000        .       MOVS     r0,#0
        0x000044fc:    7008        .p      STRB     r0,[r1,#0]
        0x000044fe:    492f        /I      LDR      r1,[pc,#188] ; [0x45bc] = 0x200000fd
        0x00004500:    7008        .p      STRB     r0,[r1,#0]
        0x00004502:    492f        /I      LDR      r1,[pc,#188] ; [0x45c0] = 0x200000fe
        0x00004504:    7008        .p      STRB     r0,[r1,#0]
        0x00004506:    492f        /I      LDR      r1,[pc,#188] ; [0x45c4] = 0x20000171
        0x00004508:    2001        .       MOVS     r0,#1
        0x0000450a:    7008        .p      STRB     r0,[r1,#0]
        0x0000450c:    e7ff        ..      B        0x450e ; UART1_IRQHandler + 246
        0x0000450e:    e78f        ..      B        0x4430 ; UART1_IRQHandler + 24
        0x00004510:    e7ff        ..      B        0x4512 ; UART1_IRQHandler + 250
        0x00004512:    4821        !H      LDR      r0,[pc,#132] ; [0x4598] = 0x4015001c
        0x00004514:    6800        .h      LDR      r0,[r0,#0]
        0x00004516:    9005        ..      STR      r0,[sp,#0x14]
        0x00004518:    a805        ..      ADD      r0,sp,#0x14
        0x0000451a:    7840        @x      LDRB     r0,[r0,#1]
        0x0000451c:    0780        ..      LSLS     r0,r0,#30
        0x0000451e:    2800        .(      CMP      r0,#0
        0x00004520:    d538        8.      BPL      0x4594 ; UART1_IRQHandler + 380
        0x00004522:    e7ff        ..      B        0x4524 ; UART1_IRQHandler + 268
        0x00004524:    481d        .H      LDR      r0,[pc,#116] ; [0x459c] = 0x20000164
        0x00004526:    7800        .x      LDRB     r0,[r0,#0]
        0x00004528:    2801        .(      CMP      r0,#1
        0x0000452a:    db21        !.      BLT      0x4570 ; UART1_IRQHandler + 344
        0x0000452c:    e7ff        ..      B        0x452e ; UART1_IRQHandler + 278
        0x0000452e:    e7ff        ..      B        0x4530 ; UART1_IRQHandler + 280
        0x00004530:    481d        .H      LDR      r0,[pc,#116] ; [0x45a8] = 0x40150018
        0x00004532:    6800        .h      LDR      r0,[r0,#0]
        0x00004534:    2101        .!      MOVS     r1,#1
        0x00004536:    05c9        ..      LSLS     r1,r1,#23
        0x00004538:    4008        .@      ANDS     r0,r0,r1
        0x0000453a:    0dc0        ..      LSRS     r0,r0,#23
        0x0000453c:    2800        .(      CMP      r0,#0
        0x0000453e:    d001        ..      BEQ      0x4544 ; UART1_IRQHandler + 300
        0x00004540:    e7ff        ..      B        0x4542 ; UART1_IRQHandler + 298
        0x00004542:    e7f5        ..      B        0x4530 ; UART1_IRQHandler + 280
        0x00004544:    4819        .H      LDR      r0,[pc,#100] ; [0x45ac] = 0x20000165
        0x00004546:    7802        .x      LDRB     r2,[r0,#0]
        0x00004548:    4919        .I      LDR      r1,[pc,#100] ; [0x45b0] = 0x20000100
        0x0000454a:    5c89        .\      LDRB     r1,[r1,r2]
        0x0000454c:    4a8f        .J      LDR      r2,[pc,#572] ; [0x478c] = 0x40150000
        0x0000454e:    6011        .`      STR      r1,[r2,#0]
        0x00004550:    4a12        .J      LDR      r2,[pc,#72] ; [0x459c] = 0x20000164
        0x00004552:    7811        .x      LDRB     r1,[r2,#0]
        0x00004554:    1e49        I.      SUBS     r1,r1,#1
        0x00004556:    7011        .p      STRB     r1,[r2,#0]
        0x00004558:    7801        .x      LDRB     r1,[r0,#0]
        0x0000455a:    1c49        I.      ADDS     r1,r1,#1
        0x0000455c:    7001        .p      STRB     r1,[r0,#0]
        0x0000455e:    7800        .x      LDRB     r0,[r0,#0]
        0x00004560:    2864        d(      CMP      r0,#0x64
        0x00004562:    db04        ..      BLT      0x456e ; UART1_IRQHandler + 342
        0x00004564:    e7ff        ..      B        0x4566 ; UART1_IRQHandler + 334
        0x00004566:    4911        .I      LDR      r1,[pc,#68] ; [0x45ac] = 0x20000165
        0x00004568:    2000        .       MOVS     r0,#0
        0x0000456a:    7008        .p      STRB     r0,[r1,#0]
        0x0000456c:    e7ff        ..      B        0x456e ; UART1_IRQHandler + 342
        0x0000456e:    e010        ..      B        0x4592 ; UART1_IRQHandler + 378
        0x00004570:    490b        .I      LDR      r1,[pc,#44] ; [0x45a0] = 0x2000039e
        0x00004572:    2000        .       MOVS     r0,#0
        0x00004574:    8008        ..      STRH     r0,[r1,#0]
        0x00004576:    490b        .I      LDR      r1,[pc,#44] ; [0x45a4] = 0x200004e4
        0x00004578:    2001        .       MOVS     r0,#1
        0x0000457a:    9002        ..      STR      r0,[sp,#8]
        0x0000457c:    7008        .p      STRB     r0,[r1,#0]
        0x0000457e:    4883        .H      LDR      r0,[pc,#524] ; [0x478c] = 0x40150000
        0x00004580:    9001        ..      STR      r0,[sp,#4]
        0x00004582:    2102        .!      MOVS     r1,#2
        0x00004584:    f000f8bc    ....    BL       UART_DisableInt ; 0x4700
        0x00004588:    9801        ..      LDR      r0,[sp,#4]
        0x0000458a:    9902        ..      LDR      r1,[sp,#8]
        0x0000458c:    f000f8da    ....    BL       UART_EnableInt ; 0x4744
        0x00004590:    e7ff        ..      B        0x4592 ; UART1_IRQHandler + 378
        0x00004592:    e7ff        ..      B        0x4594 ; UART1_IRQHandler + 380
        0x00004594:    b006        ..      ADD      sp,sp,#0x18
        0x00004596:    bd80        ..      POP      {r7,pc}
    $d
    __arm_cp.8_0
        0x00004598:    4015001c    ...@    DCD    1075118108
    __arm_cp.8_1
        0x0000459c:    20000164    d..     DCD    536871268
    __arm_cp.8_2
        0x000045a0:    2000039e    ...     DCD    536871838
    __arm_cp.8_3
        0x000045a4:    200004e4    ...     DCD    536872164
    __arm_cp.8_5
        0x000045a8:    40150018    ...@    DCD    1075118104
    __arm_cp.8_6
        0x000045ac:    20000165    e..     DCD    536871269
    __arm_cp.8_7
        0x000045b0:    20000100    ...     DCD    536871168
    __arm_cp.8_8
        0x000045b4:    200000ff    ...     DCD    536871167
    __arm_cp.8_9
        0x000045b8:    20000099    ...     DCD    536871065
    __arm_cp.8_10
        0x000045bc:    200000fd    ...     DCD    536871165
    __arm_cp.8_11
        0x000045c0:    200000fe    ...     DCD    536871166
    __arm_cp.8_12
        0x000045c4:    20000171    q..     DCD    536871281
    __arm_cp.8_13
        0x000045c8:    200003aa    ...     DCD    536871850
    $t
    UART1_Init
        0x000045cc:    b5b0        ..      PUSH     {r4,r5,r7,lr}
        0x000045ce:    b08a        ..      SUB      sp,sp,#0x28
        0x000045d0:    483e        >H      LDR      r0,[pc,#248] ; [0x46cc] = 0x1518000
        0x000045d2:    9007        ..      STR      r0,[sp,#0x1c]
        0x000045d4:    2000        .       MOVS     r0,#0
        0x000045d6:    9001        ..      STR      r0,[sp,#4]
        0x000045d8:    9005        ..      STR      r0,[sp,#0x14]
        0x000045da:    493d        =I      LDR      r1,[pc,#244] ; [0x46d0] = 0xb71b00
        0x000045dc:    9104        ..      STR      r1,[sp,#0x10]
        0x000045de:    2501        .%      MOVS     r5,#1
        0x000045e0:    03e9        ..      LSLS     r1,r5,#15
        0x000045e2:    9106        ..      STR      r1,[sp,#0x18]
        0x000045e4:    9003        ..      STR      r0,[sp,#0xc]
        0x000045e6:    20e1        .       MOVS     r0,#0xe1
        0x000045e8:    0200        ..      LSLS     r0,r0,#8
        0x000045ea:    9002        ..      STR      r0,[sp,#8]
        0x000045ec:    4839        9H      LDR      r0,[pc,#228] ; [0x46d4] = 0x4000011
        0x000045ee:    f7fefe71    ..q.    BL       SYS_ResetModule ; 0x32d4
        0x000045f2:    9a01        ..      LDR      r2,[sp,#4]
        0x000045f4:    4838        8H      LDR      r0,[pc,#224] ; [0x46d8] = 0x50000214
        0x000045f6:    6800        .h      LDR      r0,[r0,#0]
        0x000045f8:    2103        .!      MOVS     r1,#3
        0x000045fa:    060b        ..      LSLS     r3,r1,#24
        0x000045fc:    4018        .@      ANDS     r0,r0,r3
        0x000045fe:    0e03        ..      LSRS     r3,r0,#24
        0x00004600:    a809        ..      ADD      r0,sp,#0x24
        0x00004602:    7003        .p      STRB     r3,[r0,#0]
        0x00004604:    4b35        5K      LDR      r3,[pc,#212] ; [0x46dc] = 0x50000218
        0x00004606:    681b        .h      LDR      r3,[r3,#0]
        0x00004608:    240f        .$      MOVS     r4,#0xf
        0x0000460a:    0224        $.      LSLS     r4,r4,#8
        0x0000460c:    4023        #@      ANDS     r3,r3,r4
        0x0000460e:    0a1b        ..      LSRS     r3,r3,#8
        0x00004610:    ac08        ..      ADD      r4,sp,#0x20
        0x00004612:    7023        #p      STRB     r3,[r4,#0]
        0x00004614:    4b32        2K      LDR      r3,[pc,#200] ; [0x46e0] = 0x40150030
        0x00004616:    6019        .`      STR      r1,[r3,#0]
        0x00004618:    02ab        ..      LSLS     r3,r5,#10
        0x0000461a:    4c32        2L      LDR      r4,[pc,#200] ; [0x46e4] = 0x4015002c
        0x0000461c:    6023        #`      STR      r3,[r4,#0]
        0x0000461e:    4c32        2L      LDR      r4,[pc,#200] ; [0x46e8] = 0x40150010
        0x00004620:    6823        #h      LDR      r3,[r4,#0]
        0x00004622:    026d        m.      LSLS     r5,r5,#9
        0x00004624:    43ab        .C      BICS     r3,r3,r5
        0x00004626:    6023        #`      STR      r3,[r4,#0]
        0x00004628:    4b30        0K      LDR      r3,[pc,#192] ; [0x46ec] = 0x40150020
        0x0000462a:    601a        .`      STR      r2,[r3,#0]
        0x0000462c:    4a30        0J      LDR      r2,[pc,#192] ; [0x46f0] = 0x4015000c
        0x0000462e:    6011        .`      STR      r1,[r2,#0]
        0x00004630:    4a30        0J      LDR      r2,[pc,#192] ; [0x46f4] = 0x40150008
        0x00004632:    6811        .h      LDR      r1,[r2,#0]
        0x00004634:    4b30        0K      LDR      r3,[pc,#192] ; [0x46f8] = 0xfff0ff0f
        0x00004636:    4019        .@      ANDS     r1,r1,r3
        0x00004638:    6011        .`      STR      r1,[r2,#0]
        0x0000463a:    7800        .x      LDRB     r0,[r0,#0]
        0x0000463c:    2801        .(      CMP      r0,#1
        0x0000463e:    d108        ..      BNE      0x4652 ; UART1_Init + 134
        0x00004640:    e7ff        ..      B        0x4642 ; UART1_Init + 118
        0x00004642:    f7fcfa49    ..I.    BL       CLK_GetPLLClockFreq ; 0xad8
        0x00004646:    a909        ..      ADD      r1,sp,#0x24
        0x00004648:    7809        .x      LDRB     r1,[r1,#0]
        0x0000464a:    008a        ..      LSLS     r2,r1,#2
        0x0000464c:    a904        ..      ADD      r1,sp,#0x10
        0x0000464e:    5088        .P      STR      r0,[r1,r2]
        0x00004650:    e7ff        ..      B        0x4652 ; UART1_Init + 134
        0x00004652:    9802        ..      LDR      r0,[sp,#8]
        0x00004654:    2800        .(      CMP      r0,#0
        0x00004656:    d032        2.      BEQ      0x46be ; UART1_Init + 242
        0x00004658:    e7ff        ..      B        0x465a ; UART1_Init + 142
        0x0000465a:    a809        ..      ADD      r0,sp,#0x24
        0x0000465c:    7800        .x      LDRB     r0,[r0,#0]
        0x0000465e:    0081        ..      LSLS     r1,r0,#2
        0x00004660:    a804        ..      ADD      r0,sp,#0x10
        0x00004662:    5840        @X      LDR      r0,[r0,r1]
        0x00004664:    a908        ..      ADD      r1,sp,#0x20
        0x00004666:    7809        .x      LDRB     r1,[r1,#0]
        0x00004668:    1c49        I.      ADDS     r1,r1,#1
        0x0000466a:    f7fbfd63    ..c.    BL       __aeabi_uidiv ; 0x134
        0x0000466e:    9902        ..      LDR      r1,[sp,#8]
        0x00004670:    084a        J.      LSRS     r2,r1,#1
        0x00004672:    1880        ..      ADDS     r0,r0,r2
        0x00004674:    f7fbfd5e    ..^.    BL       __aeabi_uidiv ; 0x134
        0x00004678:    1e80        ..      SUBS     r0,r0,#2
        0x0000467a:    9003        ..      STR      r0,[sp,#0xc]
        0x0000467c:    a803        ..      ADD      r0,sp,#0xc
        0x0000467e:    8840        @.      LDRH     r0,[r0,#2]
        0x00004680:    2800        .(      CMP      r0,#0
        0x00004682:    d014        ..      BEQ      0x46ae ; UART1_Init + 226
        0x00004684:    e7ff        ..      B        0x4686 ; UART1_Init + 186
        0x00004686:    a809        ..      ADD      r0,sp,#0x24
        0x00004688:    7800        .x      LDRB     r0,[r0,#0]
        0x0000468a:    0081        ..      LSLS     r1,r0,#2
        0x0000468c:    a804        ..      ADD      r0,sp,#0x10
        0x0000468e:    5840        @X      LDR      r0,[r0,r1]
        0x00004690:    a908        ..      ADD      r1,sp,#0x20
        0x00004692:    7809        .x      LDRB     r1,[r1,#0]
        0x00004694:    1c49        I.      ADDS     r1,r1,#1
        0x00004696:    f7fbfd4d    ..M.    BL       __aeabi_uidiv ; 0x134
        0x0000469a:    9902        ..      LDR      r1,[sp,#8]
        0x0000469c:    00ca        ..      LSLS     r2,r1,#3
        0x0000469e:    1880        ..      ADDS     r0,r0,r2
        0x000046a0:    f7fbfd48    ..H.    BL       __aeabi_uidiv ; 0x134
        0x000046a4:    0900        ..      LSRS     r0,r0,#4
        0x000046a6:    1e80        ..      SUBS     r0,r0,#2
        0x000046a8:    4914        .I      LDR      r1,[pc,#80] ; [0x46fc] = 0x40150024
        0x000046aa:    6008        .`      STR      r0,[r1,#0]
        0x000046ac:    e006        ..      B        0x46bc ; UART1_Init + 240
        0x000046ae:    9803        ..      LDR      r0,[sp,#0xc]
        0x000046b0:    2103        .!      MOVS     r1,#3
        0x000046b2:    0709        ..      LSLS     r1,r1,#28
        0x000046b4:    4308        .C      ORRS     r0,r0,r1
        0x000046b6:    4911        .I      LDR      r1,[pc,#68] ; [0x46fc] = 0x40150024
        0x000046b8:    6008        .`      STR      r0,[r1,#0]
        0x000046ba:    e7ff        ..      B        0x46bc ; UART1_Init + 240
        0x000046bc:    e7ff        ..      B        0x46be ; UART1_Init + 242
        0x000046be:    4833        3H      LDR      r0,[pc,#204] ; [0x478c] = 0x40150000
        0x000046c0:    2101        .!      MOVS     r1,#1
        0x000046c2:    f000f83f    ..?.    BL       UART_EnableInt ; 0x4744
        0x000046c6:    b00a        ..      ADD      sp,sp,#0x28
        0x000046c8:    bdb0        ..      POP      {r4,r5,r7,pc}
        0x000046ca:    46c0        .F      MOV      r8,r8
    $d
    __arm_cp.11_0
        0x000046cc:    01518000    ..Q.    DCD    22118400
    __arm_cp.11_1
        0x000046d0:    00b71b00    ....    DCD    12000000
    __arm_cp.11_2
        0x000046d4:    04000011    ....    DCD    67108881
    __arm_cp.11_3
        0x000046d8:    50000214    ...P    DCD    1342177812
    __arm_cp.11_4
        0x000046dc:    50000218    ...P    DCD    1342177816
    __arm_cp.11_5
        0x000046e0:    40150030    0..@    DCD    1075118128
    __arm_cp.11_6
        0x000046e4:    4015002c    ,..@    DCD    1075118124
    __arm_cp.11_7
        0x000046e8:    40150010    ...@    DCD    1075118096
    __arm_cp.11_8
        0x000046ec:    40150020     ..@    DCD    1075118112
    __arm_cp.11_9
        0x000046f0:    4015000c    ...@    DCD    1075118092
    __arm_cp.11_10
        0x000046f4:    40150008    ...@    DCD    1075118088
    __arm_cp.11_11
        0x000046f8:    fff0ff0f    ....    DCD    4293984015
    __arm_cp.11_12
        0x000046fc:    40150024    $..@    DCD    1075118116
    $t
    UART_DisableInt
        0x00004700:    b580        ..      PUSH     {r7,lr}
        0x00004702:    b082        ..      SUB      sp,sp,#8
        0x00004704:    9001        ..      STR      r0,[sp,#4]
        0x00004706:    9100        ..      STR      r1,[sp,#0]
        0x00004708:    9a00        ..      LDR      r2,[sp,#0]
        0x0000470a:    9901        ..      LDR      r1,[sp,#4]
        0x0000470c:    6848        Hh      LDR      r0,[r1,#4]
        0x0000470e:    4390        .C      BICS     r0,r0,r2
        0x00004710:    6048        H`      STR      r0,[r1,#4]
        0x00004712:    9801        ..      LDR      r0,[sp,#4]
        0x00004714:    491c        .I      LDR      r1,[pc,#112] ; [0x4788] = 0x40050000
        0x00004716:    4288        .B      CMP      r0,r1
        0x00004718:    d104        ..      BNE      0x4724 ; UART_DisableInt + 36
        0x0000471a:    e7ff        ..      B        0x471c ; UART_DisableInt + 28
        0x0000471c:    200c        .       MOVS     r0,#0xc
        0x0000471e:    f7fefb27    ..'.    BL       NVIC_DisableIRQ ; 0x2d70
        0x00004722:    e00d        ..      B        0x4740 ; UART_DisableInt + 64
        0x00004724:    9801        ..      LDR      r0,[sp,#4]
        0x00004726:    4919        .I      LDR      r1,[pc,#100] ; [0x478c] = 0x40150000
        0x00004728:    4288        .B      CMP      r0,r1
        0x0000472a:    d104        ..      BNE      0x4736 ; UART_DisableInt + 54
        0x0000472c:    e7ff        ..      B        0x472e ; UART_DisableInt + 46
        0x0000472e:    200d        .       MOVS     r0,#0xd
        0x00004730:    f7fefb1e    ....    BL       NVIC_DisableIRQ ; 0x2d70
        0x00004734:    e003        ..      B        0x473e ; UART_DisableInt + 62
        0x00004736:    200c        .       MOVS     r0,#0xc
        0x00004738:    f7fefb1a    ....    BL       NVIC_DisableIRQ ; 0x2d70
        0x0000473c:    e7ff        ..      B        0x473e ; UART_DisableInt + 62
        0x0000473e:    e7ff        ..      B        0x4740 ; UART_DisableInt + 64
        0x00004740:    b002        ..      ADD      sp,sp,#8
        0x00004742:    bd80        ..      POP      {r7,pc}
    UART_EnableInt
        0x00004744:    b580        ..      PUSH     {r7,lr}
        0x00004746:    b082        ..      SUB      sp,sp,#8
        0x00004748:    9001        ..      STR      r0,[sp,#4]
        0x0000474a:    9100        ..      STR      r1,[sp,#0]
        0x0000474c:    9a00        ..      LDR      r2,[sp,#0]
        0x0000474e:    9901        ..      LDR      r1,[sp,#4]
        0x00004750:    6848        Hh      LDR      r0,[r1,#4]
        0x00004752:    4310        .C      ORRS     r0,r0,r2
        0x00004754:    6048        H`      STR      r0,[r1,#4]
        0x00004756:    9801        ..      LDR      r0,[sp,#4]
        0x00004758:    490b        .I      LDR      r1,[pc,#44] ; [0x4788] = 0x40050000
        0x0000475a:    4288        .B      CMP      r0,r1
        0x0000475c:    d104        ..      BNE      0x4768 ; UART_EnableInt + 36
        0x0000475e:    e7ff        ..      B        0x4760 ; UART_EnableInt + 28
        0x00004760:    200c        .       MOVS     r0,#0xc
        0x00004762:    f7fefb23    ..#.    BL       NVIC_EnableIRQ ; 0x2dac
        0x00004766:    e00d        ..      B        0x4784 ; UART_EnableInt + 64
        0x00004768:    9801        ..      LDR      r0,[sp,#4]
        0x0000476a:    4908        .I      LDR      r1,[pc,#32] ; [0x478c] = 0x40150000
        0x0000476c:    4288        .B      CMP      r0,r1
        0x0000476e:    d104        ..      BNE      0x477a ; UART_EnableInt + 54
        0x00004770:    e7ff        ..      B        0x4772 ; UART_EnableInt + 46
        0x00004772:    200d        .       MOVS     r0,#0xd
        0x00004774:    f7fefb1a    ....    BL       NVIC_EnableIRQ ; 0x2dac
        0x00004778:    e003        ..      B        0x4782 ; UART_EnableInt + 62
        0x0000477a:    200c        .       MOVS     r0,#0xc
        0x0000477c:    f7fefb16    ....    BL       NVIC_EnableIRQ ; 0x2dac
        0x00004780:    e7ff        ..      B        0x4782 ; UART_EnableInt + 62
        0x00004782:    e7ff        ..      B        0x4784 ; UART_EnableInt + 64
        0x00004784:    b002        ..      ADD      sp,sp,#8
        0x00004786:    bd80        ..      POP      {r7,pc}
    $d
    __arm_cp.6_0
        0x00004788:    40050000    ...@    DCD    1074069504
    __arm_cp.6_1
        0x0000478c:    40150000    ...@    DCD    1075118080
    $t
    WDT_EnableInt
        0x00004790:    b081        ..      SUB      sp,sp,#4
        0x00004792:    480c        .H      LDR      r0,[pc,#48] ; [0x47c4] = 0x20000008
        0x00004794:    6800        .h      LDR      r0,[r0,#0]
        0x00004796:    9000        ..      STR      r0,[sp,#0]
        0x00004798:    4975        uI      LDR      r1,[pc,#468] ; [0x4970] = 0x40004000
        0x0000479a:    6808        .h      LDR      r0,[r1,#0]
        0x0000479c:    2240        @"      MOVS     r2,#0x40
        0x0000479e:    4310        .C      ORRS     r0,r0,r2
        0x000047a0:    6008        .`      STR      r0,[r1,#0]
        0x000047a2:    e7ff        ..      B        0x47a4 ; WDT_EnableInt + 20
        0x000047a4:    4872        rH      LDR      r0,[pc,#456] ; [0x4970] = 0x40004000
        0x000047a6:    6800        .h      LDR      r0,[r0,#0]
        0x000047a8:    0040        @.      LSLS     r0,r0,#1
        0x000047aa:    2800        .(      CMP      r0,#0
        0x000047ac:    d508        ..      BPL      0x47c0 ; WDT_EnableInt + 48
        0x000047ae:    e7ff        ..      B        0x47b0 ; WDT_EnableInt + 32
        0x000047b0:    9800        ..      LDR      r0,[sp,#0]
        0x000047b2:    1e40        @.      SUBS     r0,r0,#1
        0x000047b4:    9000        ..      STR      r0,[sp,#0]
        0x000047b6:    2800        .(      CMP      r0,#0
        0x000047b8:    d101        ..      BNE      0x47be ; WDT_EnableInt + 46
        0x000047ba:    e7ff        ..      B        0x47bc ; WDT_EnableInt + 44
        0x000047bc:    e000        ..      B        0x47c0 ; WDT_EnableInt + 48
        0x000047be:    e7f1        ..      B        0x47a4 ; WDT_EnableInt + 20
        0x000047c0:    b001        ..      ADD      sp,sp,#4
        0x000047c2:    4770        pG      BX       lr
    $d
    __arm_cp.14_0
        0x000047c4:    20000008    ...     DCD    536870920
    $t
    WDT_IRQHandler
        0x000047c8:    b5b0        ..      PUSH     {r4,r5,r7,lr}
        0x000047ca:    b088        ..      SUB      sp,sp,#0x20
        0x000047cc:    f7fefda0    ....    BL       SYS_UnlockReg ; 0x3310
        0x000047d0:    f7fcfc8c    ....    BL       FMC_Open ; 0x10ec
        0x000047d4:    4949        II      LDR      r1,[pc,#292] ; [0x48fc] = 0x50004290
        0x000047d6:    6808        .h      LDR      r0,[r1,#0]
        0x000047d8:    2201        ."      MOVS     r2,#1
        0x000047da:    4050        P@      EORS     r0,r0,r2
        0x000047dc:    6008        .`      STR      r0,[r1,#0]
        0x000047de:    4948        HI      LDR      r1,[pc,#288] ; [0x4900] = 0x50004348
        0x000047e0:    6808        .h      LDR      r0,[r1,#0]
        0x000047e2:    4050        P@      EORS     r0,r0,r2
        0x000047e4:    6008        .`      STR      r0,[r1,#0]
        0x000047e6:    4954        TI      LDR      r1,[pc,#336] ; [0x4938] = 0x40004008
        0x000047e8:    4854        TH      LDR      r0,[pc,#336] ; [0x493c] = 0x5aa5
        0x000047ea:    6008        .`      STR      r0,[r1,#0]
        0x000047ec:    4867        gH      LDR      r0,[pc,#412] ; [0x498c] = 0x200004ec
        0x000047ee:    6841        Ah      LDR      r1,[r0,#4]
        0x000047f0:    203f        ?       MOVS     r0,#0x3f
        0x000047f2:    02c0        ..      LSLS     r0,r0,#11
        0x000047f4:    221f        ."      MOVS     r2,#0x1f
        0x000047f6:    0312        ..      LSLS     r2,r2,#12
        0x000047f8:    9205        ..      STR      r2,[sp,#0x14]
        0x000047fa:    4291        .B      CMP      r1,r2
        0x000047fc:    9006        ..      STR      r0,[sp,#0x18]
        0x000047fe:    d001        ..      BEQ      0x4804 ; WDT_IRQHandler + 60
        0x00004800:    9805        ..      LDR      r0,[sp,#0x14]
        0x00004802:    9006        ..      STR      r0,[sp,#0x18]
        0x00004804:    9806        ..      LDR      r0,[sp,#0x18]
        0x00004806:    9007        ..      STR      r0,[sp,#0x1c]
        0x00004808:    4859        YH      LDR      r0,[pc,#356] ; [0x4970] = 0x40004000
        0x0000480a:    6800        .h      LDR      r0,[r0,#0]
        0x0000480c:    0700        ..      LSLS     r0,r0,#28
        0x0000480e:    2800        .(      CMP      r0,#0
        0x00004810:    d504        ..      BPL      0x481c ; WDT_IRQHandler + 84
        0x00004812:    e7ff        ..      B        0x4814 ; WDT_IRQHandler + 76
        0x00004814:    2001        .       MOVS     r0,#1
        0x00004816:    2800        .(      CMP      r0,#0
        0x00004818:    d104        ..      BNE      0x4824 ; WDT_IRQHandler + 92
        0x0000481a:    e06a        j.      B        0x48f2 ; WDT_IRQHandler + 298
        0x0000481c:    2001        .       MOVS     r0,#1
        0x0000481e:    2800        .(      CMP      r0,#0
        0x00004820:    d167        g.      BNE      0x48f2 ; WDT_IRQHandler + 298
        0x00004822:    e7ff        ..      B        0x4824 ; WDT_IRQHandler + 92
        0x00004824:    4952        RI      LDR      r1,[pc,#328] ; [0x4970] = 0x40004000
        0x00004826:    6808        .h      LDR      r0,[r1,#0]
        0x00004828:    2208        ."      MOVS     r2,#8
        0x0000482a:    4310        .C      ORRS     r0,r0,r2
        0x0000482c:    2224        $"      MOVS     r2,#0x24
        0x0000482e:    4390        .C      BICS     r0,r0,r2
        0x00004830:    6008        .`      STR      r0,[r1,#0]
        0x00004832:    4834        4H      LDR      r0,[pc,#208] ; [0x4904] = 0x20000500
        0x00004834:    9004        ..      STR      r0,[sp,#0x10]
        0x00004836:    6801        .h      LDR      r1,[r0,#0]
        0x00004838:    1c49        I.      ADDS     r1,r1,#1
        0x0000483a:    6001        .`      STR      r1,[r0,#0]
        0x0000483c:    6801        .h      LDR      r1,[r0,#0]
        0x0000483e:    0e0a        ..      LSRS     r2,r1,#24
        0x00004840:    4831        1H      LDR      r0,[pc,#196] ; [0x4908] = 0x20000508
        0x00004842:    76c2        .v      STRB     r2,[r0,#0x1b]
        0x00004844:    0c0a        ..      LSRS     r2,r1,#16
        0x00004846:    7682        .v      STRB     r2,[r0,#0x1a]
        0x00004848:    7601        .v      STRB     r1,[r0,#0x18]
        0x0000484a:    0a09        ..      LSRS     r1,r1,#8
        0x0000484c:    7641        Av      STRB     r1,[r0,#0x19]
        0x0000484e:    494f        OI      LDR      r1,[pc,#316] ; [0x498c] = 0x200004ec
        0x00004850:    6849        Ih      LDR      r1,[r1,#4]
        0x00004852:    f000f8ec    ....    BL       WriteMetadata ; 0x4a2e
        0x00004856:    9804        ..      LDR      r0,[sp,#0x10]
        0x00004858:    6800        .h      LDR      r0,[r0,#0]
        0x0000485a:    2805        .(      CMP      r0,#5
        0x0000485c:    d348        H.      BCC      0x48f0 ; WDT_IRQHandler + 296
        0x0000485e:    e7ff        ..      B        0x4860 ; WDT_IRQHandler + 152
        0x00004860:    4929        )I      LDR      r1,[pc,#164] ; [0x4908] = 0x20000508
        0x00004862:    9102        ..      STR      r1,[sp,#8]
        0x00004864:    780b        .x      LDRB     r3,[r1,#0]
        0x00004866:    784a        Jx      LDRB     r2,[r1,#1]
        0x00004868:    0210        ..      LSLS     r0,r2,#8
        0x0000486a:    18c0        ..      ADDS     r0,r0,r3
        0x0000486c:    788b        .x      LDRB     r3,[r1,#2]
        0x0000486e:    041d        ..      LSLS     r5,r3,#16
        0x00004870:    78cc        .x      LDRB     r4,[r1,#3]
        0x00004872:    0623        #.      LSLS     r3,r4,#24
        0x00004874:    195b        [.      ADDS     r3,r3,r5
        0x00004876:    1818        ..      ADDS     r0,r3,r0
        0x00004878:    250a        .%      MOVS     r5,#0xa
        0x0000487a:    43a8        .C      BICS     r0,r0,r5
        0x0000487c:    70cc        .p      STRB     r4,[r1,#3]
        0x0000487e:    0c1b        ..      LSRS     r3,r3,#16
        0x00004880:    708b        .p      STRB     r3,[r1,#2]
        0x00004882:    704a        Jp      STRB     r2,[r1,#1]
        0x00004884:    7008        .p      STRB     r0,[r1,#0]
        0x00004886:    780b        .x      LDRB     r3,[r1,#0]
        0x00004888:    784a        Jx      LDRB     r2,[r1,#1]
        0x0000488a:    0210        ..      LSLS     r0,r2,#8
        0x0000488c:    18c0        ..      ADDS     r0,r0,r3
        0x0000488e:    788b        .x      LDRB     r3,[r1,#2]
        0x00004890:    041d        ..      LSLS     r5,r3,#16
        0x00004892:    78cc        .x      LDRB     r4,[r1,#3]
        0x00004894:    0623        #.      LSLS     r3,r4,#24
        0x00004896:    195b        [.      ADDS     r3,r3,r5
        0x00004898:    1818        ..      ADDS     r0,r3,r0
        0x0000489a:    2501        .%      MOVS     r5,#1
        0x0000489c:    9503        ..      STR      r5,[sp,#0xc]
        0x0000489e:    4328        (C      ORRS     r0,r0,r5
        0x000048a0:    70cc        .p      STRB     r4,[r1,#3]
        0x000048a2:    0c1b        ..      LSRS     r3,r3,#16
        0x000048a4:    708b        .p      STRB     r3,[r1,#2]
        0x000048a6:    704a        Jp      STRB     r2,[r1,#1]
        0x000048a8:    7008        .p      STRB     r0,[r1,#0]
        0x000048aa:    4818        .H      LDR      r0,[pc,#96] ; [0x490c] = 0x20000528
        0x000048ac:    9001        ..      STR      r0,[sp,#4]
        0x000048ae:    7803        .x      LDRB     r3,[r0,#0]
        0x000048b0:    7842        Bx      LDRB     r2,[r0,#1]
        0x000048b2:    0211        ..      LSLS     r1,r2,#8
        0x000048b4:    18c9        ..      ADDS     r1,r1,r3
        0x000048b6:    7883        .x      LDRB     r3,[r0,#2]
        0x000048b8:    041d        ..      LSLS     r5,r3,#16
        0x000048ba:    78c4        .x      LDRB     r4,[r0,#3]
        0x000048bc:    0623        #.      LSLS     r3,r4,#24
        0x000048be:    195b        [.      ADDS     r3,r3,r5
        0x000048c0:    1859        Y.      ADDS     r1,r3,r1
        0x000048c2:    2508        .%      MOVS     r5,#8
        0x000048c4:    4329        )C      ORRS     r1,r1,r5
        0x000048c6:    70c4        .p      STRB     r4,[r0,#3]
        0x000048c8:    0c1b        ..      LSRS     r3,r3,#16
        0x000048ca:    7083        .p      STRB     r3,[r0,#2]
        0x000048cc:    7042        Bp      STRB     r2,[r0,#1]
        0x000048ce:    7001        .p      STRB     r1,[r0,#0]
        0x000048d0:    9907        ..      LDR      r1,[sp,#0x1c]
        0x000048d2:    f000f8ac    ....    BL       WriteMetadata ; 0x4a2e
        0x000048d6:    9802        ..      LDR      r0,[sp,#8]
        0x000048d8:    492c        ,I      LDR      r1,[pc,#176] ; [0x498c] = 0x200004ec
        0x000048da:    6849        Ih      LDR      r1,[r1,#4]
        0x000048dc:    f000f8a7    ....    BL       WriteMetadata ; 0x4a2e
        0x000048e0:    9a03        ..      LDR      r2,[sp,#0xc]
        0x000048e2:    2103        .!      MOVS     r1,#3
        0x000048e4:    2300        .#      MOVS     r3,#0
        0x000048e6:    4618        .F      MOV      r0,r3
        0x000048e8:    f000f82a    ..*.    BL       WDT_Open ; 0x4940
        0x000048ec:    e7ff        ..      B        0x48ee ; WDT_IRQHandler + 294
        0x000048ee:    e7fe        ..      B        0x48ee ; WDT_IRQHandler + 294
        0x000048f0:    e7ff        ..      B        0x48f2 ; WDT_IRQHandler + 298
        0x000048f2:    f7fefce7    ....    BL       SYS_LockReg ; 0x32c4
        0x000048f6:    b008        ..      ADD      sp,sp,#0x20
        0x000048f8:    bdb0        ..      POP      {r4,r5,r7,pc}
        0x000048fa:    46c0        .F      MOV      r8,r8
    $d
    __arm_cp.0_0
        0x000048fc:    50004290    .B.P    DCD    1342194320
    __arm_cp.0_1
        0x00004900:    50004348    HC.P    DCD    1342194504
    __arm_cp.0_6
        0x00004904:    20000500    ...     DCD    536872192
    __arm_cp.0_7
        0x00004908:    20000508    ...     DCD    536872200
    __arm_cp.0_8
        0x0000490c:    20000528    (..     DCD    536872232
    $t
    WDT_Init
        0x00004910:    b580        ..      PUSH     {r7,lr}
        0x00004912:    b082        ..      SUB      sp,sp,#8
        0x00004914:    2003        .       MOVS     r0,#3
        0x00004916:    0240        @.      LSLS     r0,r0,#9
        0x00004918:    2201        ."      MOVS     r2,#1
        0x0000491a:    9201        ..      STR      r2,[sp,#4]
        0x0000491c:    2300        .#      MOVS     r3,#0
        0x0000491e:    4611        .F      MOV      r1,r2
        0x00004920:    f000f80e    ....    BL       WDT_Open ; 0x4940
        0x00004924:    f7ffff34    ..4.    BL       WDT_EnableInt ; 0x4790
        0x00004928:    9801        ..      LDR      r0,[sp,#4]
        0x0000492a:    f7fefa31    ..1.    BL       NVIC_EnableIRQ ; 0x2d90
        0x0000492e:    4902        .I      LDR      r1,[pc,#8] ; [0x4938] = 0x40004008
        0x00004930:    4802        .H      LDR      r0,[pc,#8] ; [0x493c] = 0x5aa5
        0x00004932:    6008        .`      STR      r0,[r1,#0]
        0x00004934:    b002        ..      ADD      sp,sp,#8
        0x00004936:    bd80        ..      POP      {r7,pc}
    $d
    __arm_cp.13_0
        0x00004938:    40004008    .@.@    DCD    1073758216
    __arm_cp.13_1
        0x0000493c:    00005aa5    .Z..    DCD    23205
    $t
    WDT_Open
        0x00004940:    b084        ..      SUB      sp,sp,#0x10
        0x00004942:    9003        ..      STR      r0,[sp,#0xc]
        0x00004944:    9102        ..      STR      r1,[sp,#8]
        0x00004946:    9201        ..      STR      r2,[sp,#4]
        0x00004948:    9300        ..      STR      r3,[sp,#0]
        0x0000494a:    9802        ..      LDR      r0,[sp,#8]
        0x0000494c:    4907        .I      LDR      r1,[pc,#28] ; [0x496c] = 0x40004004
        0x0000494e:    6008        .`      STR      r0,[r1,#0]
        0x00004950:    9803        ..      LDR      r0,[sp,#0xc]
        0x00004952:    9901        ..      LDR      r1,[sp,#4]
        0x00004954:    0049        I.      LSLS     r1,r1,#1
        0x00004956:    4308        .C      ORRS     r0,r0,r1
        0x00004958:    9900        ..      LDR      r1,[sp,#0]
        0x0000495a:    0109        ..      LSLS     r1,r1,#4
        0x0000495c:    4308        .C      ORRS     r0,r0,r1
        0x0000495e:    2180        .!      MOVS     r1,#0x80
        0x00004960:    4308        .C      ORRS     r0,r0,r1
        0x00004962:    4903        .I      LDR      r1,[pc,#12] ; [0x4970] = 0x40004000
        0x00004964:    6008        .`      STR      r0,[r1,#0]
        0x00004966:    b004        ..      ADD      sp,sp,#0x10
        0x00004968:    4770        pG      BX       lr
        0x0000496a:    46c0        .F      MOV      r8,r8
    $d
    __arm_cp.0_0
        0x0000496c:    40004004    .@.@    DCD    1073758212
    __arm_cp.0_1
        0x00004970:    40004000    .@.@    DCD    1073758208
    $t
    WRITE_FW_STATUS_FLAG
        0x00004974:    b580        ..      PUSH     {r7,lr}
        0x00004976:    b082        ..      SUB      sp,sp,#8
        0x00004978:    9001        ..      STR      r0,[sp,#4]
        0x0000497a:    f7fcfbb7    ....    BL       FMC_Open ; 0x10ec
        0x0000497e:    9901        ..      LDR      r1,[sp,#4]
        0x00004980:    4802        .H      LDR      r0,[pc,#8] ; [0x498c] = 0x200004ec
        0x00004982:    6081        .`      STR      r1,[r0,#8]
        0x00004984:    f000f846    ..F.    BL       WriteFWstatus ; 0x4a14
        0x00004988:    b002        ..      ADD      sp,sp,#8
        0x0000498a:    bd80        ..      POP      {r7,pc}
    $d
    __arm_cp.6_0
        0x0000498c:    200004ec    ...     DCD    536872172
    $t
    WaTeRingDeTecT
        0x00004990:    b082        ..      SUB      sp,sp,#8
        0x00004992:    481c        .H      LDR      r0,[pc,#112] ; [0x4a04] = 0x20000384
        0x00004994:    9001        ..      STR      r0,[sp,#4]
        0x00004996:    4669        iF      MOV      r1,sp
        0x00004998:    2000        .       MOVS     r0,#0
        0x0000499a:    7008        .p      STRB     r0,[r1,#0]
        0x0000499c:    e7ff        ..      B        0x499e ; WaTeRingDeTecT + 14
        0x0000499e:    4668        hF      MOV      r0,sp
        0x000049a0:    7800        .x      LDRB     r0,[r0,#0]
        0x000049a2:    2807        .(      CMP      r0,#7
        0x000049a4:    dc0c        ..      BGT      0x49c0 ; WaTeRingDeTecT + 48
        0x000049a6:    e7ff        ..      B        0x49a8 ; WaTeRingDeTecT + 24
        0x000049a8:    4668        hF      MOV      r0,sp
        0x000049aa:    7802        .x      LDRB     r2,[r0,#0]
        0x000049ac:    4818        .H      LDR      r0,[pc,#96] ; [0x4a10] = 0x20000076
        0x000049ae:    5c80        .\      LDRB     r0,[r0,r2]
        0x000049b0:    9901        ..      LDR      r1,[sp,#4]
        0x000049b2:    5488        .T      STRB     r0,[r1,r2]
        0x000049b4:    e7ff        ..      B        0x49b6 ; WaTeRingDeTecT + 38
        0x000049b6:    9800        ..      LDR      r0,[sp,#0]
        0x000049b8:    1c40        @.      ADDS     r0,r0,#1
        0x000049ba:    4669        iF      MOV      r1,sp
        0x000049bc:    7008        .p      STRB     r0,[r1,#0]
        0x000049be:    e7ee        ..      B        0x499e ; WaTeRingDeTecT + 14
        0x000049c0:    4810        .H      LDR      r0,[pc,#64] ; [0x4a04] = 0x20000384
        0x000049c2:    7900        .y      LDRB     r0,[r0,#4]
        0x000049c4:    4910        .I      LDR      r1,[pc,#64] ; [0x4a08] = 0x20000485
        0x000049c6:    7809        .x      LDRB     r1,[r1,#0]
        0x000049c8:    4288        .B      CMP      r0,r1
        0x000049ca:    d119        ..      BNE      0x4a00 ; WaTeRingDeTecT + 112
        0x000049cc:    e7ff        ..      B        0x49ce ; WaTeRingDeTecT + 62
        0x000049ce:    480d        .H      LDR      r0,[pc,#52] ; [0x4a04] = 0x20000384
        0x000049d0:    7940        @y      LDRB     r0,[r0,#5]
        0x000049d2:    490d        .I      LDR      r1,[pc,#52] ; [0x4a08] = 0x20000485
        0x000049d4:    7849        Ix      LDRB     r1,[r1,#1]
        0x000049d6:    4288        .B      CMP      r0,r1
        0x000049d8:    db0d        ..      BLT      0x49f6 ; WaTeRingDeTecT + 102
        0x000049da:    e7ff        ..      B        0x49dc ; WaTeRingDeTecT + 76
        0x000049dc:    4809        .H      LDR      r0,[pc,#36] ; [0x4a04] = 0x20000384
        0x000049de:    7940        @y      LDRB     r0,[r0,#5]
        0x000049e0:    4a09        .J      LDR      r2,[pc,#36] ; [0x4a08] = 0x20000485
        0x000049e2:    7851        Qx      LDRB     r1,[r2,#1]
        0x000049e4:    7892        .x      LDRB     r2,[r2,#2]
        0x000049e6:    1889        ..      ADDS     r1,r1,r2
        0x000049e8:    4288        .B      CMP      r0,r1
        0x000049ea:    dc04        ..      BGT      0x49f6 ; WaTeRingDeTecT + 102
        0x000049ec:    e7ff        ..      B        0x49ee ; WaTeRingDeTecT + 94
        0x000049ee:    4907        .I      LDR      r1,[pc,#28] ; [0x4a0c] = 0x50004300
        0x000049f0:    2000        .       MOVS     r0,#0
        0x000049f2:    6008        .`      STR      r0,[r1,#0]
        0x000049f4:    e003        ..      B        0x49fe ; WaTeRingDeTecT + 110
        0x000049f6:    4905        .I      LDR      r1,[pc,#20] ; [0x4a0c] = 0x50004300
        0x000049f8:    2001        .       MOVS     r0,#1
        0x000049fa:    6008        .`      STR      r0,[r1,#0]
        0x000049fc:    e7ff        ..      B        0x49fe ; WaTeRingDeTecT + 110
        0x000049fe:    e7ff        ..      B        0x4a00 ; WaTeRingDeTecT + 112
        0x00004a00:    b002        ..      ADD      sp,sp,#8
        0x00004a02:    4770        pG      BX       lr
    $d
    __arm_cp.23_0
        0x00004a04:    20000384    ...     DCD    536871812
    __arm_cp.23_1
        0x00004a08:    20000485    ...     DCD    536872069
    __arm_cp.23_2
        0x00004a0c:    50004300    .C.P    DCD    1342194432
    __arm_cp.23_3
        0x00004a10:    20000076    v..     DCD    536871030
    $t
    WriteFWstatus
        0x00004a14:    b580        ..      PUSH     {r7,lr}
        0x00004a16:    b082        ..      SUB      sp,sp,#8
        0x00004a18:    9001        ..      STR      r0,[sp,#4]
        0x00004a1a:    9801        ..      LDR      r0,[sp,#4]
        0x00004a1c:    2300        .#      MOVS     r3,#0
        0x00004a1e:    9300        ..      STR      r3,[sp,#0]
        0x00004a20:    213d        =!      MOVS     r1,#0x3d
        0x00004a22:    02ca        ..      LSLS     r2,r1,#11
        0x00004a24:    2110        .!      MOVS     r1,#0x10
        0x00004a26:    f000f859    ..Y.    BL       WriteToFlash ; 0x4adc
        0x00004a2a:    b002        ..      ADD      sp,sp,#8
        0x00004a2c:    bd80        ..      POP      {r7,pc}
    WriteMetadata
        0x00004a2e:    b580        ..      PUSH     {r7,lr}
        0x00004a30:    b084        ..      SUB      sp,sp,#0x10
        0x00004a32:    9003        ..      STR      r0,[sp,#0xc]
        0x00004a34:    9102        ..      STR      r1,[sp,#8]
        0x00004a36:    9803        ..      LDR      r0,[sp,#0xc]
        0x00004a38:    9a02        ..      LDR      r2,[sp,#8]
        0x00004a3a:    211c        .!      MOVS     r1,#0x1c
        0x00004a3c:    9100        ..      STR      r1,[sp,#0]
        0x00004a3e:    2120         !      MOVS     r1,#0x20
        0x00004a40:    2301        .#      MOVS     r3,#1
        0x00004a42:    f000f84b    ..K.    BL       WriteToFlash ; 0x4adc
        0x00004a46:    b004        ..      ADD      sp,sp,#0x10
        0x00004a48:    bd80        ..      POP      {r7,pc}
        0x00004a4a:    0000        ..      MOVS     r0,r0
    WriteMeterOtaCmdList
        0x00004a4c:    b580        ..      PUSH     {r7,lr}
        0x00004a4e:    b08a        ..      SUB      sp,sp,#0x28
        0x00004a50:    f7fefc78    ..x.    BL       SYS_UnlockReg ; 0x3344
        0x00004a54:    4947        GI      LDR      r1,[pc,#284] ; [0x4b74] = 0x5000c000
        0x00004a56:    6808        .h      LDR      r0,[r1,#0]
        0x00004a58:    2201        ."      MOVS     r2,#1
        0x00004a5a:    4310        .C      ORRS     r0,r0,r2
        0x00004a5c:    6008        .`      STR      r0,[r1,#0]
        0x00004a5e:    e7ff        ..      B        0x4a60 ; WriteMeterOtaCmdList + 20
        0x00004a60:    a805        ..      ADD      r0,sp,#0x14
        0x00004a62:    7800        .x      LDRB     r0,[r0,#0]
        0x00004a64:    2803        .(      CMP      r0,#3
        0x00004a66:    dc14        ..      BGT      0x4a92 ; WriteMeterOtaCmdList + 70
        0x00004a68:    e7ff        ..      B        0x4a6a ; WriteMeterOtaCmdList + 30
        0x00004a6a:    a805        ..      ADD      r0,sp,#0x14
        0x00004a6c:    9004        ..      STR      r0,[sp,#0x10]
        0x00004a6e:    7800        .x      LDRB     r0,[r0,#0]
        0x00004a70:    0080        ..      LSLS     r0,r0,#2
        0x00004a72:    213d        =!      MOVS     r1,#0x3d
        0x00004a74:    02c9        ..      LSLS     r1,r1,#11
        0x00004a76:    1840        @.      ADDS     r0,r0,r1
        0x00004a78:    f7fcfbaa    ....    BL       FMC_Read ; 0x11d0
        0x00004a7c:    9904        ..      LDR      r1,[sp,#0x10]
        0x00004a7e:    7809        .x      LDRB     r1,[r1,#0]
        0x00004a80:    008a        ..      LSLS     r2,r1,#2
        0x00004a82:    a906        ..      ADD      r1,sp,#0x18
        0x00004a84:    5088        .P      STR      r0,[r1,r2]
        0x00004a86:    e7ff        ..      B        0x4a88 ; WriteMeterOtaCmdList + 60
        0x00004a88:    9805        ..      LDR      r0,[sp,#0x14]
        0x00004a8a:    1c40        @.      ADDS     r0,r0,#1
        0x00004a8c:    a905        ..      ADD      r1,sp,#0x14
        0x00004a8e:    7008        .p      STRB     r0,[r1,#0]
        0x00004a90:    e7e6        ..      B        0x4a60 ; WriteMeterOtaCmdList + 20
        0x00004a92:    203d        =       MOVS     r0,#0x3d
        0x00004a94:    02c1        ..      LSLS     r1,r0,#11
        0x00004a96:    9100        ..      STR      r1,[sp,#0]
        0x00004a98:    2000        .       MOVS     r0,#0
        0x00004a9a:    4a0d        .J      LDR      r2,[pc,#52] ; [0x4ad0] = 0x1e810
        0x00004a9c:    9202        ..      STR      r2,[sp,#8]
        0x00004a9e:    ab06        ..      ADD      r3,sp,#0x18
        0x00004aa0:    9301        ..      STR      r3,[sp,#4]
        0x00004aa2:    f7fcfb29    ..).    BL       FMC_Proc ; 0x10f8
        0x00004aa6:    9800        ..      LDR      r0,[sp,#0]
        0x00004aa8:    f7fcfad8    ....    BL       FMC_Erase ; 0x105c
        0x00004aac:    9900        ..      LDR      r1,[sp,#0]
        0x00004aae:    9b01        ..      LDR      r3,[sp,#4]
        0x00004ab0:    9a02        ..      LDR      r2,[sp,#8]
        0x00004ab2:    2021        !       MOVS     r0,#0x21
        0x00004ab4:    9003        ..      STR      r0,[sp,#0xc]
        0x00004ab6:    f7fcfb1f    ....    BL       FMC_Proc ; 0x10f8
        0x00004aba:    9902        ..      LDR      r1,[sp,#8]
        0x00004abc:    9803        ..      LDR      r0,[sp,#0xc]
        0x00004abe:    4b05        .K      LDR      r3,[pc,#20] ; [0x4ad4] = 0x2000030c
        0x00004ac0:    4a05        .J      LDR      r2,[pc,#20] ; [0x4ad8] = 0x1e811
        0x00004ac2:    f7fcfb19    ....    BL       FMC_Proc ; 0x10f8
        0x00004ac6:    f7fefc01    ....    BL       SYS_LockReg ; 0x32cc
        0x00004aca:    b00a        ..      ADD      sp,sp,#0x28
        0x00004acc:    bd80        ..      POP      {r7,pc}
        0x00004ace:    46c0        .F      MOV      r8,r8
    $d
    __arm_cp.19_1
        0x00004ad0:    0001e810    ....    DCD    124944
    __arm_cp.19_2
        0x00004ad4:    2000030c    ...     DCD    536871692
    __arm_cp.19_3
        0x00004ad8:    0001e811    ....    DCD    124945
    $t
    WriteToFlash
        0x00004adc:    b510        ..      PUSH     {r4,lr}
        0x00004ade:    b088        ..      SUB      sp,sp,#0x20
        0x00004ae0:    9c0a        ..      LDR      r4,[sp,#0x28]
        0x00004ae2:    9006        ..      STR      r0,[sp,#0x18]
        0x00004ae4:    9105        ..      STR      r1,[sp,#0x14]
        0x00004ae6:    9204        ..      STR      r2,[sp,#0x10]
        0x00004ae8:    a803        ..      ADD      r0,sp,#0xc
        0x00004aea:    9001        ..      STR      r0,[sp,#4]
        0x00004aec:    7003        .p      STRB     r3,[r0,#0]
        0x00004aee:    f7fcfafd    ....    BL       FMC_Open ; 0x10ec
        0x00004af2:    9801        ..      LDR      r0,[sp,#4]
        0x00004af4:    7800        .x      LDRB     r0,[r0,#0]
        0x00004af6:    07c0        ..      LSLS     r0,r0,#31
        0x00004af8:    2800        .(      CMP      r0,#0
        0x00004afa:    d00b        ..      BEQ      0x4b14 ; WriteToFlash + 56
        0x00004afc:    e7ff        ..      B        0x4afe ; WriteToFlash + 34
        0x00004afe:    9806        ..      LDR      r0,[sp,#0x18]
        0x00004b00:    9905        ..      LDR      r1,[sp,#0x14]
        0x00004b02:    1f09        ..      SUBS     r1,r1,#4
        0x00004b04:    f7fcf99a    ....    BL       CRC32_Calc ; 0xe3c
        0x00004b08:    9002        ..      STR      r0,[sp,#8]
        0x00004b0a:    9802        ..      LDR      r0,[sp,#8]
        0x00004b0c:    9906        ..      LDR      r1,[sp,#0x18]
        0x00004b0e:    9a0a        ..      LDR      r2,[sp,#0x28]
        0x00004b10:    5088        .P      STR      r0,[r1,r2]
        0x00004b12:    e7ff        ..      B        0x4b14 ; WriteToFlash + 56
        0x00004b14:    9904        ..      LDR      r1,[sp,#0x10]
        0x00004b16:    2001        .       MOVS     r0,#1
        0x00004b18:    02c0        ..      LSLS     r0,r0,#11
        0x00004b1a:    180a        ..      ADDS     r2,r1,r0
        0x00004b1c:    2022        "       MOVS     r0,#0x22
        0x00004b1e:    2300        .#      MOVS     r3,#0
        0x00004b20:    f7fcfaea    ....    BL       FMC_Proc ; 0x10f8
        0x00004b24:    2800        .(      CMP      r0,#0
        0x00004b26:    d001        ..      BEQ      0x4b2c ; WriteToFlash + 80
        0x00004b28:    e7ff        ..      B        0x4b2a ; WriteToFlash + 78
        0x00004b2a:    e014        ..      B        0x4b56 ; WriteToFlash + 122
        0x00004b2c:    9904        ..      LDR      r1,[sp,#0x10]
        0x00004b2e:    9805        ..      LDR      r0,[sp,#0x14]
        0x00004b30:    180a        ..      ADDS     r2,r1,r0
        0x00004b32:    9b06        ..      LDR      r3,[sp,#0x18]
        0x00004b34:    2021        !       MOVS     r0,#0x21
        0x00004b36:    f7fcfadf    ....    BL       FMC_Proc ; 0x10f8
        0x00004b3a:    2800        .(      CMP      r0,#0
        0x00004b3c:    d001        ..      BEQ      0x4b42 ; WriteToFlash + 102
        0x00004b3e:    e7ff        ..      B        0x4b40 ; WriteToFlash + 100
        0x00004b40:    e009        ..      B        0x4b56 ; WriteToFlash + 122
        0x00004b42:    490c        .I      LDR      r1,[pc,#48] ; [0x4b74] = 0x5000c000
        0x00004b44:    6808        .h      LDR      r0,[r1,#0]
        0x00004b46:    2201        ."      MOVS     r2,#1
        0x00004b48:    4390        .C      BICS     r0,r0,r2
        0x00004b4a:    6008        .`      STR      r0,[r1,#0]
        0x00004b4c:    f7fcfa80    ....    BL       FMC_Close ; 0x1050
        0x00004b50:    2000        .       MOVS     r0,#0
        0x00004b52:    9007        ..      STR      r0,[sp,#0x1c]
        0x00004b54:    e00a        ..      B        0x4b6c ; WriteToFlash + 144
        0x00004b56:    4907        .I      LDR      r1,[pc,#28] ; [0x4b74] = 0x5000c000
        0x00004b58:    6808        .h      LDR      r0,[r1,#0]
        0x00004b5a:    2201        ."      MOVS     r2,#1
        0x00004b5c:    4390        .C      BICS     r0,r0,r2
        0x00004b5e:    6008        .`      STR      r0,[r1,#0]
        0x00004b60:    f7fcfa76    ..v.    BL       FMC_Close ; 0x1050
        0x00004b64:    2000        .       MOVS     r0,#0
        0x00004b66:    43c0        .C      MVNS     r0,r0
        0x00004b68:    9007        ..      STR      r0,[sp,#0x1c]
        0x00004b6a:    e7ff        ..      B        0x4b6c ; WriteToFlash + 144
        0x00004b6c:    9807        ..      LDR      r0,[sp,#0x1c]
        0x00004b6e:    b008        ..      ADD      sp,sp,#0x20
        0x00004b70:    bd10        ..      POP      {r4,pc}
        0x00004b72:    46c0        .F      MOV      r8,r8
    $d
    __arm_cp.12_0
        0x00004b74:    5000c000    ...P    DCD    1342226432
    $t
    _SendStringToHOST
        0x00004b78:    b580        ..      PUSH     {r7,lr}
        0x00004b7a:    b086        ..      SUB      sp,sp,#0x18
        0x00004b7c:    9101        ..      STR      r1,[sp,#4]
        0x00004b7e:    4601        .F      MOV      r1,r0
        0x00004b80:    9801        ..      LDR      r0,[sp,#4]
        0x00004b82:    9104        ..      STR      r1,[sp,#0x10]
        0x00004b84:    a903        ..      ADD      r1,sp,#0xc
        0x00004b86:    7008        .p      STRB     r0,[r1,#0]
        0x00004b88:    4823        #H      LDR      r0,[pc,#140] ; [0x4c18] = 0x20000164
        0x00004b8a:    7800        .x      LDRB     r0,[r0,#0]
        0x00004b8c:    7809        .x      LDRB     r1,[r1,#0]
        0x00004b8e:    1840        @.      ADDS     r0,r0,r1
        0x00004b90:    2865        e(      CMP      r0,#0x65
        0x00004b92:    db04        ..      BLT      0x4b9e ; _SendStringToHOST + 38
        0x00004b94:    e7ff        ..      B        0x4b96 ; _SendStringToHOST + 30
        0x00004b96:    a905        ..      ADD      r1,sp,#0x14
        0x00004b98:    2001        .       MOVS     r0,#1
        0x00004b9a:    7008        .p      STRB     r0,[r1,#0]
        0x00004b9c:    e038        8.      B        0x4c10 ; _SendStringToHOST + 152
        0x00004b9e:    a902        ..      ADD      r1,sp,#8
        0x00004ba0:    2000        .       MOVS     r0,#0
        0x00004ba2:    7008        .p      STRB     r0,[r1,#0]
        0x00004ba4:    e7ff        ..      B        0x4ba6 ; _SendStringToHOST + 46
        0x00004ba6:    a802        ..      ADD      r0,sp,#8
        0x00004ba8:    7800        .x      LDRB     r0,[r0,#0]
        0x00004baa:    a903        ..      ADD      r1,sp,#0xc
        0x00004bac:    7809        .x      LDRB     r1,[r1,#0]
        0x00004bae:    4288        .B      CMP      r0,r1
        0x00004bb0:    da1d        ..      BGE      0x4bee ; _SendStringToHOST + 118
        0x00004bb2:    e7ff        ..      B        0x4bb4 ; _SendStringToHOST + 60
        0x00004bb4:    9804        ..      LDR      r0,[sp,#0x10]
        0x00004bb6:    a902        ..      ADD      r1,sp,#8
        0x00004bb8:    7809        .x      LDRB     r1,[r1,#0]
        0x00004bba:    5c41        A\      LDRB     r1,[r0,r1]
        0x00004bbc:    4819        .H      LDR      r0,[pc,#100] ; [0x4c24] = 0x20000166
        0x00004bbe:    7803        .x      LDRB     r3,[r0,#0]
        0x00004bc0:    4a19        .J      LDR      r2,[pc,#100] ; [0x4c28] = 0x20000100
        0x00004bc2:    54d1        .T      STRB     r1,[r2,r3]
        0x00004bc4:    7801        .x      LDRB     r1,[r0,#0]
        0x00004bc6:    1c49        I.      ADDS     r1,r1,#1
        0x00004bc8:    7001        .p      STRB     r1,[r0,#0]
        0x00004bca:    7800        .x      LDRB     r0,[r0,#0]
        0x00004bcc:    2864        d(      CMP      r0,#0x64
        0x00004bce:    db04        ..      BLT      0x4bda ; _SendStringToHOST + 98
        0x00004bd0:    e7ff        ..      B        0x4bd2 ; _SendStringToHOST + 90
        0x00004bd2:    4914        .I      LDR      r1,[pc,#80] ; [0x4c24] = 0x20000166
        0x00004bd4:    2000        .       MOVS     r0,#0
        0x00004bd6:    7008        .p      STRB     r0,[r1,#0]
        0x00004bd8:    e7ff        ..      B        0x4bda ; _SendStringToHOST + 98
        0x00004bda:    490f        .I      LDR      r1,[pc,#60] ; [0x4c18] = 0x20000164
        0x00004bdc:    7808        .x      LDRB     r0,[r1,#0]
        0x00004bde:    1c40        @.      ADDS     r0,r0,#1
        0x00004be0:    7008        .p      STRB     r0,[r1,#0]
        0x00004be2:    e7ff        ..      B        0x4be4 ; _SendStringToHOST + 108
        0x00004be4:    9802        ..      LDR      r0,[sp,#8]
        0x00004be6:    1c40        @.      ADDS     r0,r0,#1
        0x00004be8:    a902        ..      ADD      r1,sp,#8
        0x00004bea:    7008        .p      STRB     r0,[r1,#0]
        0x00004bec:    e7db        ..      B        0x4ba6 ; _SendStringToHOST + 46
        0x00004bee:    480b        .H      LDR      r0,[pc,#44] ; [0x4c1c] = 0x40150000
        0x00004bf0:    2102        .!      MOVS     r1,#2
        0x00004bf2:    f7fffda7    ....    BL       UART_EnableInt ; 0x4744
        0x00004bf6:    e7ff        ..      B        0x4bf8 ; _SendStringToHOST + 128
        0x00004bf8:    e7ff        ..      B        0x4bfa ; _SendStringToHOST + 130
        0x00004bfa:    4809        .H      LDR      r0,[pc,#36] ; [0x4c20] = 0x40150018
        0x00004bfc:    6800        .h      LDR      r0,[r0,#0]
        0x00004bfe:    00c0        ..      LSLS     r0,r0,#3
        0x00004c00:    2800        .(      CMP      r0,#0
        0x00004c02:    d401        ..      BMI      0x4c08 ; _SendStringToHOST + 144
        0x00004c04:    e7ff        ..      B        0x4c06 ; _SendStringToHOST + 142
        0x00004c06:    e7f8        ..      B        0x4bfa ; _SendStringToHOST + 130
        0x00004c08:    a905        ..      ADD      r1,sp,#0x14
        0x00004c0a:    2000        .       MOVS     r0,#0
        0x00004c0c:    7008        .p      STRB     r0,[r1,#0]
        0x00004c0e:    e7ff        ..      B        0x4c10 ; _SendStringToHOST + 152
        0x00004c10:    a805        ..      ADD      r0,sp,#0x14
        0x00004c12:    7800        .x      LDRB     r0,[r0,#0]
        0x00004c14:    b006        ..      ADD      sp,sp,#0x18
        0x00004c16:    bd80        ..      POP      {r7,pc}
    $d
    __arm_cp.29_0
        0x00004c18:    20000164    d..     DCD    536871268
    __arm_cp.29_1
        0x00004c1c:    40150000    ...@    DCD    1075118080
    __arm_cp.29_2
        0x00004c20:    40150018    ...@    DCD    1075118104
    __arm_cp.29_3
        0x00004c24:    20000166    f..     DCD    536871270
    __arm_cp.29_4
        0x00004c28:    20000100    ...     DCD    536871168
    $t
    _SendStringToMETER
        0x00004c2c:    b580        ..      PUSH     {r7,lr}
        0x00004c2e:    b086        ..      SUB      sp,sp,#0x18
        0x00004c30:    9101        ..      STR      r1,[sp,#4]
        0x00004c32:    4601        .F      MOV      r1,r0
        0x00004c34:    9801        ..      LDR      r0,[sp,#4]
        0x00004c36:    9104        ..      STR      r1,[sp,#0x10]
        0x00004c38:    a903        ..      ADD      r1,sp,#0xc
        0x00004c3a:    7008        .p      STRB     r0,[r1,#0]
        0x00004c3c:    481f        .H      LDR      r0,[pc,#124] ; [0x4cbc] = 0x200002a6
        0x00004c3e:    7800        .x      LDRB     r0,[r0,#0]
        0x00004c40:    7809        .x      LDRB     r1,[r1,#0]
        0x00004c42:    1840        @.      ADDS     r0,r0,r1
        0x00004c44:    2865        e(      CMP      r0,#0x65
        0x00004c46:    db04        ..      BLT      0x4c52 ; _SendStringToMETER + 38
        0x00004c48:    e7ff        ..      B        0x4c4a ; _SendStringToMETER + 30
        0x00004c4a:    a905        ..      ADD      r1,sp,#0x14
        0x00004c4c:    2001        .       MOVS     r0,#1
        0x00004c4e:    7008        .p      STRB     r0,[r1,#0]
        0x00004c50:    e030        0.      B        0x4cb4 ; _SendStringToMETER + 136
        0x00004c52:    a902        ..      ADD      r1,sp,#8
        0x00004c54:    2000        .       MOVS     r0,#0
        0x00004c56:    7008        .p      STRB     r0,[r1,#0]
        0x00004c58:    e7ff        ..      B        0x4c5a ; _SendStringToMETER + 46
        0x00004c5a:    a802        ..      ADD      r0,sp,#8
        0x00004c5c:    7800        .x      LDRB     r0,[r0,#0]
        0x00004c5e:    a903        ..      ADD      r1,sp,#0xc
        0x00004c60:    7809        .x      LDRB     r1,[r1,#0]
        0x00004c62:    4288        .B      CMP      r0,r1
        0x00004c64:    da1d        ..      BGE      0x4ca2 ; _SendStringToMETER + 118
        0x00004c66:    e7ff        ..      B        0x4c68 ; _SendStringToMETER + 60
        0x00004c68:    9804        ..      LDR      r0,[sp,#0x10]
        0x00004c6a:    a902        ..      ADD      r1,sp,#8
        0x00004c6c:    7809        .x      LDRB     r1,[r1,#0]
        0x00004c6e:    5c41        A\      LDRB     r1,[r0,r1]
        0x00004c70:    4814        .H      LDR      r0,[pc,#80] ; [0x4cc4] = 0x200002a8
        0x00004c72:    7803        .x      LDRB     r3,[r0,#0]
        0x00004c74:    4a14        .J      LDR      r2,[pc,#80] ; [0x4cc8] = 0x20000242
        0x00004c76:    54d1        .T      STRB     r1,[r2,r3]
        0x00004c78:    7801        .x      LDRB     r1,[r0,#0]
        0x00004c7a:    1c49        I.      ADDS     r1,r1,#1
        0x00004c7c:    7001        .p      STRB     r1,[r0,#0]
        0x00004c7e:    7800        .x      LDRB     r0,[r0,#0]
        0x00004c80:    2864        d(      CMP      r0,#0x64
        0x00004c82:    db04        ..      BLT      0x4c8e ; _SendStringToMETER + 98
        0x00004c84:    e7ff        ..      B        0x4c86 ; _SendStringToMETER + 90
        0x00004c86:    490f        .I      LDR      r1,[pc,#60] ; [0x4cc4] = 0x200002a8
        0x00004c88:    2000        .       MOVS     r0,#0
        0x00004c8a:    7008        .p      STRB     r0,[r1,#0]
        0x00004c8c:    e7ff        ..      B        0x4c8e ; _SendStringToMETER + 98
        0x00004c8e:    490b        .I      LDR      r1,[pc,#44] ; [0x4cbc] = 0x200002a6
        0x00004c90:    7808        .x      LDRB     r0,[r1,#0]
        0x00004c92:    1c40        @.      ADDS     r0,r0,#1
        0x00004c94:    7008        .p      STRB     r0,[r1,#0]
        0x00004c96:    e7ff        ..      B        0x4c98 ; _SendStringToMETER + 108
        0x00004c98:    9802        ..      LDR      r0,[sp,#8]
        0x00004c9a:    1c40        @.      ADDS     r0,r0,#1
        0x00004c9c:    a902        ..      ADD      r1,sp,#8
        0x00004c9e:    7008        .p      STRB     r0,[r1,#0]
        0x00004ca0:    e7db        ..      B        0x4c5a ; _SendStringToMETER + 46
        0x00004ca2:    4807        .H      LDR      r0,[pc,#28] ; [0x4cc0] = 0x40050000
        0x00004ca4:    2102        .!      MOVS     r1,#2
        0x00004ca6:    f7fffd4d    ..M.    BL       UART_EnableInt ; 0x4744
        0x00004caa:    e7ff        ..      B        0x4cac ; _SendStringToMETER + 128
        0x00004cac:    a905        ..      ADD      r1,sp,#0x14
        0x00004cae:    2000        .       MOVS     r0,#0
        0x00004cb0:    7008        .p      STRB     r0,[r1,#0]
        0x00004cb2:    e7ff        ..      B        0x4cb4 ; _SendStringToMETER + 136
        0x00004cb4:    a805        ..      ADD      r0,sp,#0x14
        0x00004cb6:    7800        .x      LDRB     r0,[r0,#0]
        0x00004cb8:    b006        ..      ADD      sp,sp,#0x18
        0x00004cba:    bd80        ..      POP      {r7,pc}
    $d
    __arm_cp.23_0
        0x00004cbc:    200002a6    ...     DCD    536871590
    __arm_cp.23_1
        0x00004cc0:    40050000    ...@    DCD    1074069504
    __arm_cp.23_2
        0x00004cc4:    200002a8    ...     DCD    536871592
    __arm_cp.23_3
        0x00004cc8:    20000242    B..     DCD    536871490
    $t
    fputc
        0x00004ccc:    b580        ..      PUSH     {r7,lr}
        0x00004cce:    b082        ..      SUB      sp,sp,#8
        0x00004cd0:    9001        ..      STR      r0,[sp,#4]
        0x00004cd2:    9100        ..      STR      r1,[sp,#0]
        0x00004cd4:    9801        ..      LDR      r0,[sp,#4]
        0x00004cd6:    f7fefb6d    ..m.    BL       SendChar ; 0x33b4
        0x00004cda:    9801        ..      LDR      r0,[sp,#4]
        0x00004cdc:    b002        ..      ADD      sp,sp,#8
        0x00004cde:    bd80        ..      POP      {r7,pc}
    main
        0x00004ce0:    b580        ..      PUSH     {r7,lr}
        0x00004ce2:    b08c        ..      SUB      sp,sp,#0x30
        0x00004ce4:    a90b        ..      ADD      r1,sp,#0x2c
        0x00004ce6:    9105        ..      STR      r1,[sp,#0x14]
        0x00004ce8:    2000        .       MOVS     r0,#0
        0x00004cea:    9009        ..      STR      r0,[sp,#0x24]
        0x00004cec:    6008        .`      STR      r0,[r1,#0]
        0x00004cee:    f7fbfce2    ....    BL       AO2022_Center_1261_init ; 0x6b6
        0x00004cf2:    f7fefb0d    ....    BL       SYS_UnlockReg ; 0x3310
        0x00004cf6:    f7fefa39    ..9.    BL       SYS_Init ; 0x316c
        0x00004cfa:    f7fffe09    ....    BL       WDT_Init ; 0x4910
        0x00004cfe:    f7fcf9f5    ....    BL       FMC_Open ; 0x10ec
        0x00004d02:    f7fcfacb    ....    BL       GPIO_Mode_Init ; 0x129c
        0x00004d06:    f7fef971    ..q.    BL       ReadMyCenterID ; 0x2fec
        0x00004d0a:    9a09        ..      LDR      r2,[sp,#0x24]
        0x00004d0c:    494f        OI      LDR      r1,[pc,#316] ; [0x4e4c] = 0x500042cc
        0x00004d0e:    2001        .       MOVS     r0,#1
        0x00004d10:    9008        ..      STR      r0,[sp,#0x20]
        0x00004d12:    6008        .`      STR      r0,[r1,#0]
        0x00004d14:    494e        NI      LDR      r1,[pc,#312] ; [0x4e50] = 0x50004290
        0x00004d16:    6008        .`      STR      r0,[r1,#0]
        0x00004d18:    494e        NI      LDR      r1,[pc,#312] ; [0x4e54] = 0x50004300
        0x00004d1a:    6008        .`      STR      r0,[r1,#0]
        0x00004d1c:    494e        NI      LDR      r1,[pc,#312] ; [0x4e58] = 0x50004328
        0x00004d1e:    6008        .`      STR      r0,[r1,#0]
        0x00004d20:    494e        NI      LDR      r1,[pc,#312] ; [0x4e5c] = 0x500042dc
        0x00004d22:    600a        .`      STR      r2,[r1,#0]
        0x00004d24:    6008        .`      STR      r0,[r1,#0]
        0x00004d26:    494e        NI      LDR      r1,[pc,#312] ; [0x4e60] = 0x50004348
        0x00004d28:    600a        .`      STR      r2,[r1,#0]
        0x00004d2a:    6008        .`      STR      r0,[r1,#0]
        0x00004d2c:    f7fffaf0    ....    BL       UART0_Init ; 0x4310
        0x00004d30:    f7fffc4c    ..L.    BL       UART1_Init ; 0x45cc
        0x00004d34:    f7fff8d4    ....    BL       SoftI2cMasterInit ; 0x3ee0
        0x00004d38:    9808        ..      LDR      r0,[sp,#0x20]
        0x00004d3a:    494a        JI      LDR      r1,[pc,#296] ; [0x4e64] = 0x200004e3
        0x00004d3c:    9107        ..      STR      r1,[sp,#0x1c]
        0x00004d3e:    7008        .p      STRB     r0,[r1,#0]
        0x00004d40:    f7fef954    ..T.    BL       ReadMyCenterID ; 0x2fec
        0x00004d44:    f7fefcee    ....    BL       SendHost_CenterUpdateSuccsess ; 0x3724
        0x00004d48:    f7fef930    ..0.    BL       ReadMeterOtaCmdList ; 0x2fac
        0x00004d4c:    4846        FH      LDR      r0,[pc,#280] ; [0x4e68] = 0xafc80
        0x00004d4e:    f7fff8e1    ....    BL       SysTick_Config ; 0x3f14
        0x00004d52:    9809        ..      LDR      r0,[sp,#0x24]
        0x00004d54:    43c0        .C      MVNS     r0,r0
        0x00004d56:    9006        ..      STR      r0,[sp,#0x18]
        0x00004d58:    f7fef81a    ....    BL       NVIC_EnableIRQ ; 0x2d90
        0x00004d5c:    f7fefab2    ....    BL       SYS_LockReg ; 0x32c4
        0x00004d60:    9806        ..      LDR      r0,[sp,#0x18]
        0x00004d62:    4942        BI      LDR      r1,[pc,#264] ; [0x4e6c] = 0x2000038c
        0x00004d64:    6008        .`      STR      r0,[r1,#0]
        0x00004d66:    4942        BI      LDR      r1,[pc,#264] ; [0x4e70] = 0x200002b4
        0x00004d68:    6008        .`      STR      r0,[r1,#0]
        0x00004d6a:    4942        BI      LDR      r1,[pc,#264] ; [0x4e74] = 0x20000310
        0x00004d6c:    6008        .`      STR      r0,[r1,#0]
        0x00004d6e:    f7fef93d    ..=.    BL       ReadMyCenterID ; 0x2fec
        0x00004d72:    9907        ..      LDR      r1,[sp,#0x1c]
        0x00004d74:    9808        ..      LDR      r0,[sp,#0x20]
        0x00004d76:    9a09        ..      LDR      r2,[sp,#0x24]
        0x00004d78:    4b3f        ?K      LDR      r3,[pc,#252] ; [0x4e78] = 0x2000039a
        0x00004d7a:    801a        ..      STRH     r2,[r3,#0]
        0x00004d7c:    7008        .p      STRB     r0,[r1,#0]
        0x00004d7e:    f7fcf965    ..e.    BL       DefaultValue ; 0x104c
        0x00004d82:    f7fef933    ..3.    BL       ReadMyCenterID ; 0x2fec
        0x00004d86:    9809        ..      LDR      r0,[sp,#0x24]
        0x00004d88:    493c        <I      LDR      r1,[pc,#240] ; [0x4e7c] = 0x2000037b
        0x00004d8a:    780a        .x      LDRB     r2,[r1,#0]
        0x00004d8c:    493c        <I      LDR      r1,[pc,#240] ; [0x4e80] = 0x57c0
        0x00004d8e:    5c89        .\      LDRB     r1,[r1,r2]
        0x00004d90:    4a3c        <J      LDR      r2,[pc,#240] ; [0x4e84] = 0x200002b8
        0x00004d92:    7011        .p      STRB     r1,[r2,#0]
        0x00004d94:    493c        <I      LDR      r1,[pc,#240] ; [0x4e88] = 0x20000550
        0x00004d96:    6008        .`      STR      r0,[r1,#0]
        0x00004d98:    e7ff        ..      B        0x4d9a ; main + 186
        0x00004d9a:    4937        7I      LDR      r1,[pc,#220] ; [0x4e78] = 0x2000039a
        0x00004d9c:    2000        .       MOVS     r0,#0
        0x00004d9e:    8008        ..      STRH     r0,[r1,#0]
        0x00004da0:    493a        :I      LDR      r1,[pc,#232] ; [0x4e8c] = 0x40004008
        0x00004da2:    483b        ;H      LDR      r0,[pc,#236] ; [0x4e90] = 0x5aa5
        0x00004da4:    6008        .`      STR      r0,[r1,#0]
        0x00004da6:    e7ff        ..      B        0x4da8 ; main + 200
        0x00004da8:    4837        7H      LDR      r0,[pc,#220] ; [0x4e88] = 0x20000550
        0x00004daa:    6800        .h      LDR      r0,[r0,#0]
        0x00004dac:    28fa        .(      CMP      r0,#0xfa
        0x00004dae:    d3f4        ..      BCC      0x4d9a ; main + 186
        0x00004db0:    e7ff        ..      B        0x4db2 ; main + 210
        0x00004db2:    f7fff895    ....    BL       SoftI2cMasterInit ; 0x3ee0
        0x00004db6:    f7fef919    ....    BL       ReadMyCenterID ; 0x2fec
        0x00004dba:    4933        3I      LDR      r1,[pc,#204] ; [0x4e88] = 0x20000550
        0x00004dbc:    2000        .       MOVS     r0,#0
        0x00004dbe:    6008        .`      STR      r0,[r1,#0]
        0x00004dc0:    e7ff        ..      B        0x4dc2 ; main + 226
        0x00004dc2:    492d        -I      LDR      r1,[pc,#180] ; [0x4e78] = 0x2000039a
        0x00004dc4:    2000        .       MOVS     r0,#0
        0x00004dc6:    8008        ..      STRH     r0,[r1,#0]
        0x00004dc8:    4930        0I      LDR      r1,[pc,#192] ; [0x4e8c] = 0x40004008
        0x00004dca:    4831        1H      LDR      r0,[pc,#196] ; [0x4e90] = 0x5aa5
        0x00004dcc:    6008        .`      STR      r0,[r1,#0]
        0x00004dce:    e7ff        ..      B        0x4dd0 ; main + 240
        0x00004dd0:    482d        -H      LDR      r0,[pc,#180] ; [0x4e88] = 0x20000550
        0x00004dd2:    6800        .h      LDR      r0,[r0,#0]
        0x00004dd4:    284b        K(      CMP      r0,#0x4b
        0x00004dd6:    d3f4        ..      BCC      0x4dc2 ; main + 226
        0x00004dd8:    e7ff        ..      B        0x4dda ; main + 250
        0x00004dda:    4927        'I      LDR      r1,[pc,#156] ; [0x4e78] = 0x2000039a
        0x00004ddc:    2000        .       MOVS     r0,#0
        0x00004dde:    9004        ..      STR      r0,[sp,#0x10]
        0x00004de0:    8008        ..      STRH     r0,[r1,#0]
        0x00004de2:    492c        ,I      LDR      r1,[pc,#176] ; [0x4e94] = 0x200004e5
        0x00004de4:    2001        .       MOVS     r0,#1
        0x00004de6:    9003        ..      STR      r0,[sp,#0xc]
        0x00004de8:    7008        .p      STRB     r0,[r1,#0]
        0x00004dea:    f7fef8ff    ....    BL       ReadMyCenterID ; 0x2fec
        0x00004dee:    9903        ..      LDR      r1,[sp,#0xc]
        0x00004df0:    9804        ..      LDR      r0,[sp,#0x10]
        0x00004df2:    4a29        )J      LDR      r2,[pc,#164] ; [0x4e98] = 0x200002b9
        0x00004df4:    7010        .p      STRB     r0,[r2,#0]
        0x00004df6:    4a24        $J      LDR      r2,[pc,#144] ; [0x4e88] = 0x20000550
        0x00004df8:    6010        .`      STR      r0,[r2,#0]
        0x00004dfa:    4a28        (J      LDR      r2,[pc,#160] ; [0x4e9c] = 0x2000030e
        0x00004dfc:    7010        .p      STRB     r0,[r2,#0]
        0x00004dfe:    4a28        (J      LDR      r2,[pc,#160] ; [0x4ea0] = 0x2000037e
        0x00004e00:    7011        .p      STRB     r1,[r2,#0]
        0x00004e02:    4928        (I      LDR      r1,[pc,#160] ; [0x4ea4] = 0x200004e7
        0x00004e04:    7008        .p      STRB     r0,[r1,#0]
        0x00004e06:    f7fef8b3    ....    BL       RaedFlashRTC ; 0x2f70
        0x00004e0a:    e7ff        ..      B        0x4e0c ; main + 300
        0x00004e0c:    491f        .I      LDR      r1,[pc,#124] ; [0x4e8c] = 0x40004008
        0x00004e0e:    4820         H      LDR      r0,[pc,#128] ; [0x4e90] = 0x5aa5
        0x00004e10:    6008        .`      STR      r0,[r1,#0]
        0x00004e12:    f7fef8eb    ....    BL       ReadMyCenterID ; 0x2fec
        0x00004e16:    4918        .I      LDR      r1,[pc,#96] ; [0x4e78] = 0x2000039a
        0x00004e18:    9101        ..      STR      r1,[sp,#4]
        0x00004e1a:    2000        .       MOVS     r0,#0
        0x00004e1c:    9002        ..      STR      r0,[sp,#8]
        0x00004e1e:    8008        ..      STRH     r0,[r1,#0]
        0x00004e20:    f7fcfb84    ....    BL       HostProcess ; 0x152c
        0x00004e24:    f7fdfae0    ....    BL       MeterProcess ; 0x23e8
        0x00004e28:    9901        ..      LDR      r1,[sp,#4]
        0x00004e2a:    9802        ..      LDR      r0,[sp,#8]
        0x00004e2c:    8008        ..      STRH     r0,[r1,#0]
        0x00004e2e:    f7fcfe6f    ..o.    BL       MeterBoardPolling ; 0x1b10
        0x00004e32:    f7fef943    ..C.    BL       RecoverSystemMoniter ; 0x30bc
        0x00004e36:    f7fffdab    ....    BL       WaTeRingDeTecT ; 0x4990
        0x00004e3a:    e7ff        ..      B        0x4e3c ; main + 348
        0x00004e3c:    2001        .       MOVS     r0,#1
        0x00004e3e:    2800        .(      CMP      r0,#0
        0x00004e40:    d1e4        ..      BNE      0x4e0c ; main + 300
        0x00004e42:    e7ff        ..      B        0x4e44 ; main + 356
        0x00004e44:    9805        ..      LDR      r0,[sp,#0x14]
        0x00004e46:    6800        .h      LDR      r0,[r0,#0]
        0x00004e48:    b00c        ..      ADD      sp,sp,#0x30
        0x00004e4a:    bd80        ..      POP      {r7,pc}
    $d
    __arm_cp.19_0
        0x00004e4c:    500042cc    .B.P    DCD    1342194380
    __arm_cp.19_1
        0x00004e50:    50004290    .B.P    DCD    1342194320
    __arm_cp.19_2
        0x00004e54:    50004300    .C.P    DCD    1342194432
    __arm_cp.19_3
        0x00004e58:    50004328    (C.P    DCD    1342194472
    __arm_cp.19_4
        0x00004e5c:    500042dc    .B.P    DCD    1342194396
    __arm_cp.19_5
        0x00004e60:    50004348    HC.P    DCD    1342194504
    __arm_cp.19_6
        0x00004e64:    200004e3    ...     DCD    536872163
    __arm_cp.19_7
        0x00004e68:    000afc80    ....    DCD    720000
    __arm_cp.19_8
        0x00004e6c:    2000038c    ...     DCD    536871820
    __arm_cp.19_9
        0x00004e70:    200002b4    ...     DCD    536871604
    __arm_cp.19_10
        0x00004e74:    20000310    ...     DCD    536871696
    __arm_cp.19_11
        0x00004e78:    2000039a    ...     DCD    536871834
    __arm_cp.19_12
        0x00004e7c:    2000037b    {..     DCD    536871803
    __arm_cp.19_13
        0x00004e80:    000057c0    .W..    DCD    22464
    __arm_cp.19_14
        0x00004e84:    200002b8    ...     DCD    536871608
    __arm_cp.19_15
        0x00004e88:    20000550    P..     DCD    536872272
    __arm_cp.19_16
        0x00004e8c:    40004008    .@.@    DCD    1073758216
    __arm_cp.19_17
        0x00004e90:    00005aa5    .Z..    DCD    23205
    __arm_cp.19_18
        0x00004e94:    200004e5    ...     DCD    536872165
    __arm_cp.19_19
        0x00004e98:    200002b9    ...     DCD    536871609
    __arm_cp.19_20
        0x00004e9c:    2000030e    ...     DCD    536871694
    __arm_cp.19_21
        0x00004ea0:    2000037e    ~..     DCD    536871806
    __arm_cp.19_22
        0x00004ea4:    200004e7    ...     DCD    536872167
    $t
    i.__0printf
    __0printf
    __1printf
    __2printf
    __c89printf
    printf
        0x00004ea8:    b40f        ..      PUSH     {r0-r3}
        0x00004eaa:    b510        ..      PUSH     {r4,lr}
        0x00004eac:    a903        ..      ADD      r1,sp,#0xc
        0x00004eae:    4b04        .K      LDR      r3,[pc,#16] ; [0x4ec0] = 0x4ccd
        0x00004eb0:    4a04        .J      LDR      r2,[pc,#16] ; [0x4ec4] = 0x2000048c
        0x00004eb2:    9802        ..      LDR      r0,[sp,#8]
        0x00004eb4:    f000f8e8    ....    BL       _printf_core ; 0x5088
        0x00004eb8:    bc10        ..      POP      {r4}
        0x00004eba:    bc08        ..      POP      {r3}
        0x00004ebc:    b004        ..      ADD      sp,sp,#0x10
        0x00004ebe:    4718        .G      BX       r3
    $d
        0x00004ec0:    00004ccd    .L..    DCD    19661
        0x00004ec4:    2000048c    ...     DCD    536872076
    $t
    i.__ARM_clz
    __ARM_clz
        0x00004ec8:    2120         !      MOVS     r1,#0x20
        0x00004eca:    0c02        ..      LSRS     r2,r0,#16
        0x00004ecc:    d001        ..      BEQ      0x4ed2 ; __ARM_clz + 10
        0x00004ece:    2110        .!      MOVS     r1,#0x10
        0x00004ed0:    4610        .F      MOV      r0,r2
        0x00004ed2:    0a02        ..      LSRS     r2,r0,#8
        0x00004ed4:    d001        ..      BEQ      0x4eda ; __ARM_clz + 18
        0x00004ed6:    4610        .F      MOV      r0,r2
        0x00004ed8:    3908        .9      SUBS     r1,r1,#8
        0x00004eda:    0902        ..      LSRS     r2,r0,#4
        0x00004edc:    d001        ..      BEQ      0x4ee2 ; __ARM_clz + 26
        0x00004ede:    4610        .F      MOV      r0,r2
        0x00004ee0:    1f09        ..      SUBS     r1,r1,#4
        0x00004ee2:    0882        ..      LSRS     r2,r0,#2
        0x00004ee4:    d001        ..      BEQ      0x4eea ; __ARM_clz + 34
        0x00004ee6:    4610        .F      MOV      r0,r2
        0x00004ee8:    1e89        ..      SUBS     r1,r1,#2
        0x00004eea:    0842        B.      LSRS     r2,r0,#1
        0x00004eec:    d001        ..      BEQ      0x4ef2 ; __ARM_clz + 42
        0x00004eee:    1e88        ..      SUBS     r0,r1,#2
        0x00004ef0:    4770        pG      BX       lr
        0x00004ef2:    1a08        ..      SUBS     r0,r1,r0
        0x00004ef4:    4770        pG      BX       lr
    i.__scatterload_copy
    __scatterload_copy
        0x00004ef6:    e002        ..      B        0x4efe ; __scatterload_copy + 8
        0x00004ef8:    c808        ..      LDM      r0!,{r3}
        0x00004efa:    1f12        ..      SUBS     r2,r2,#4
        0x00004efc:    c108        ..      STM      r1!,{r3}
        0x00004efe:    2a00        .*      CMP      r2,#0
        0x00004f00:    d1fa        ..      BNE      0x4ef8 ; __scatterload_copy + 2
        0x00004f02:    4770        pG      BX       lr
    i.__scatterload_null
    __scatterload_null
        0x00004f04:    4770        pG      BX       lr
    i.__scatterload_zeroinit
    __scatterload_zeroinit
        0x00004f06:    2000        .       MOVS     r0,#0
        0x00004f08:    e001        ..      B        0x4f0e ; __scatterload_zeroinit + 8
        0x00004f0a:    c101        ..      STM      r1!,{r0}
        0x00004f0c:    1f12        ..      SUBS     r2,r2,#4
        0x00004f0e:    2a00        .*      CMP      r2,#0
        0x00004f10:    d1fb        ..      BNE      0x4f0a ; __scatterload_zeroinit + 4
        0x00004f12:    4770        pG      BX       lr
    i._fp_digits
    _fp_digits
        0x00004f14:    b5f0        ..      PUSH     {r4-r7,lr}
        0x00004f16:    b41f        ..      PUSH     {r0-r4}
        0x00004f18:    b086        ..      SUB      sp,sp,#0x18
        0x00004f1a:    9809        ..      LDR      r0,[sp,#0x24]
        0x00004f1c:    9a08        ..      LDR      r2,[sp,#0x20]
        0x00004f1e:    0d03        ..      LSRS     r3,r0,#20
        0x00004f20:    2100        .!      MOVS     r1,#0
        0x00004f22:    4302        .C      ORRS     r2,r2,r0
        0x00004f24:    d014        ..      BEQ      0x4f50 ; _fp_digits + 60
        0x00004f26:    4851        QH      LDR      r0,[pc,#324] ; [0x506c] = 0xfffffc01
        0x00004f28:    4a51        QJ      LDR      r2,[pc,#324] ; [0x5070] = 0x4d10
        0x00004f2a:    1818        ..      ADDS     r0,r3,r0
        0x00004f2c:    4350        PC      MULS     r0,r2,r0
        0x00004f2e:    1405        ..      ASRS     r5,r0,#16
        0x00004f30:    9811        ..      LDR      r0,[sp,#0x44]
        0x00004f32:    2801        .(      CMP      r0,#1
        0x00004f34:    9810        ..      LDR      r0,[sp,#0x40]
        0x00004f36:    d01a        ..      BEQ      0x4f6e ; _fp_digits + 90
        0x00004f38:    1a28        (.      SUBS     r0,r5,r0
        0x00004f3a:    1c40        @.      ADDS     r0,r0,#1
        0x00004f3c:    2600        .&      MOVS     r6,#0
        0x00004f3e:    4f4d        MO      LDR      r7,[pc,#308] ; [0x5074] = 0x40140000
        0x00004f40:    494d        MI      LDR      r1,[pc,#308] ; [0x5078] = 0x3ff00000
        0x00004f42:    9600        ..      STR      r6,[sp,#0]
        0x00004f44:    9101        ..      STR      r1,[sp,#4]
        0x00004f46:    9004        ..      STR      r0,[sp,#0x10]
        0x00004f48:    2800        .(      CMP      r0,#0
        0x00004f4a:    da12        ..      BGE      0x4f72 ; _fp_digits + 94
        0x00004f4c:    4244        DB      RSBS     r4,r0,#0
        0x00004f4e:    e011        ..      B        0x4f74 ; _fp_digits + 96
        0x00004f50:    9811        ..      LDR      r0,[sp,#0x44]
        0x00004f52:    2401        .$      MOVS     r4,#1
        0x00004f54:    a349        I.      ADR      r3,{pc}+0x128 ; 0x507c
        0x00004f56:    2801        .(      CMP      r0,#1
        0x00004f58:    d101        ..      BNE      0x4f5e ; _fp_digits + 74
        0x00004f5a:    9810        ..      LDR      r0,[sp,#0x40]
        0x00004f5c:    43c1        .C      MVNS     r1,r0
        0x00004f5e:    9806        ..      LDR      r0,[sp,#0x18]
        0x00004f60:    9a11        ..      LDR      r2,[sp,#0x44]
        0x00004f62:    6084        .`      STR      r4,[r0,#8]
        0x00004f64:    6003        .`      STR      r3,[r0,#0]
        0x00004f66:    60c2        .`      STR      r2,[r0,#0xc]
        0x00004f68:    6041        A`      STR      r1,[r0,#4]
        0x00004f6a:    b00b        ..      ADD      sp,sp,#0x2c
        0x00004f6c:    bdf0        ..      POP      {r4-r7,pc}
        0x00004f6e:    4240        @B      RSBS     r0,r0,#0
        0x00004f70:    e7e4        ..      B        0x4f3c ; _fp_digits + 40
        0x00004f72:    4604        .F      MOV      r4,r0
        0x00004f74:    0521        !.      LSLS     r1,r4,#20
        0x00004f76:    2000        .       MOVS     r0,#0
        0x00004f78:    4a3f        ?J      LDR      r2,[pc,#252] ; [0x5078] = 0x3ff00000
        0x00004f7a:    1c00        ..      ADDS     r0,r0,#0
        0x00004f7c:    4151        QA      ADCS     r1,r1,r2
        0x00004f7e:    9103        ..      STR      r1,[sp,#0xc]
        0x00004f80:    9002        ..      STR      r0,[sp,#8]
        0x00004f82:    e012        ..      B        0x4faa ; _fp_digits + 150
        0x00004f84:    07e0        ..      LSLS     r0,r4,#31
        0x00004f86:    d007        ..      BEQ      0x4f98 ; _fp_digits + 132
        0x00004f88:    4632        2F      MOV      r2,r6
        0x00004f8a:    463b        ;F      MOV      r3,r7
        0x00004f8c:    9901        ..      LDR      r1,[sp,#4]
        0x00004f8e:    9800        ..      LDR      r0,[sp,#0]
        0x00004f90:    f7fbf9d2    ....    BL       __aeabi_dmul ; 0x338
        0x00004f94:    9101        ..      STR      r1,[sp,#4]
        0x00004f96:    9000        ..      STR      r0,[sp,#0]
        0x00004f98:    4632        2F      MOV      r2,r6
        0x00004f9a:    463b        ;F      MOV      r3,r7
        0x00004f9c:    4610        .F      MOV      r0,r2
        0x00004f9e:    4619        .F      MOV      r1,r3
        0x00004fa0:    f7fbf9ca    ....    BL       __aeabi_dmul ; 0x338
        0x00004fa4:    4606        .F      MOV      r6,r0
        0x00004fa6:    460f        .F      MOV      r7,r1
        0x00004fa8:    1064        d.      ASRS     r4,r4,#1
        0x00004faa:    2c00        .,      CMP      r4,#0
        0x00004fac:    d1ea        ..      BNE      0x4f84 ; _fp_digits + 112
        0x00004fae:    9804        ..      LDR      r0,[sp,#0x10]
        0x00004fb0:    9b03        ..      LDR      r3,[sp,#0xc]
        0x00004fb2:    2800        .(      CMP      r0,#0
        0x00004fb4:    9a02        ..      LDR      r2,[sp,#8]
        0x00004fb6:    9909        ..      LDR      r1,[sp,#0x24]
        0x00004fb8:    9808        ..      LDR      r0,[sp,#0x20]
        0x00004fba:    da06        ..      BGE      0x4fca ; _fp_digits + 182
        0x00004fbc:    f7fbf9bc    ....    BL       __aeabi_dmul ; 0x338
        0x00004fc0:    9b01        ..      LDR      r3,[sp,#4]
        0x00004fc2:    9a00        ..      LDR      r2,[sp,#0]
        0x00004fc4:    f7fbf9b8    ....    BL       __aeabi_dmul ; 0x338
        0x00004fc8:    e005        ..      B        0x4fd6 ; _fp_digits + 194
        0x00004fca:    f7fbfa1d    ....    BL       __aeabi_ddiv ; 0x408
        0x00004fce:    9b01        ..      LDR      r3,[sp,#4]
        0x00004fd0:    9a00        ..      LDR      r2,[sp,#0]
        0x00004fd2:    f7fbfa19    ....    BL       __aeabi_ddiv ; 0x408
        0x00004fd6:    4604        .F      MOV      r4,r0
        0x00004fd8:    460e        .F      MOV      r6,r1
        0x00004fda:    2200        ."      MOVS     r2,#0
        0x00004fdc:    4b28        (K      LDR      r3,[pc,#160] ; [0x5080] = 0x43f00000
        0x00004fde:    f7fbfaab    ....    BL       __aeabi_cdrcmple ; 0x538
        0x00004fe2:    d803        ..      BHI      0x4fec ; _fp_digits + 216
        0x00004fe4:    2000        .       MOVS     r0,#0
        0x00004fe6:    43c0        .C      MVNS     r0,r0
        0x00004fe8:    4601        .F      MOV      r1,r0
        0x00004fea:    e007        ..      B        0x4ffc ; _fp_digits + 232
        0x00004fec:    2200        ."      MOVS     r2,#0
        0x00004fee:    4b25        %K      LDR      r3,[pc,#148] ; [0x5084] = 0x3fe00000
        0x00004ff0:    4620         F      MOV      r0,r4
        0x00004ff2:    4631        1F      MOV      r1,r6
        0x00004ff4:    f7fbf8ee    ....    BL       __aeabi_dadd ; 0x1d4
        0x00004ff8:    f7fbfa7e    ..~.    BL       __aeabi_d2ulz ; 0x4f8
        0x00004ffc:    2410        .$      MOVS     r4,#0x10
        0x00004ffe:    e009        ..      B        0x5014 ; _fp_digits + 256
        0x00005000:    2c00        .,      CMP      r4,#0
        0x00005002:    db0a        ..      BLT      0x501a ; _fp_digits + 262
        0x00005004:    220a        ."      MOVS     r2,#0xa
        0x00005006:    2300        .#      MOVS     r3,#0
        0x00005008:    f7fbf8b3    ....    BL       __aeabi_uldivmod ; 0x172
        0x0000500c:    9b07        ..      LDR      r3,[sp,#0x1c]
        0x0000500e:    3230        02      ADDS     r2,r2,#0x30
        0x00005010:    551a        .U      STRB     r2,[r3,r4]
        0x00005012:    1e64        d.      SUBS     r4,r4,#1
        0x00005014:    4602        .F      MOV      r2,r0
        0x00005016:    430a        .C      ORRS     r2,r2,r1
        0x00005018:    d1f2        ..      BNE      0x5000 ; _fp_digits + 236
        0x0000501a:    2211        ."      MOVS     r2,#0x11
        0x0000501c:    1c64        d.      ADDS     r4,r4,#1
        0x0000501e:    9b07        ..      LDR      r3,[sp,#0x1c]
        0x00005020:    1b12        ..      SUBS     r2,r2,r4
        0x00005022:    191c        ..      ADDS     r4,r3,r4
        0x00005024:    9b11        ..      LDR      r3,[sp,#0x44]
        0x00005026:    2b01        .+      CMP      r3,#1
        0x00005028:    d003        ..      BEQ      0x5032 ; _fp_digits + 286
        0x0000502a:    2301        .#      MOVS     r3,#1
        0x0000502c:    4308        .C      ORRS     r0,r0,r1
        0x0000502e:    d10e        ..      BNE      0x504e ; _fp_digits + 314
        0x00005030:    e00a        ..      B        0x5048 ; _fp_digits + 308
        0x00005032:    4308        .C      ORRS     r0,r0,r1
        0x00005034:    d004        ..      BEQ      0x5040 ; _fp_digits + 300
        0x00005036:    2011        .       MOVS     r0,#0x11
        0x00005038:    9010        ..      STR      r0,[sp,#0x40]
        0x0000503a:    2000        .       MOVS     r0,#0
        0x0000503c:    9011        ..      STR      r0,[sp,#0x44]
        0x0000503e:    e777        w.      B        0x4f30 ; _fp_digits + 28
        0x00005040:    9810        ..      LDR      r0,[sp,#0x40]
        0x00005042:    1a15        ..      SUBS     r5,r2,r0
        0x00005044:    1e6d        m.      SUBS     r5,r5,#1
        0x00005046:    e00b        ..      B        0x5060 ; _fp_digits + 332
        0x00005048:    9810        ..      LDR      r0,[sp,#0x40]
        0x0000504a:    4282        .B      CMP      r2,r0
        0x0000504c:    dd02        ..      BLE      0x5054 ; _fp_digits + 320
        0x0000504e:    2300        .#      MOVS     r3,#0
        0x00005050:    1c6d        m.      ADDS     r5,r5,#1
        0x00005052:    e003        ..      B        0x505c ; _fp_digits + 328
        0x00005054:    4282        .B      CMP      r2,r0
        0x00005056:    da01        ..      BGE      0x505c ; _fp_digits + 328
        0x00005058:    2300        .#      MOVS     r3,#0
        0x0000505a:    1e6d        m.      SUBS     r5,r5,#1
        0x0000505c:    2b00        .+      CMP      r3,#0
        0x0000505e:    d0ee        ..      BEQ      0x503e ; _fp_digits + 298
        0x00005060:    9806        ..      LDR      r0,[sp,#0x18]
        0x00005062:    9911        ..      LDR      r1,[sp,#0x44]
        0x00005064:    6082        .`      STR      r2,[r0,#8]
        0x00005066:    60c1        .`      STR      r1,[r0,#0xc]
        0x00005068:    c030        0.      STM      r0!,{r4,r5}
        0x0000506a:    e77e        ~.      B        0x4f6a ; _fp_digits + 86
    $d
        0x0000506c:    fffffc01    ....    DCD    4294966273
        0x00005070:    00004d10    .M..    DCD    19728
        0x00005074:    40140000    ...@    DCD    1075052544
        0x00005078:    3ff00000    ...?    DCD    1072693248
        0x0000507c:    00000030    0...    DCD    48
        0x00005080:    43f00000    ...C    DCD    1139802112
        0x00005084:    3fe00000    ...?    DCD    1071644672
    $t
    i._printf_core
    _printf_core
        0x00005088:    b5ff        ..      PUSH     {r0-r7,lr}
        0x0000508a:    b097        ..      SUB      sp,sp,#0x5c
        0x0000508c:    4606        .F      MOV      r6,r0
        0x0000508e:    2500        .%      MOVS     r5,#0
        0x00005090:    e218        ..      B        0x54c4 ; _printf_core + 1084
        0x00005092:    2825        %(      CMP      r0,#0x25
        0x00005094:    d177        w.      BNE      0x5186 ; _printf_core + 254
        0x00005096:    2400        .$      MOVS     r4,#0
        0x00005098:    4627        'F      MOV      r7,r4
        0x0000509a:    49fd        .I      LDR      r1,[pc,#1012] ; [0x5490] = 0x12809
        0x0000509c:    9404        ..      STR      r4,[sp,#0x10]
        0x0000509e:    e000        ..      B        0x50a2 ; _printf_core + 26
        0x000050a0:    4304        .C      ORRS     r4,r4,r0
        0x000050a2:    1c76        v.      ADDS     r6,r6,#1
        0x000050a4:    7832        2x      LDRB     r2,[r6,#0]
        0x000050a6:    2001        .       MOVS     r0,#1
        0x000050a8:    3a20         :      SUBS     r2,r2,#0x20
        0x000050aa:    4090        .@      LSLS     r0,r0,r2
        0x000050ac:    4208        .B      TST      r0,r1
        0x000050ae:    d1f7        ..      BNE      0x50a0 ; _printf_core + 24
        0x000050b0:    7830        0x      LDRB     r0,[r6,#0]
        0x000050b2:    282a        *(      CMP      r0,#0x2a
        0x000050b4:    d00e        ..      BEQ      0x50d4 ; _printf_core + 76
        0x000050b6:    2202        ."      MOVS     r2,#2
        0x000050b8:    7830        0x      LDRB     r0,[r6,#0]
        0x000050ba:    4601        .F      MOV      r1,r0
        0x000050bc:    3930        09      SUBS     r1,r1,#0x30
        0x000050be:    2909        .)      CMP      r1,#9
        0x000050c0:    d816        ..      BHI      0x50f0 ; _printf_core + 104
        0x000050c2:    9904        ..      LDR      r1,[sp,#0x10]
        0x000050c4:    230a        .#      MOVS     r3,#0xa
        0x000050c6:    4359        YC      MULS     r1,r3,r1
        0x000050c8:    3930        09      SUBS     r1,r1,#0x30
        0x000050ca:    1840        @.      ADDS     r0,r0,r1
        0x000050cc:    4314        .C      ORRS     r4,r4,r2
        0x000050ce:    1c76        v.      ADDS     r6,r6,#1
        0x000050d0:    9004        ..      STR      r0,[sp,#0x10]
        0x000050d2:    e7f1        ..      B        0x50b8 ; _printf_core + 48
        0x000050d4:    9818        ..      LDR      r0,[sp,#0x60]
        0x000050d6:    c802        ..      LDM      r0!,{r1}
        0x000050d8:    9104        ..      STR      r1,[sp,#0x10]
        0x000050da:    9018        ..      STR      r0,[sp,#0x60]
        0x000050dc:    2900        .)      CMP      r1,#0
        0x000050de:    da04        ..      BGE      0x50ea ; _printf_core + 98
        0x000050e0:    2001        .       MOVS     r0,#1
        0x000050e2:    0340        @.      LSLS     r0,r0,#13
        0x000050e4:    4304        .C      ORRS     r4,r4,r0
        0x000050e6:    4248        HB      RSBS     r0,r1,#0
        0x000050e8:    9004        ..      STR      r0,[sp,#0x10]
        0x000050ea:    2002        .       MOVS     r0,#2
        0x000050ec:    4304        .C      ORRS     r4,r4,r0
        0x000050ee:    1c76        v.      ADDS     r6,r6,#1
        0x000050f0:    7830        0x      LDRB     r0,[r6,#0]
        0x000050f2:    282e        .(      CMP      r0,#0x2e
        0x000050f4:    d114        ..      BNE      0x5120 ; _printf_core + 152
        0x000050f6:    2004        .       MOVS     r0,#4
        0x000050f8:    4304        .C      ORRS     r4,r4,r0
        0x000050fa:    7870        px      LDRB     r0,[r6,#1]
        0x000050fc:    1c76        v.      ADDS     r6,r6,#1
        0x000050fe:    282a        *(      CMP      r0,#0x2a
        0x00005100:    d109        ..      BNE      0x5116 ; _printf_core + 142
        0x00005102:    9818        ..      LDR      r0,[sp,#0x60]
        0x00005104:    1c76        v.      ADDS     r6,r6,#1
        0x00005106:    c880        ..      LDM      r0!,{r7}
        0x00005108:    9018        ..      STR      r0,[sp,#0x60]
        0x0000510a:    e009        ..      B        0x5120 ; _printf_core + 152
        0x0000510c:    210a        .!      MOVS     r1,#0xa
        0x0000510e:    434f        OC      MULS     r7,r1,r7
        0x00005110:    3f30        0?      SUBS     r7,r7,#0x30
        0x00005112:    19c7        ..      ADDS     r7,r0,r7
        0x00005114:    1c76        v.      ADDS     r6,r6,#1
        0x00005116:    7830        0x      LDRB     r0,[r6,#0]
        0x00005118:    4601        .F      MOV      r1,r0
        0x0000511a:    3930        09      SUBS     r1,r1,#0x30
        0x0000511c:    2909        .)      CMP      r1,#9
        0x0000511e:    d9f5        ..      BLS      0x510c ; _printf_core + 132
        0x00005120:    7830        0x      LDRB     r0,[r6,#0]
        0x00005122:    286c        l(      CMP      r0,#0x6c
        0x00005124:    d010        ..      BEQ      0x5148 ; _printf_core + 192
        0x00005126:    dc06        ..      BGT      0x5136 ; _printf_core + 174
        0x00005128:    284c        L(      CMP      r0,#0x4c
        0x0000512a:    d01a        ..      BEQ      0x5162 ; _printf_core + 218
        0x0000512c:    2868        h(      CMP      r0,#0x68
        0x0000512e:    d00e        ..      BEQ      0x514e ; _printf_core + 198
        0x00005130:    286a        j(      CMP      r0,#0x6a
        0x00005132:    d117        ..      BNE      0x5164 ; _printf_core + 220
        0x00005134:    e004        ..      B        0x5140 ; _printf_core + 184
        0x00005136:    2874        t(      CMP      r0,#0x74
        0x00005138:    d013        ..      BEQ      0x5162 ; _printf_core + 218
        0x0000513a:    287a        z(      CMP      r0,#0x7a
        0x0000513c:    d112        ..      BNE      0x5164 ; _printf_core + 220
        0x0000513e:    e010        ..      B        0x5162 ; _printf_core + 218
        0x00005140:    2001        .       MOVS     r0,#1
        0x00005142:    0540        @.      LSLS     r0,r0,#21
        0x00005144:    4304        .C      ORRS     r4,r4,r0
        0x00005146:    e00c        ..      B        0x5162 ; _printf_core + 218
        0x00005148:    2101        .!      MOVS     r1,#1
        0x0000514a:    0509        ..      LSLS     r1,r1,#20
        0x0000514c:    e001        ..      B        0x5152 ; _printf_core + 202
        0x0000514e:    2103        .!      MOVS     r1,#3
        0x00005150:    0509        ..      LSLS     r1,r1,#20
        0x00005152:    430c        .C      ORRS     r4,r4,r1
        0x00005154:    7871        qx      LDRB     r1,[r6,#1]
        0x00005156:    4281        .B      CMP      r1,r0
        0x00005158:    d103        ..      BNE      0x5162 ; _printf_core + 218
        0x0000515a:    2001        .       MOVS     r0,#1
        0x0000515c:    0500        ..      LSLS     r0,r0,#20
        0x0000515e:    1824        $.      ADDS     r4,r4,r0
        0x00005160:    1c76        v.      ADDS     r6,r6,#1
        0x00005162:    1c76        v.      ADDS     r6,r6,#1
        0x00005164:    7830        0x      LDRB     r0,[r6,#0]
        0x00005166:    9011        ..      STR      r0,[sp,#0x44]
        0x00005168:    2866        f(      CMP      r0,#0x66
        0x0000516a:    d00b        ..      BEQ      0x5184 ; _printf_core + 252
        0x0000516c:    dc13        ..      BGT      0x5196 ; _printf_core + 270
        0x0000516e:    2858        X(      CMP      r0,#0x58
        0x00005170:    d07d        }.      BEQ      0x526e ; _printf_core + 486
        0x00005172:    dc09        ..      BGT      0x5188 ; _printf_core + 256
        0x00005174:    2800        .(      CMP      r0,#0
        0x00005176:    d07b        {.      BEQ      0x5270 ; _printf_core + 488
        0x00005178:    2845        E(      CMP      r0,#0x45
        0x0000517a:    d0f6        ..      BEQ      0x516a ; _printf_core + 226
        0x0000517c:    2846        F(      CMP      r0,#0x46
        0x0000517e:    d0f4        ..      BEQ      0x516a ; _printf_core + 226
        0x00005180:    2847        G(      CMP      r0,#0x47
        0x00005182:    d11a        ..      BNE      0x51ba ; _printf_core + 306
        0x00005184:    e1a5        ..      B        0x54d2 ; _printf_core + 1098
        0x00005186:    e018        ..      B        0x51ba ; _printf_core + 306
        0x00005188:    2863        c(      CMP      r0,#0x63
        0x0000518a:    d035        5.      BEQ      0x51f8 ; _printf_core + 368
        0x0000518c:    2864        d(      CMP      r0,#0x64
        0x0000518e:    d070        p.      BEQ      0x5272 ; _printf_core + 490
        0x00005190:    2865        e(      CMP      r0,#0x65
        0x00005192:    d112        ..      BNE      0x51ba ; _printf_core + 306
        0x00005194:    e19d        ..      B        0x54d2 ; _printf_core + 1098
        0x00005196:    2870        p(      CMP      r0,#0x70
        0x00005198:    d06c        l.      BEQ      0x5274 ; _printf_core + 492
        0x0000519a:    dc08        ..      BGT      0x51ae ; _printf_core + 294
        0x0000519c:    2867        g(      CMP      r0,#0x67
        0x0000519e:    d0f1        ..      BEQ      0x5184 ; _printf_core + 252
        0x000051a0:    2869        i(      CMP      r0,#0x69
        0x000051a2:    d07b        {.      BEQ      0x529c ; _printf_core + 532
        0x000051a4:    286e        n(      CMP      r0,#0x6e
        0x000051a6:    d00d        ..      BEQ      0x51c4 ; _printf_core + 316
        0x000051a8:    286f        o(      CMP      r0,#0x6f
        0x000051aa:    d106        ..      BNE      0x51ba ; _printf_core + 306
        0x000051ac:    e0ba        ..      B        0x5324 ; _printf_core + 668
        0x000051ae:    2873        s(      CMP      r0,#0x73
        0x000051b0:    d02e        ..      BEQ      0x5210 ; _printf_core + 392
        0x000051b2:    2875        u(      CMP      r0,#0x75
        0x000051b4:    d071        q.      BEQ      0x529a ; _printf_core + 530
        0x000051b6:    2878        x(      CMP      r0,#0x78
        0x000051b8:    d059        Y.      BEQ      0x526e ; _printf_core + 486
        0x000051ba:    9a1a        ..      LDR      r2,[sp,#0x68]
        0x000051bc:    9919        ..      LDR      r1,[sp,#0x64]
        0x000051be:    4790        .G      BLX      r2
        0x000051c0:    1c6d        m.      ADDS     r5,r5,#1
        0x000051c2:    e17e        ~.      B        0x54c2 ; _printf_core + 1082
        0x000051c4:    0260        `.      LSLS     r0,r4,#9
        0x000051c6:    0f40        @.      LSRS     r0,r0,#29
        0x000051c8:    2802        .(      CMP      r0,#2
        0x000051ca:    d009        ..      BEQ      0x51e0 ; _printf_core + 344
        0x000051cc:    2803        .(      CMP      r0,#3
        0x000051ce:    d00d        ..      BEQ      0x51ec ; _printf_core + 356
        0x000051d0:    2804        .(      CMP      r0,#4
        0x000051d2:    9818        ..      LDR      r0,[sp,#0x60]
        0x000051d4:    6801        .h      LDR      r1,[r0,#0]
        0x000051d6:    d00d        ..      BEQ      0x51f4 ; _printf_core + 364
        0x000051d8:    600d        .`      STR      r5,[r1,#0]
        0x000051da:    1d00        ..      ADDS     r0,r0,#4
        0x000051dc:    9018        ..      STR      r0,[sp,#0x60]
        0x000051de:    e170        p.      B        0x54c2 ; _printf_core + 1082
        0x000051e0:    9818        ..      LDR      r0,[sp,#0x60]
        0x000051e2:    17ea        ..      ASRS     r2,r5,#31
        0x000051e4:    6801        .h      LDR      r1,[r0,#0]
        0x000051e6:    600d        .`      STR      r5,[r1,#0]
        0x000051e8:    604a        J`      STR      r2,[r1,#4]
        0x000051ea:    e7f6        ..      B        0x51da ; _printf_core + 338
        0x000051ec:    9818        ..      LDR      r0,[sp,#0x60]
        0x000051ee:    6801        .h      LDR      r1,[r0,#0]
        0x000051f0:    800d        ..      STRH     r5,[r1,#0]
        0x000051f2:    e7f2        ..      B        0x51da ; _printf_core + 338
        0x000051f4:    700d        .p      STRB     r5,[r1,#0]
        0x000051f6:    e7f0        ..      B        0x51da ; _printf_core + 338
        0x000051f8:    9818        ..      LDR      r0,[sp,#0x60]
        0x000051fa:    466a        jF      MOV      r2,sp
        0x000051fc:    7801        .x      LDRB     r1,[r0,#0]
        0x000051fe:    7211        .r      STRB     r1,[r2,#8]
        0x00005200:    1d00        ..      ADDS     r0,r0,#4
        0x00005202:    9018        ..      STR      r0,[sp,#0x60]
        0x00005204:    2000        .       MOVS     r0,#0
        0x00005206:    7250        Pr      STRB     r0,[r2,#9]
        0x00005208:    a802        ..      ADD      r0,sp,#8
        0x0000520a:    9000        ..      STR      r0,[sp,#0]
        0x0000520c:    2001        .       MOVS     r0,#1
        0x0000520e:    e005        ..      B        0x521c ; _printf_core + 404
        0x00005210:    9818        ..      LDR      r0,[sp,#0x60]
        0x00005212:    c802        ..      LDM      r0!,{r1}
        0x00005214:    9018        ..      STR      r0,[sp,#0x60]
        0x00005216:    2000        .       MOVS     r0,#0
        0x00005218:    9100        ..      STR      r1,[sp,#0]
        0x0000521a:    43c0        .C      MVNS     r0,r0
        0x0000521c:    0761        a.      LSLS     r1,r4,#29
        0x0000521e:    d50d        ..      BPL      0x523c ; _printf_core + 436
        0x00005220:    2100        .!      MOVS     r1,#0
        0x00005222:    e001        ..      B        0x5228 ; _printf_core + 416
        0x00005224:    9901        ..      LDR      r1,[sp,#4]
        0x00005226:    1c49        I.      ADDS     r1,r1,#1
        0x00005228:    9101        ..      STR      r1,[sp,#4]
        0x0000522a:    42b9        .B      CMP      r1,r7
        0x0000522c:    da12        ..      BGE      0x5254 ; _printf_core + 460
        0x0000522e:    4281        .B      CMP      r1,r0
        0x00005230:    dbf8        ..      BLT      0x5224 ; _printf_core + 412
        0x00005232:    9a00        ..      LDR      r2,[sp,#0]
        0x00005234:    5c51        Q\      LDRB     r1,[r2,r1]
        0x00005236:    2900        .)      CMP      r1,#0
        0x00005238:    d1f4        ..      BNE      0x5224 ; _printf_core + 412
        0x0000523a:    e00b        ..      B        0x5254 ; _printf_core + 460
        0x0000523c:    2100        .!      MOVS     r1,#0
        0x0000523e:    e001        ..      B        0x5244 ; _printf_core + 444
        0x00005240:    9901        ..      LDR      r1,[sp,#4]
        0x00005242:    1c49        I.      ADDS     r1,r1,#1
        0x00005244:    9101        ..      STR      r1,[sp,#4]
        0x00005246:    4281        .B      CMP      r1,r0
        0x00005248:    dbfa        ..      BLT      0x5240 ; _printf_core + 440
        0x0000524a:    9a01        ..      LDR      r2,[sp,#4]
        0x0000524c:    9900        ..      LDR      r1,[sp,#0]
        0x0000524e:    5c89        .\      LDRB     r1,[r1,r2]
        0x00005250:    2900        .)      CMP      r1,#0
        0x00005252:    d1f5        ..      BNE      0x5240 ; _printf_core + 440
        0x00005254:    9901        ..      LDR      r1,[sp,#4]
        0x00005256:    9804        ..      LDR      r0,[sp,#0x10]
        0x00005258:    9b1a        ..      LDR      r3,[sp,#0x68]
        0x0000525a:    1a47        G.      SUBS     r7,r0,r1
        0x0000525c:    4621        !F      MOV      r1,r4
        0x0000525e:    4638        8F      MOV      r0,r7
        0x00005260:    9a19        ..      LDR      r2,[sp,#0x64]
        0x00005262:    f000fa97    ....    BL       _printf_pre_padding ; 0x5794
        0x00005266:    9901        ..      LDR      r1,[sp,#4]
        0x00005268:    1940        @.      ADDS     r0,r0,r5
        0x0000526a:    1845        E.      ADDS     r5,r0,r1
        0x0000526c:    e00b        ..      B        0x5286 ; _printf_core + 510
        0x0000526e:    e04f        O.      B        0x5310 ; _printf_core + 648
        0x00005270:    e12c        ,.      B        0x54cc ; _printf_core + 1092
        0x00005272:    e013        ..      B        0x529c ; _printf_core + 532
        0x00005274:    e04e        N.      B        0x5314 ; _printf_core + 652
        0x00005276:    9800        ..      LDR      r0,[sp,#0]
        0x00005278:    9900        ..      LDR      r1,[sp,#0]
        0x0000527a:    7800        .x      LDRB     r0,[r0,#0]
        0x0000527c:    1c49        I.      ADDS     r1,r1,#1
        0x0000527e:    9100        ..      STR      r1,[sp,#0]
        0x00005280:    9a1a        ..      LDR      r2,[sp,#0x68]
        0x00005282:    9919        ..      LDR      r1,[sp,#0x64]
        0x00005284:    4790        .G      BLX      r2
        0x00005286:    9801        ..      LDR      r0,[sp,#4]
        0x00005288:    1e40        @.      SUBS     r0,r0,#1
        0x0000528a:    9001        ..      STR      r0,[sp,#4]
        0x0000528c:    1c40        @.      ADDS     r0,r0,#1
        0x0000528e:    d1f2        ..      BNE      0x5276 ; _printf_core + 494
        0x00005290:    4621        !F      MOV      r1,r4
        0x00005292:    4638        8F      MOV      r0,r7
        0x00005294:    9b1a        ..      LDR      r3,[sp,#0x68]
        0x00005296:    9a19        ..      LDR      r2,[sp,#0x64]
        0x00005298:    e110        ..      B        0x54bc ; _printf_core + 1076
        0x0000529a:    e037        7.      B        0x530c ; _printf_core + 644
        0x0000529c:    200a        .       MOVS     r0,#0xa
        0x0000529e:    2100        .!      MOVS     r1,#0
        0x000052a0:    9000        ..      STR      r0,[sp,#0]
        0x000052a2:    9101        ..      STR      r1,[sp,#4]
        0x000052a4:    0260        `.      LSLS     r0,r4,#9
        0x000052a6:    0f41        A.      LSRS     r1,r0,#29
        0x000052a8:    2902        .)      CMP      r1,#2
        0x000052aa:    d007        ..      BEQ      0x52bc ; _printf_core + 564
        0x000052ac:    9a18        ..      LDR      r2,[sp,#0x60]
        0x000052ae:    ca01        ..      LDM      r2!,{r0}
        0x000052b0:    9218        ..      STR      r2,[sp,#0x60]
        0x000052b2:    17c2        ..      ASRS     r2,r0,#31
        0x000052b4:    4694        .F      MOV      r12,r2
        0x000052b6:    2903        .)      CMP      r1,#3
        0x000052b8:    d008        ..      BEQ      0x52cc ; _printf_core + 580
        0x000052ba:    e00a        ..      B        0x52d2 ; _printf_core + 586
        0x000052bc:    9818        ..      LDR      r0,[sp,#0x60]
        0x000052be:    1dc0        ..      ADDS     r0,r0,#7
        0x000052c0:    08c1        ..      LSRS     r1,r0,#3
        0x000052c2:    00c9        ..      LSLS     r1,r1,#3
        0x000052c4:    c905        ..      LDM      r1!,{r0,r2}
        0x000052c6:    9118        ..      STR      r1,[sp,#0x60]
        0x000052c8:    4694        .F      MOV      r12,r2
        0x000052ca:    e007        ..      B        0x52dc ; _printf_core + 596
        0x000052cc:    b200        ..      SXTH     r0,r0
        0x000052ce:    17c2        ..      ASRS     r2,r0,#31
        0x000052d0:    4694        .F      MOV      r12,r2
        0x000052d2:    2904        .)      CMP      r1,#4
        0x000052d4:    d102        ..      BNE      0x52dc ; _printf_core + 596
        0x000052d6:    b240        @.      SXTB     r0,r0
        0x000052d8:    17c1        ..      ASRS     r1,r0,#31
        0x000052da:    468c        .F      MOV      r12,r1
        0x000052dc:    2200        ."      MOVS     r2,#0
        0x000052de:    4661        aF      MOV      r1,r12
        0x000052e0:    4594        .E      CMP      r12,r2
        0x000052e2:    da06        ..      BGE      0x52f2 ; _printf_core + 618
        0x000052e4:    460a        .F      MOV      r2,r1
        0x000052e6:    2100        .!      MOVS     r1,#0
        0x000052e8:    4240        @B      RSBS     r0,r0,#0
        0x000052ea:    4191        .A      SBCS     r1,r1,r2
        0x000052ec:    468c        .F      MOV      r12,r1
        0x000052ee:    212d        -!      MOVS     r1,#0x2d
        0x000052f0:    e002        ..      B        0x52f8 ; _printf_core + 624
        0x000052f2:    0521        !.      LSLS     r1,r4,#20
        0x000052f4:    d504        ..      BPL      0x5300 ; _printf_core + 632
        0x000052f6:    212b        +!      MOVS     r1,#0x2b
        0x000052f8:    466a        jF      MOV      r2,sp
        0x000052fa:    7311        .s      STRB     r1,[r2,#0xc]
        0x000052fc:    2101        .!      MOVS     r1,#1
        0x000052fe:    e003        ..      B        0x5308 ; _printf_core + 640
        0x00005300:    07e1        ..      LSLS     r1,r4,#31
        0x00005302:    d001        ..      BEQ      0x5308 ; _printf_core + 640
        0x00005304:    2120         !      MOVS     r1,#0x20
        0x00005306:    e7f7        ..      B        0x52f8 ; _printf_core + 624
        0x00005308:    9102        ..      STR      r1,[sp,#8]
        0x0000530a:    e055        U.      B        0x53b8 ; _printf_core + 816
        0x0000530c:    200a        .       MOVS     r0,#0xa
        0x0000530e:    e00a        ..      B        0x5326 ; _printf_core + 670
        0x00005310:    2010        .       MOVS     r0,#0x10
        0x00005312:    e008        ..      B        0x5326 ; _printf_core + 670
        0x00005314:    2010        .       MOVS     r0,#0x10
        0x00005316:    9000        ..      STR      r0,[sp,#0]
        0x00005318:    2100        .!      MOVS     r1,#0
        0x0000531a:    2004        .       MOVS     r0,#4
        0x0000531c:    4304        .C      ORRS     r4,r4,r0
        0x0000531e:    9101        ..      STR      r1,[sp,#4]
        0x00005320:    2708        .'      MOVS     r7,#8
        0x00005322:    e003        ..      B        0x532c ; _printf_core + 676
        0x00005324:    2008        .       MOVS     r0,#8
        0x00005326:    2100        .!      MOVS     r1,#0
        0x00005328:    9101        ..      STR      r1,[sp,#4]
        0x0000532a:    9000        ..      STR      r0,[sp,#0]
        0x0000532c:    0260        `.      LSLS     r0,r4,#9
        0x0000532e:    0f41        A.      LSRS     r1,r0,#29
        0x00005330:    2902        .)      CMP      r1,#2
        0x00005332:    d007        ..      BEQ      0x5344 ; _printf_core + 700
        0x00005334:    9a18        ..      LDR      r2,[sp,#0x60]
        0x00005336:    ca01        ..      LDM      r2!,{r0}
        0x00005338:    9218        ..      STR      r2,[sp,#0x60]
        0x0000533a:    2200        ."      MOVS     r2,#0
        0x0000533c:    4694        .F      MOV      r12,r2
        0x0000533e:    2903        .)      CMP      r1,#3
        0x00005340:    d008        ..      BEQ      0x5354 ; _printf_core + 716
        0x00005342:    e008        ..      B        0x5356 ; _printf_core + 718
        0x00005344:    9818        ..      LDR      r0,[sp,#0x60]
        0x00005346:    1dc0        ..      ADDS     r0,r0,#7
        0x00005348:    08c1        ..      LSRS     r1,r0,#3
        0x0000534a:    00c9        ..      LSLS     r1,r1,#3
        0x0000534c:    c905        ..      LDM      r1!,{r0,r2}
        0x0000534e:    9118        ..      STR      r1,[sp,#0x60]
        0x00005350:    4694        .F      MOV      r12,r2
        0x00005352:    e003        ..      B        0x535c ; _printf_core + 724
        0x00005354:    b280        ..      UXTH     r0,r0
        0x00005356:    2904        .)      CMP      r1,#4
        0x00005358:    d100        ..      BNE      0x535c ; _printf_core + 724
        0x0000535a:    b2c0        ..      UXTB     r0,r0
        0x0000535c:    2100        .!      MOVS     r1,#0
        0x0000535e:    9102        ..      STR      r1,[sp,#8]
        0x00005360:    0721        !.      LSLS     r1,r4,#28
        0x00005362:    d529        ).      BPL      0x53b8 ; _printf_core + 816
        0x00005364:    9911        ..      LDR      r1,[sp,#0x44]
        0x00005366:    2970        p)      CMP      r1,#0x70
        0x00005368:    d006        ..      BEQ      0x5378 ; _printf_core + 752
        0x0000536a:    9a00        ..      LDR      r2,[sp,#0]
        0x0000536c:    2110        .!      MOVS     r1,#0x10
        0x0000536e:    9b01        ..      LDR      r3,[sp,#4]
        0x00005370:    404a        J@      EORS     r2,r2,r1
        0x00005372:    431a        .C      ORRS     r2,r2,r3
        0x00005374:    d005        ..      BEQ      0x5382 ; _printf_core + 762
        0x00005376:    e00e        ..      B        0x5396 ; _printf_core + 782
        0x00005378:    2140        @!      MOVS     r1,#0x40
        0x0000537a:    466a        jF      MOV      r2,sp
        0x0000537c:    7311        .s      STRB     r1,[r2,#0xc]
        0x0000537e:    2101        .!      MOVS     r1,#1
        0x00005380:    e008        ..      B        0x5394 ; _printf_core + 780
        0x00005382:    4661        aF      MOV      r1,r12
        0x00005384:    4301        .C      ORRS     r1,r1,r0
        0x00005386:    d006        ..      BEQ      0x5396 ; _printf_core + 782
        0x00005388:    2130        0!      MOVS     r1,#0x30
        0x0000538a:    466a        jF      MOV      r2,sp
        0x0000538c:    7311        .s      STRB     r1,[r2,#0xc]
        0x0000538e:    9911        ..      LDR      r1,[sp,#0x44]
        0x00005390:    7351        Qs      STRB     r1,[r2,#0xd]
        0x00005392:    2102        .!      MOVS     r1,#2
        0x00005394:    9102        ..      STR      r1,[sp,#8]
        0x00005396:    9a00        ..      LDR      r2,[sp,#0]
        0x00005398:    2108        .!      MOVS     r1,#8
        0x0000539a:    9b01        ..      LDR      r3,[sp,#4]
        0x0000539c:    404a        J@      EORS     r2,r2,r1
        0x0000539e:    431a        .C      ORRS     r2,r2,r3
        0x000053a0:    d10a        ..      BNE      0x53b8 ; _printf_core + 816
        0x000053a2:    4661        aF      MOV      r1,r12
        0x000053a4:    4301        .C      ORRS     r1,r1,r0
        0x000053a6:    d101        ..      BNE      0x53ac ; _printf_core + 804
        0x000053a8:    0761        a.      LSLS     r1,r4,#29
        0x000053aa:    d505        ..      BPL      0x53b8 ; _printf_core + 816
        0x000053ac:    2130        0!      MOVS     r1,#0x30
        0x000053ae:    466a        jF      MOV      r2,sp
        0x000053b0:    7311        .s      STRB     r1,[r2,#0xc]
        0x000053b2:    2101        .!      MOVS     r1,#1
        0x000053b4:    1e7f        ..      SUBS     r7,r7,#1
        0x000053b6:    9102        ..      STR      r1,[sp,#8]
        0x000053b8:    9911        ..      LDR      r1,[sp,#0x44]
        0x000053ba:    2958        X)      CMP      r1,#0x58
        0x000053bc:    d004        ..      BEQ      0x53c8 ; _printf_core + 832
        0x000053be:    a135        5.      ADR      r1,{pc}+0xd6 ; 0x5494
        0x000053c0:    910e        ..      STR      r1,[sp,#0x38]
        0x000053c2:    a90d        ..      ADD      r1,sp,#0x34
        0x000053c4:    910d        ..      STR      r1,[sp,#0x34]
        0x000053c6:    e00d        ..      B        0x53e4 ; _printf_core + 860
        0x000053c8:    a137        7.      ADR      r1,{pc}+0xe0 ; 0x54a8
        0x000053ca:    e7f9        ..      B        0x53c0 ; _printf_core + 824
        0x000053cc:    4661        aF      MOV      r1,r12
        0x000053ce:    9b01        ..      LDR      r3,[sp,#4]
        0x000053d0:    9a00        ..      LDR      r2,[sp,#0]
        0x000053d2:    f7fafece    ....    BL       __aeabi_uldivmod ; 0x172
        0x000053d6:    9b0e        ..      LDR      r3,[sp,#0x38]
        0x000053d8:    468c        .F      MOV      r12,r1
        0x000053da:    5c9b        .\      LDRB     r3,[r3,r2]
        0x000053dc:    9a0d        ..      LDR      r2,[sp,#0x34]
        0x000053de:    1e52        R.      SUBS     r2,r2,#1
        0x000053e0:    920d        ..      STR      r2,[sp,#0x34]
        0x000053e2:    7013        .p      STRB     r3,[r2,#0]
        0x000053e4:    4661        aF      MOV      r1,r12
        0x000053e6:    4301        .C      ORRS     r1,r1,r0
        0x000053e8:    d1f0        ..      BNE      0x53cc ; _printf_core + 836
        0x000053ea:    980d        ..      LDR      r0,[sp,#0x34]
        0x000053ec:    a905        ..      ADD      r1,sp,#0x14
        0x000053ee:    1a08        ..      SUBS     r0,r1,r0
        0x000053f0:    3020         0      ADDS     r0,r0,#0x20
        0x000053f2:    9001        ..      STR      r0,[sp,#4]
        0x000053f4:    0760        `.      LSLS     r0,r4,#29
        0x000053f6:    d503        ..      BPL      0x5400 ; _printf_core + 888
        0x000053f8:    2001        .       MOVS     r0,#1
        0x000053fa:    0400        ..      LSLS     r0,r0,#16
        0x000053fc:    4384        .C      BICS     r4,r4,r0
        0x000053fe:    e000        ..      B        0x5402 ; _printf_core + 890
        0x00005400:    2701        .'      MOVS     r7,#1
        0x00005402:    9801        ..      LDR      r0,[sp,#4]
        0x00005404:    4287        .B      CMP      r7,r0
        0x00005406:    dd01        ..      BLE      0x540c ; _printf_core + 900
        0x00005408:    1a38        8.      SUBS     r0,r7,r0
        0x0000540a:    e000        ..      B        0x540e ; _printf_core + 902
        0x0000540c:    2000        .       MOVS     r0,#0
        0x0000540e:    9901        ..      LDR      r1,[sp,#4]
        0x00005410:    9000        ..      STR      r0,[sp,#0]
        0x00005412:    1841        A.      ADDS     r1,r0,r1
        0x00005414:    9802        ..      LDR      r0,[sp,#8]
        0x00005416:    1809        ..      ADDS     r1,r1,r0
        0x00005418:    9804        ..      LDR      r0,[sp,#0x10]
        0x0000541a:    1a40        @.      SUBS     r0,r0,r1
        0x0000541c:    9004        ..      STR      r0,[sp,#0x10]
        0x0000541e:    03e0        ..      LSLS     r0,r4,#15
        0x00005420:    d406        ..      BMI      0x5430 ; _printf_core + 936
        0x00005422:    4621        !F      MOV      r1,r4
        0x00005424:    9b1a        ..      LDR      r3,[sp,#0x68]
        0x00005426:    9a19        ..      LDR      r2,[sp,#0x64]
        0x00005428:    9804        ..      LDR      r0,[sp,#0x10]
        0x0000542a:    f000f9b3    ....    BL       _printf_pre_padding ; 0x5794
        0x0000542e:    1945        E.      ADDS     r5,r0,r5
        0x00005430:    2700        .'      MOVS     r7,#0
        0x00005432:    e006        ..      B        0x5442 ; _printf_core + 954
        0x00005434:    a803        ..      ADD      r0,sp,#0xc
        0x00005436:    9a1a        ..      LDR      r2,[sp,#0x68]
        0x00005438:    5dc0        .]      LDRB     r0,[r0,r7]
        0x0000543a:    9919        ..      LDR      r1,[sp,#0x64]
        0x0000543c:    4790        .G      BLX      r2
        0x0000543e:    1c6d        m.      ADDS     r5,r5,#1
        0x00005440:    1c7f        ..      ADDS     r7,r7,#1
        0x00005442:    9802        ..      LDR      r0,[sp,#8]
        0x00005444:    4287        .B      CMP      r7,r0
        0x00005446:    dbf5        ..      BLT      0x5434 ; _printf_core + 940
        0x00005448:    03e0        ..      LSLS     r0,r4,#15
        0x0000544a:    d50c        ..      BPL      0x5466 ; _printf_core + 990
        0x0000544c:    4621        !F      MOV      r1,r4
        0x0000544e:    9b1a        ..      LDR      r3,[sp,#0x68]
        0x00005450:    9a19        ..      LDR      r2,[sp,#0x64]
        0x00005452:    9804        ..      LDR      r0,[sp,#0x10]
        0x00005454:    f000f99e    ....    BL       _printf_pre_padding ; 0x5794
        0x00005458:    1945        E.      ADDS     r5,r0,r5
        0x0000545a:    e004        ..      B        0x5466 ; _printf_core + 990
        0x0000545c:    9a1a        ..      LDR      r2,[sp,#0x68]
        0x0000545e:    2030        0       MOVS     r0,#0x30
        0x00005460:    9919        ..      LDR      r1,[sp,#0x64]
        0x00005462:    4790        .G      BLX      r2
        0x00005464:    1c6d        m.      ADDS     r5,r5,#1
        0x00005466:    9900        ..      LDR      r1,[sp,#0]
        0x00005468:    1e48        H.      SUBS     r0,r1,#1
        0x0000546a:    9000        ..      STR      r0,[sp,#0]
        0x0000546c:    2900        .)      CMP      r1,#0
        0x0000546e:    dcf5        ..      BGT      0x545c ; _printf_core + 980
        0x00005470:    e008        ..      B        0x5484 ; _printf_core + 1020
        0x00005472:    980d        ..      LDR      r0,[sp,#0x34]
        0x00005474:    990d        ..      LDR      r1,[sp,#0x34]
        0x00005476:    7800        .x      LDRB     r0,[r0,#0]
        0x00005478:    1c49        I.      ADDS     r1,r1,#1
        0x0000547a:    910d        ..      STR      r1,[sp,#0x34]
        0x0000547c:    9a1a        ..      LDR      r2,[sp,#0x68]
        0x0000547e:    9919        ..      LDR      r1,[sp,#0x64]
        0x00005480:    4790        .G      BLX      r2
        0x00005482:    1c6d        m.      ADDS     r5,r5,#1
        0x00005484:    9901        ..      LDR      r1,[sp,#4]
        0x00005486:    1e48        H.      SUBS     r0,r1,#1
        0x00005488:    9001        ..      STR      r0,[sp,#4]
        0x0000548a:    2900        .)      CMP      r1,#0
        0x0000548c:    dcf1        ..      BGT      0x5472 ; _printf_core + 1002
        0x0000548e:    e163        c.      B        0x5758 ; _printf_core + 1744
    $d
        0x00005490:    00012809    .(..    DCD    75785
        0x00005494:    33323130    0123    DCD    858927408
        0x00005498:    37363534    4567    DCD    926299444
        0x0000549c:    62613938    89ab    DCD    1650538808
        0x000054a0:    66656463    cdef    DCD    1717920867
        0x000054a4:    00000000    ....    DCD    0
        0x000054a8:    33323130    0123    DCD    858927408
        0x000054ac:    37363534    4567    DCD    926299444
        0x000054b0:    42413938    89AB    DCD    1111570744
        0x000054b4:    46454443    CDEF    DCD    1178944579
        0x000054b8:    00000000    ....    DCD    0
    $t
        0x000054bc:    f000f95a    ..Z.    BL       _printf_post_padding ; 0x5774
        0x000054c0:    1945        E.      ADDS     r5,r0,r5
        0x000054c2:    1c76        v.      ADDS     r6,r6,#1
        0x000054c4:    7830        0x      LDRB     r0,[r6,#0]
        0x000054c6:    2800        .(      CMP      r0,#0
        0x000054c8:    d000        ..      BEQ      0x54cc ; _printf_core + 1092
        0x000054ca:    e5e2        ..      B        0x5092 ; _printf_core + 10
        0x000054cc:    4628        (F      MOV      r0,r5
        0x000054ce:    b01b        ..      ADD      sp,sp,#0x6c
        0x000054d0:    bdf0        ..      POP      {r4-r7,pc}
        0x000054d2:    0760        `.      LSLS     r0,r4,#29
        0x000054d4:    d400        ..      BMI      0x54d8 ; _printf_core + 1104
        0x000054d6:    2706        .'      MOVS     r7,#6
        0x000054d8:    9818        ..      LDR      r0,[sp,#0x60]
        0x000054da:    1dc0        ..      ADDS     r0,r0,#7
        0x000054dc:    08c1        ..      LSRS     r1,r0,#3
        0x000054de:    00c9        ..      LSLS     r1,r1,#3
        0x000054e0:    6848        Hh      LDR      r0,[r1,#4]
        0x000054e2:    680a        .h      LDR      r2,[r1,#0]
        0x000054e4:    3108        .1      ADDS     r1,r1,#8
        0x000054e6:    0fc3        ..      LSRS     r3,r0,#31
        0x000054e8:    07db        ..      LSLS     r3,r3,#31
        0x000054ea:    9118        ..      STR      r1,[sp,#0x60]
        0x000054ec:    0019        ..      MOVS     r1,r3
        0x000054ee:    d001        ..      BEQ      0x54f4 ; _printf_core + 1132
        0x000054f0:    a19c        ..      ADR      r1,{pc}+0x274 ; 0x5764
        0x000054f2:    e008        ..      B        0x5506 ; _printf_core + 1150
        0x000054f4:    0521        !.      LSLS     r1,r4,#20
        0x000054f6:    d501        ..      BPL      0x54fc ; _printf_core + 1140
        0x000054f8:    a19b        ..      ADR      r1,{pc}+0x270 ; 0x5768
        0x000054fa:    e004        ..      B        0x5506 ; _printf_core + 1150
        0x000054fc:    07e1        ..      LSLS     r1,r4,#31
        0x000054fe:    d001        ..      BEQ      0x5504 ; _printf_core + 1148
        0x00005500:    a19a        ..      ADR      r1,{pc}+0x26c ; 0x576c
        0x00005502:    e000        ..      B        0x5506 ; _printf_core + 1150
        0x00005504:    a19a        ..      ADR      r1,{pc}+0x26c ; 0x5770
        0x00005506:    0043        C.      LSLS     r3,r0,#1
        0x00005508:    9811        ..      LDR      r0,[sp,#0x44]
        0x0000550a:    085b        [.      LSRS     r3,r3,#1
        0x0000550c:    9110        ..      STR      r1,[sp,#0x40]
        0x0000550e:    2865        e(      CMP      r0,#0x65
        0x00005510:    d00c        ..      BEQ      0x552c ; _printf_core + 1188
        0x00005512:    dc06        ..      BGT      0x5522 ; _printf_core + 1178
        0x00005514:    2845        E(      CMP      r0,#0x45
        0x00005516:    d009        ..      BEQ      0x552c ; _printf_core + 1188
        0x00005518:    2846        F(      CMP      r0,#0x46
        0x0000551a:    d01d        ..      BEQ      0x5558 ; _printf_core + 1232
        0x0000551c:    2847        G(      CMP      r0,#0x47
        0x0000551e:    d141        A.      BNE      0x55a4 ; _printf_core + 1308
        0x00005520:    e041        A.      B        0x55a6 ; _printf_core + 1310
        0x00005522:    2866        f(      CMP      r0,#0x66
        0x00005524:    d018        ..      BEQ      0x5558 ; _printf_core + 1232
        0x00005526:    2867        g(      CMP      r0,#0x67
        0x00005528:    d13c        <.      BNE      0x55a4 ; _printf_core + 1308
        0x0000552a:    e03c        <.      B        0x55a6 ; _printf_core + 1310
        0x0000552c:    2100        .!      MOVS     r1,#0
        0x0000552e:    2f11        ./      CMP      r7,#0x11
        0x00005530:    db01        ..      BLT      0x5536 ; _printf_core + 1198
        0x00005532:    2011        .       MOVS     r0,#0x11
        0x00005534:    e000        ..      B        0x5538 ; _printf_core + 1200
        0x00005536:    1c78        x.      ADDS     r0,r7,#1
        0x00005538:    9101        ..      STR      r1,[sp,#4]
        0x0000553a:    9000        ..      STR      r0,[sp,#0]
        0x0000553c:    a908        ..      ADD      r1,sp,#0x20
        0x0000553e:    a811        ..      ADD      r0,sp,#0x44
        0x00005540:    f7fffce8    ....    BL       _fp_digits ; 0x4f14
        0x00005544:    9913        ..      LDR      r1,[sp,#0x4c]
        0x00005546:    9105        ..      STR      r1,[sp,#0x14]
        0x00005548:    2100        .!      MOVS     r1,#0
        0x0000554a:    9a11        ..      LDR      r2,[sp,#0x44]
        0x0000554c:    9215        ..      STR      r2,[sp,#0x54]
        0x0000554e:    1c7f        ..      ADDS     r7,r7,#1
        0x00005550:    9812        ..      LDR      r0,[sp,#0x48]
        0x00005552:    9701        ..      STR      r7,[sp,#4]
        0x00005554:    9100        ..      STR      r1,[sp,#0]
        0x00005556:    e050        P.      B        0x55fa ; _printf_core + 1394
        0x00005558:    2001        .       MOVS     r0,#1
        0x0000555a:    07c0        ..      LSLS     r0,r0,#31
        0x0000555c:    9003        ..      STR      r0,[sp,#0xc]
        0x0000555e:    2001        .       MOVS     r0,#1
        0x00005560:    9001        ..      STR      r0,[sp,#4]
        0x00005562:    a908        ..      ADD      r1,sp,#0x20
        0x00005564:    9700        ..      STR      r7,[sp,#0]
        0x00005566:    a811        ..      ADD      r0,sp,#0x44
        0x00005568:    f7fffcd4    ....    BL       _fp_digits ; 0x4f14
        0x0000556c:    9a13        ..      LDR      r2,[sp,#0x4c]
        0x0000556e:    9914        ..      LDR      r1,[sp,#0x50]
        0x00005570:    9205        ..      STR      r2,[sp,#0x14]
        0x00005572:    2200        ."      MOVS     r2,#0
        0x00005574:    9b11        ..      LDR      r3,[sp,#0x44]
        0x00005576:    9200        ..      STR      r2,[sp,#0]
        0x00005578:    9812        ..      LDR      r0,[sp,#0x48]
        0x0000557a:    9315        ..      STR      r3,[sp,#0x54]
        0x0000557c:    9a05        ..      LDR      r2,[sp,#0x14]
        0x0000557e:    9201        ..      STR      r2,[sp,#4]
        0x00005580:    2900        .)      CMP      r1,#0
        0x00005582:    d001        ..      BEQ      0x5588 ; _printf_core + 1280
        0x00005584:    4610        .F      MOV      r0,r2
        0x00005586:    e002        ..      B        0x558e ; _printf_core + 1286
        0x00005588:    1c79        y.      ADDS     r1,r7,#1
        0x0000558a:    1840        @.      ADDS     r0,r0,r1
        0x0000558c:    9001        ..      STR      r0,[sp,#4]
        0x0000558e:    1a38        8.      SUBS     r0,r7,r0
        0x00005590:    d501        ..      BPL      0x5596 ; _printf_core + 1294
        0x00005592:    9801        ..      LDR      r0,[sp,#4]
        0x00005594:    e004        ..      B        0x55a0 ; _printf_core + 1304
        0x00005596:    4240        @B      RSBS     r0,r0,#0
        0x00005598:    1e40        @.      SUBS     r0,r0,#1
        0x0000559a:    9000        ..      STR      r0,[sp,#0]
        0x0000559c:    1c78        x.      ADDS     r0,r7,#1
        0x0000559e:    9001        ..      STR      r0,[sp,#4]
        0x000055a0:    1bc0        ..      SUBS     r0,r0,r7
        0x000055a2:    9002        ..      STR      r0,[sp,#8]
        0x000055a4:    e043        C.      B        0x562e ; _printf_core + 1446
        0x000055a6:    2f01        ./      CMP      r7,#1
        0x000055a8:    da00        ..      BGE      0x55ac ; _printf_core + 1316
        0x000055aa:    2701        .'      MOVS     r7,#1
        0x000055ac:    2100        .!      MOVS     r1,#0
        0x000055ae:    2f11        ./      CMP      r7,#0x11
        0x000055b0:    dd01        ..      BLE      0x55b6 ; _printf_core + 1326
        0x000055b2:    2011        .       MOVS     r0,#0x11
        0x000055b4:    e000        ..      B        0x55b8 ; _printf_core + 1328
        0x000055b6:    4638        8F      MOV      r0,r7
        0x000055b8:    9101        ..      STR      r1,[sp,#4]
        0x000055ba:    9000        ..      STR      r0,[sp,#0]
        0x000055bc:    a908        ..      ADD      r1,sp,#0x20
        0x000055be:    a811        ..      ADD      r0,sp,#0x44
        0x000055c0:    f7fffca8    ....    BL       _fp_digits ; 0x4f14
        0x000055c4:    9913        ..      LDR      r1,[sp,#0x4c]
        0x000055c6:    9105        ..      STR      r1,[sp,#0x14]
        0x000055c8:    9a11        ..      LDR      r2,[sp,#0x44]
        0x000055ca:    2100        .!      MOVS     r1,#0
        0x000055cc:    9812        ..      LDR      r0,[sp,#0x48]
        0x000055ce:    9215        ..      STR      r2,[sp,#0x54]
        0x000055d0:    9100        ..      STR      r1,[sp,#0]
        0x000055d2:    9701        ..      STR      r7,[sp,#4]
        0x000055d4:    0721        !.      LSLS     r1,r4,#28
        0x000055d6:    d40c        ..      BMI      0x55f2 ; _printf_core + 1386
        0x000055d8:    9905        ..      LDR      r1,[sp,#0x14]
        0x000055da:    42b9        .B      CMP      r1,r7
        0x000055dc:    db01        ..      BLT      0x55e2 ; _printf_core + 1370
        0x000055de:    9901        ..      LDR      r1,[sp,#4]
        0x000055e0:    e000        ..      B        0x55e4 ; _printf_core + 1372
        0x000055e2:    9101        ..      STR      r1,[sp,#4]
        0x000055e4:    2901        .)      CMP      r1,#1
        0x000055e6:    dd04        ..      BLE      0x55f2 ; _printf_core + 1386
        0x000055e8:    9a15        ..      LDR      r2,[sp,#0x54]
        0x000055ea:    1e49        I.      SUBS     r1,r1,#1
        0x000055ec:    5c51        Q\      LDRB     r1,[r2,r1]
        0x000055ee:    2930        0)      CMP      r1,#0x30
        0x000055f0:    d006        ..      BEQ      0x5600 ; _printf_core + 1400
        0x000055f2:    42b8        .B      CMP      r0,r7
        0x000055f4:    da01        ..      BGE      0x55fa ; _printf_core + 1394
        0x000055f6:    1d01        ..      ADDS     r1,r0,#4
        0x000055f8:    da05        ..      BGE      0x5606 ; _printf_core + 1406
        0x000055fa:    2101        .!      MOVS     r1,#1
        0x000055fc:    9102        ..      STR      r1,[sp,#8]
        0x000055fe:    e015        ..      B        0x562c ; _printf_core + 1444
        0x00005600:    9901        ..      LDR      r1,[sp,#4]
        0x00005602:    1e49        I.      SUBS     r1,r1,#1
        0x00005604:    e7ed        ..      B        0x55e2 ; _printf_core + 1370
        0x00005606:    2800        .(      CMP      r0,#0
        0x00005608:    dc05        ..      BGT      0x5616 ; _printf_core + 1422
        0x0000560a:    9900        ..      LDR      r1,[sp,#0]
        0x0000560c:    1841        A.      ADDS     r1,r0,r1
        0x0000560e:    9100        ..      STR      r1,[sp,#0]
        0x00005610:    9901        ..      LDR      r1,[sp,#4]
        0x00005612:    1a09        ..      SUBS     r1,r1,r0
        0x00005614:    e003        ..      B        0x561e ; _printf_core + 1430
        0x00005616:    9a01        ..      LDR      r2,[sp,#4]
        0x00005618:    1c41        A.      ADDS     r1,r0,#1
        0x0000561a:    4291        .B      CMP      r1,r2
        0x0000561c:    dd00        ..      BLE      0x5620 ; _printf_core + 1432
        0x0000561e:    9101        ..      STR      r1,[sp,#4]
        0x00005620:    9900        ..      LDR      r1,[sp,#0]
        0x00005622:    1a40        @.      SUBS     r0,r0,r1
        0x00005624:    1c40        @.      ADDS     r0,r0,#1
        0x00005626:    9002        ..      STR      r0,[sp,#8]
        0x00005628:    2001        .       MOVS     r0,#1
        0x0000562a:    07c0        ..      LSLS     r0,r0,#31
        0x0000562c:    9003        ..      STR      r0,[sp,#0xc]
        0x0000562e:    0720         .      LSLS     r0,r4,#28
        0x00005630:    d406        ..      BMI      0x5640 ; _printf_core + 1464
        0x00005632:    9902        ..      LDR      r1,[sp,#8]
        0x00005634:    9801        ..      LDR      r0,[sp,#4]
        0x00005636:    4281        .B      CMP      r1,r0
        0x00005638:    db02        ..      BLT      0x5640 ; _printf_core + 1464
        0x0000563a:    2000        .       MOVS     r0,#0
        0x0000563c:    43c0        .C      MVNS     r0,r0
        0x0000563e:    9002        ..      STR      r0,[sp,#8]
        0x00005640:    2000        .       MOVS     r0,#0
        0x00005642:    4669        iF      MOV      r1,sp
        0x00005644:    77c8        .w      STRB     r0,[r1,#0x1f]
        0x00005646:    af07        ..      ADD      r7,sp,#0x1c
        0x00005648:    2101        .!      MOVS     r1,#1
        0x0000564a:    9803        ..      LDR      r0,[sp,#0xc]
        0x0000564c:    3703        .7      ADDS     r7,#3
        0x0000564e:    07c9        ..      LSLS     r1,r1,#31
        0x00005650:    4288        .B      CMP      r0,r1
        0x00005652:    d024        $.      BEQ      0x569e ; _printf_core + 1558
        0x00005654:    2002        .       MOVS     r0,#2
        0x00005656:    9011        ..      STR      r0,[sp,#0x44]
        0x00005658:    202b        +       MOVS     r0,#0x2b
        0x0000565a:    9012        ..      STR      r0,[sp,#0x48]
        0x0000565c:    9803        ..      LDR      r0,[sp,#0xc]
        0x0000565e:    2800        .(      CMP      r0,#0
        0x00005660:    da0c        ..      BGE      0x567c ; _printf_core + 1524
        0x00005662:    4240        @B      RSBS     r0,r0,#0
        0x00005664:    9003        ..      STR      r0,[sp,#0xc]
        0x00005666:    202d        -       MOVS     r0,#0x2d
        0x00005668:    9012        ..      STR      r0,[sp,#0x48]
        0x0000566a:    e007        ..      B        0x567c ; _printf_core + 1524
        0x0000566c:    210a        .!      MOVS     r1,#0xa
        0x0000566e:    9803        ..      LDR      r0,[sp,#0xc]
        0x00005670:    f7fafd60    ..`.    BL       __aeabi_uidiv ; 0x134
        0x00005674:    3130        01      ADDS     r1,r1,#0x30
        0x00005676:    1e7f        ..      SUBS     r7,r7,#1
        0x00005678:    9003        ..      STR      r0,[sp,#0xc]
        0x0000567a:    7039        9p      STRB     r1,[r7,#0]
        0x0000567c:    9911        ..      LDR      r1,[sp,#0x44]
        0x0000567e:    1e48        H.      SUBS     r0,r1,#1
        0x00005680:    9011        ..      STR      r0,[sp,#0x44]
        0x00005682:    2900        .)      CMP      r1,#0
        0x00005684:    dcf2        ..      BGT      0x566c ; _printf_core + 1508
        0x00005686:    9803        ..      LDR      r0,[sp,#0xc]
        0x00005688:    2800        .(      CMP      r0,#0
        0x0000568a:    d1ef        ..      BNE      0x566c ; _printf_core + 1508
        0x0000568c:    1e79        y.      SUBS     r1,r7,#1
        0x0000568e:    9812        ..      LDR      r0,[sp,#0x48]
        0x00005690:    7008        .p      STRB     r0,[r1,#0]
        0x00005692:    7830        0x      LDRB     r0,[r6,#0]
        0x00005694:    2120         !      MOVS     r1,#0x20
        0x00005696:    4008        .@      ANDS     r0,r0,r1
        0x00005698:    3045        E0      ADDS     r0,r0,#0x45
        0x0000569a:    1ebf        ..      SUBS     r7,r7,#2
        0x0000569c:    7038        8p      STRB     r0,[r7,#0]
        0x0000569e:    a806        ..      ADD      r0,sp,#0x18
        0x000056a0:    1bc0        ..      SUBS     r0,r0,r7
        0x000056a2:    1dc0        ..      ADDS     r0,r0,#7
        0x000056a4:    9003        ..      STR      r0,[sp,#0xc]
        0x000056a6:    9810        ..      LDR      r0,[sp,#0x40]
        0x000056a8:    7800        .x      LDRB     r0,[r0,#0]
        0x000056aa:    2800        .(      CMP      r0,#0
        0x000056ac:    d000        ..      BEQ      0x56b0 ; _printf_core + 1576
        0x000056ae:    2001        .       MOVS     r0,#1
        0x000056b0:    9901        ..      LDR      r1,[sp,#4]
        0x000056b2:    1841        A.      ADDS     r1,r0,r1
        0x000056b4:    9802        ..      LDR      r0,[sp,#8]
        0x000056b6:    17c0        ..      ASRS     r0,r0,#31
        0x000056b8:    1809        ..      ADDS     r1,r1,r0
        0x000056ba:    9803        ..      LDR      r0,[sp,#0xc]
        0x000056bc:    1809        ..      ADDS     r1,r1,r0
        0x000056be:    9804        ..      LDR      r0,[sp,#0x10]
        0x000056c0:    1a40        @.      SUBS     r0,r0,r1
        0x000056c2:    1e40        @.      SUBS     r0,r0,#1
        0x000056c4:    9004        ..      STR      r0,[sp,#0x10]
        0x000056c6:    03e0        ..      LSLS     r0,r4,#15
        0x000056c8:    d406        ..      BMI      0x56d8 ; _printf_core + 1616
        0x000056ca:    4621        !F      MOV      r1,r4
        0x000056cc:    9b1a        ..      LDR      r3,[sp,#0x68]
        0x000056ce:    9a19        ..      LDR      r2,[sp,#0x64]
        0x000056d0:    9804        ..      LDR      r0,[sp,#0x10]
        0x000056d2:    f000f85f    .._.    BL       _printf_pre_padding ; 0x5794
        0x000056d6:    1945        E.      ADDS     r5,r0,r5
        0x000056d8:    9810        ..      LDR      r0,[sp,#0x40]
        0x000056da:    7800        .x      LDRB     r0,[r0,#0]
        0x000056dc:    2800        .(      CMP      r0,#0
        0x000056de:    d003        ..      BEQ      0x56e8 ; _printf_core + 1632
        0x000056e0:    9a1a        ..      LDR      r2,[sp,#0x68]
        0x000056e2:    9919        ..      LDR      r1,[sp,#0x64]
        0x000056e4:    4790        .G      BLX      r2
        0x000056e6:    1c6d        m.      ADDS     r5,r5,#1
        0x000056e8:    03e0        ..      LSLS     r0,r4,#15
        0x000056ea:    d524        $.      BPL      0x5736 ; _printf_core + 1710
        0x000056ec:    4621        !F      MOV      r1,r4
        0x000056ee:    9b1a        ..      LDR      r3,[sp,#0x68]
        0x000056f0:    9a19        ..      LDR      r2,[sp,#0x64]
        0x000056f2:    9804        ..      LDR      r0,[sp,#0x10]
        0x000056f4:    f000f84e    ..N.    BL       _printf_pre_padding ; 0x5794
        0x000056f8:    1945        E.      ADDS     r5,r0,r5
        0x000056fa:    e01c        ..      B        0x5736 ; _printf_core + 1710
        0x000056fc:    9800        ..      LDR      r0,[sp,#0]
        0x000056fe:    2800        .(      CMP      r0,#0
        0x00005700:    db07        ..      BLT      0x5712 ; _printf_core + 1674
        0x00005702:    9900        ..      LDR      r1,[sp,#0]
        0x00005704:    9805        ..      LDR      r0,[sp,#0x14]
        0x00005706:    4288        .B      CMP      r0,r1
        0x00005708:    dd03        ..      BLE      0x5712 ; _printf_core + 1674
        0x0000570a:    9815        ..      LDR      r0,[sp,#0x54]
        0x0000570c:    5c40        @\      LDRB     r0,[r0,r1]
        0x0000570e:    9919        ..      LDR      r1,[sp,#0x64]
        0x00005710:    e001        ..      B        0x5716 ; _printf_core + 1678
        0x00005712:    9919        ..      LDR      r1,[sp,#0x64]
        0x00005714:    2030        0       MOVS     r0,#0x30
        0x00005716:    9a1a        ..      LDR      r2,[sp,#0x68]
        0x00005718:    4790        .G      BLX      r2
        0x0000571a:    9800        ..      LDR      r0,[sp,#0]
        0x0000571c:    1c6d        m.      ADDS     r5,r5,#1
        0x0000571e:    1c40        @.      ADDS     r0,r0,#1
        0x00005720:    9000        ..      STR      r0,[sp,#0]
        0x00005722:    9802        ..      LDR      r0,[sp,#8]
        0x00005724:    1e40        @.      SUBS     r0,r0,#1
        0x00005726:    9002        ..      STR      r0,[sp,#8]
        0x00005728:    2800        .(      CMP      r0,#0
        0x0000572a:    d104        ..      BNE      0x5736 ; _printf_core + 1710
        0x0000572c:    9a1a        ..      LDR      r2,[sp,#0x68]
        0x0000572e:    202e        .       MOVS     r0,#0x2e
        0x00005730:    9919        ..      LDR      r1,[sp,#0x64]
        0x00005732:    4790        .G      BLX      r2
        0x00005734:    1c6d        m.      ADDS     r5,r5,#1
        0x00005736:    9901        ..      LDR      r1,[sp,#4]
        0x00005738:    1e48        H.      SUBS     r0,r1,#1
        0x0000573a:    9001        ..      STR      r0,[sp,#4]
        0x0000573c:    2900        .)      CMP      r1,#0
        0x0000573e:    dcdd        ..      BGT      0x56fc ; _printf_core + 1652
        0x00005740:    e005        ..      B        0x574e ; _printf_core + 1734
        0x00005742:    7838        8x      LDRB     r0,[r7,#0]
        0x00005744:    9a1a        ..      LDR      r2,[sp,#0x68]
        0x00005746:    1c7f        ..      ADDS     r7,r7,#1
        0x00005748:    9919        ..      LDR      r1,[sp,#0x64]
        0x0000574a:    4790        .G      BLX      r2
        0x0000574c:    1c6d        m.      ADDS     r5,r5,#1
        0x0000574e:    9903        ..      LDR      r1,[sp,#0xc]
        0x00005750:    1e48        H.      SUBS     r0,r1,#1
        0x00005752:    9003        ..      STR      r0,[sp,#0xc]
        0x00005754:    2900        .)      CMP      r1,#0
        0x00005756:    dcf4        ..      BGT      0x5742 ; _printf_core + 1722
        0x00005758:    4621        !F      MOV      r1,r4
        0x0000575a:    9b1a        ..      LDR      r3,[sp,#0x68]
        0x0000575c:    9a19        ..      LDR      r2,[sp,#0x64]
        0x0000575e:    9804        ..      LDR      r0,[sp,#0x10]
        0x00005760:    e6ac        ..      B        0x54bc ; _printf_core + 1076
    $d
        0x00005762:    0000        ..      DCW    0
        0x00005764:    0000002d    -...    DCD    45
        0x00005768:    0000002b    +...    DCD    43
        0x0000576c:    00000020     ...    DCD    32
        0x00005770:    00000000    ....    DCD    0
    $t
    i._printf_post_padding
    _printf_post_padding
        0x00005774:    b5f8        ..      PUSH     {r3-r7,lr}
        0x00005776:    4604        .F      MOV      r4,r0
        0x00005778:    2500        .%      MOVS     r5,#0
        0x0000577a:    461e        .F      MOV      r6,r3
        0x0000577c:    4617        .F      MOV      r7,r2
        0x0000577e:    0488        ..      LSLS     r0,r1,#18
        0x00005780:    d404        ..      BMI      0x578c ; _printf_post_padding + 24
        0x00005782:    e005        ..      B        0x5790 ; _printf_post_padding + 28
        0x00005784:    4639        9F      MOV      r1,r7
        0x00005786:    2020                MOVS     r0,#0x20
        0x00005788:    47b0        .G      BLX      r6
        0x0000578a:    1c6d        m.      ADDS     r5,r5,#1
        0x0000578c:    1e64        d.      SUBS     r4,r4,#1
        0x0000578e:    d5f9        ..      BPL      0x5784 ; _printf_post_padding + 16
        0x00005790:    4628        (F      MOV      r0,r5
        0x00005792:    bdf8        ..      POP      {r3-r7,pc}
    i._printf_pre_padding
    _printf_pre_padding
        0x00005794:    b5ff        ..      PUSH     {r0-r7,lr}
        0x00005796:    4604        .F      MOV      r4,r0
        0x00005798:    2500        .%      MOVS     r5,#0
        0x0000579a:    b081        ..      SUB      sp,sp,#4
        0x0000579c:    461e        .F      MOV      r6,r3
        0x0000579e:    03c8        ..      LSLS     r0,r1,#15
        0x000057a0:    d501        ..      BPL      0x57a6 ; _printf_pre_padding + 18
        0x000057a2:    2730        0'      MOVS     r7,#0x30
        0x000057a4:    e000        ..      B        0x57a8 ; _printf_pre_padding + 20
        0x000057a6:    2720         '      MOVS     r7,#0x20
        0x000057a8:    0488        ..      LSLS     r0,r1,#18
        0x000057aa:    d504        ..      BPL      0x57b6 ; _printf_pre_padding + 34
        0x000057ac:    e005        ..      B        0x57ba ; _printf_pre_padding + 38
        0x000057ae:    4638        8F      MOV      r0,r7
        0x000057b0:    9903        ..      LDR      r1,[sp,#0xc]
        0x000057b2:    47b0        .G      BLX      r6
        0x000057b4:    1c6d        m.      ADDS     r5,r5,#1
        0x000057b6:    1e64        d.      SUBS     r4,r4,#1
        0x000057b8:    d5f9        ..      BPL      0x57ae ; _printf_pre_padding + 26
        0x000057ba:    4628        (F      MOV      r0,r5
        0x000057bc:    b005        ..      ADD      sp,sp,#0x14
        0x000057be:    bdf0        ..      POP      {r4-r7,pc}
    $d.realdata
    MeterDeviceMaxTable
        0x000057c0:    02020201    ....    DCD    33686017
        0x000057c4:    02020202    ....    DCD    33686018
        0x000057c8:    02          .       DCB    2
    RoomMaxTable
        0x000057c9:    011e17      ...     DCB    1,30,23
        0x000057cc:    1f1d1f1d    ....    DCD    522002205
        0x000057d0:    00001f1d    ....    DCD    7965
    gau32ClkSrcTbl
        0x000057d4:    00b71b00    ....    DCD    12000000
        0x000057d8:    00008000    ....    DCD    32768
        0x000057dc:    0448e000    ..H.    DCD    71884800
        0x000057e0:    00002710    .'..    DCD    10000
        0x000057e4:    02dc6c00    .l..    DCD    48000000
        0x000057e8:    00000000    ....    DCD    0
        0x000057ec:    00000000    ....    DCD    0
        0x000057f0:    01518000    ..Q.    DCD    22118400
        0x000057f4:    61482020      Ha    DCD    1632116768
        0x000057f8:    61466472    rdFa    DCD    1632003186
        0x000057fc:    21746c75    ult!    DCD    561278069
        0x00005800:    00000a0a    ....    DCD    2570
    Region$$Table$$Base
        0x00005804:    00005828    (X..    DCD    22568
        0x00005808:    20000000    ...     DCD    536870912
        0x0000580c:    00000010    ....    DCD    16
        0x00005810:    00004ef6    .N..    DCD    20214
        0x00005814:    00005838    8X..    DCD    22584
        0x00005818:    20000010    ...     DCD    536870928
        0x0000581c:    00000948    H...    DCD    2376
        0x00005820:    00004f06    .O..    DCD    20230
    Region$$Table$$Limit

** Section #2 'RW_IRAM1' (SHT_PROGBITS) [SHF_ALLOC + SHF_WRITE]
    Size   : 16 bytes (alignment 8)
    Address: 0x20000000


** Section #3 'RW_IRAM1' (SHT_NOBITS) [SHF_ALLOC + SHF_WRITE]
    Size   : 2376 bytes (alignment 8)
    Address: 0x20000010


** Section #4 '.debug_abbrev' (SHT_PROGBITS)
    Size   : 4547 bytes


** Section #5 '.debug_frame' (SHT_PROGBITS)
    Size   : 6196 bytes


** Section #6 '.debug_info' (SHT_PROGBITS)
    Size   : 27044 bytes


** Section #7 '.debug_line' (SHT_PROGBITS)
    Size   : 25726 bytes


** Section #8 '.debug_ranges' (SHT_PROGBITS)
    Size   : 1872 bytes


** Section #9 '.debug_str' (SHT_PROGBITS)
    Size   : 21335 bytes


** Section #10 '.symtab' (SHT_SYMTAB)
    Size   : 16944 bytes (alignment 4)
    String table #11 '.strtab'
    Last local symbol no. 759


** Section #11 '.strtab' (SHT_STRTAB)
    Size   : 9396 bytes


** Section #12 '.note' (SHT_NOTE)
    Size   : 28 bytes (alignment 4)


** Section #13 '.comment' (SHT_PROGBITS)
    Size   : 1736 bytes


** Section #14 '.shstrtab' (SHT_STRTAB)
    Size   : 136 bytes


